
Bastian_freeRTOS-TRACE.elf:     file format elf32-littlearm

Sections:
Idx Name          Size      VMA       LMA       File off  Algn
  0 .text         00006b8c  00000000  00000000  00008000  2**3
                  CONTENTS, ALLOC, LOAD, READONLY, CODE
  1 .relocate     00000448  20000000  00006b8c  00010000  2**3
                  CONTENTS, ALLOC, LOAD, DATA
  2 .bss          00002ab4  20000448  00006fd4  00010448  2**2
                  ALLOC
  3 .stack        00002004  20002efc  00009a88  00010448  2**0
                  ALLOC
  4 .ARM.attributes 00000028  00000000  00000000  00010448  2**0
                  CONTENTS, READONLY
  5 .comment      0000005b  00000000  00000000  00010470  2**0
                  CONTENTS, READONLY
  6 .debug_info   00023b70  00000000  00000000  000104cb  2**0
                  CONTENTS, READONLY, DEBUGGING
  7 .debug_abbrev 000038d7  00000000  00000000  0003403b  2**0
                  CONTENTS, READONLY, DEBUGGING
  8 .debug_loc    0000a9a1  00000000  00000000  00037912  2**0
                  CONTENTS, READONLY, DEBUGGING
  9 .debug_aranges 000009a8  00000000  00000000  000422b3  2**0
                  CONTENTS, READONLY, DEBUGGING
 10 .debug_ranges 00000a60  00000000  00000000  00042c5b  2**0
                  CONTENTS, READONLY, DEBUGGING
 11 .debug_line   00006aea  00000000  00000000  000436bb  2**0
                  CONTENTS, READONLY, DEBUGGING
 12 .debug_str    000079f4  00000000  00000000  0004a1a5  2**0
                  CONTENTS, READONLY, DEBUGGING
 13 .debug_frame  00001bb8  00000000  00000000  00051b9c  2**2
                  CONTENTS, READONLY, DEBUGGING

Disassembly of section .text:

00000000 <_sfixed>:
       0:	20004f00 	.word	0x20004f00
       4:	00004781 	.word	0x00004781
       8:	0000477d 	.word	0x0000477d
       c:	0000477d 	.word	0x0000477d
	...
      2c:	00002a61 	.word	0x00002a61
	...
      38:	00002ac9 	.word	0x00002ac9
      3c:	00002b0d 	.word	0x00002b0d
      40:	0000477d 	.word	0x0000477d
      44:	0000477d 	.word	0x0000477d
      48:	0000477d 	.word	0x0000477d
      4c:	0000477d 	.word	0x0000477d
      50:	0000477d 	.word	0x0000477d
      54:	0000477d 	.word	0x0000477d
      58:	0000477d 	.word	0x0000477d
      5c:	0000477d 	.word	0x0000477d
      60:	0000477d 	.word	0x0000477d
      64:	00000a55 	.word	0x00000a55
      68:	00000a65 	.word	0x00000a65
      6c:	00000a75 	.word	0x00000a75
      70:	00000a85 	.word	0x00000a85
	...
      7c:	0000477d 	.word	0x0000477d
      80:	0000477d 	.word	0x0000477d
      84:	0000477d 	.word	0x0000477d
      88:	0000477d 	.word	0x0000477d
      8c:	0000477d 	.word	0x0000477d
      90:	0000477d 	.word	0x0000477d
	...
      9c:	0000477d 	.word	0x0000477d
      a0:	0000477d 	.word	0x0000477d
      a4:	0000477d 	.word	0x0000477d
      a8:	0000477d 	.word	0x0000477d
      ac:	0000477d 	.word	0x0000477d

000000b0 <__do_global_dtors_aux>:
      b0:	b510      	push	{r4, lr}
      b2:	4c06      	ldr	r4, [pc, #24]	; (cc <__do_global_dtors_aux+0x1c>)
      b4:	7823      	ldrb	r3, [r4, #0]
      b6:	2b00      	cmp	r3, #0
      b8:	d107      	bne.n	ca <__do_global_dtors_aux+0x1a>
      ba:	4b05      	ldr	r3, [pc, #20]	; (d0 <__do_global_dtors_aux+0x20>)
      bc:	2b00      	cmp	r3, #0
      be:	d002      	beq.n	c6 <__do_global_dtors_aux+0x16>
      c0:	4804      	ldr	r0, [pc, #16]	; (d4 <__do_global_dtors_aux+0x24>)
      c2:	e000      	b.n	c6 <__do_global_dtors_aux+0x16>
      c4:	bf00      	nop
      c6:	2301      	movs	r3, #1
      c8:	7023      	strb	r3, [r4, #0]
      ca:	bd10      	pop	{r4, pc}
      cc:	20000448 	.word	0x20000448
      d0:	00000000 	.word	0x00000000
      d4:	00006b8c 	.word	0x00006b8c

000000d8 <frame_dummy>:
      d8:	b508      	push	{r3, lr}
      da:	4b08      	ldr	r3, [pc, #32]	; (fc <frame_dummy+0x24>)
      dc:	2b00      	cmp	r3, #0
      de:	d003      	beq.n	e8 <frame_dummy+0x10>
      e0:	4807      	ldr	r0, [pc, #28]	; (100 <frame_dummy+0x28>)
      e2:	4908      	ldr	r1, [pc, #32]	; (104 <frame_dummy+0x2c>)
      e4:	e000      	b.n	e8 <frame_dummy+0x10>
      e6:	bf00      	nop
      e8:	4807      	ldr	r0, [pc, #28]	; (108 <frame_dummy+0x30>)
      ea:	6803      	ldr	r3, [r0, #0]
      ec:	2b00      	cmp	r3, #0
      ee:	d003      	beq.n	f8 <frame_dummy+0x20>
      f0:	4b06      	ldr	r3, [pc, #24]	; (10c <frame_dummy+0x34>)
      f2:	2b00      	cmp	r3, #0
      f4:	d000      	beq.n	f8 <frame_dummy+0x20>
      f6:	4798      	blx	r3
      f8:	bd08      	pop	{r3, pc}
      fa:	46c0      	nop			; (mov r8, r8)
      fc:	00000000 	.word	0x00000000
     100:	00006b8c 	.word	0x00006b8c
     104:	2000044c 	.word	0x2000044c
     108:	00006b8c 	.word	0x00006b8c
     10c:	00000000 	.word	0x00000000

00000110 <timer_irda_sync_callback>:
	system_interrupt_disable_global();
}

void timer_irda_sync_callback(TimerHandle_t pxTimer) 
{
	configASSERT( pxTimer );
     110:	2800      	cmp	r0, #0
     112:	d101      	bne.n	118 <timer_irda_sync_callback+0x8>
     114:	b672      	cpsid	i
     116:	e7fe      	b.n	116 <timer_irda_sync_callback+0x6>
	
	
     118:	4770      	bx	lr
     11a:	46c0      	nop			; (mov r8, r8)

0000011c <irda_communication_task>:

//#define IRDA_BEACON_PING	(( uint8_t ) 0x01 )		// This is the 
uint8_t irda_comm_state;
uint8_t irda_tx_array[6] = { 0 };
uint8_t irda_rx_array[6] = { 0 };
void irda_communication_task(void) {
     11c:	b5f0      	push	{r4, r5, r6, r7, lr}
     11e:	4647      	mov	r7, r8
     120:	b480      	push	{r7}
     122:	b082      	sub	sp, #8
	
	// Start this task by pinging out
	irda_comm_state = IRDA_SLAT_PING;
     124:	2201      	movs	r2, #1
     126:	4b2d      	ldr	r3, [pc, #180]	; (1dc <irda_communication_task+0xc0>)
     128:	701a      	strb	r2, [r3, #0]
	
	while (1) {
		//port_pin_toggle_output_level(LED_BUSY);
		//vTracePrintF(event_channel, "IRDA: %d", irda_comm_state);
		switch( irda_comm_state )
     12a:	1c1e      	adds	r6, r3, #0
				usart_enable_transceiver( &irda_master, USART_TRANSCEIVER_RX );	// Enable Receiving Transceiver
				usart_read_buffer_job( &irda_master, irda_rx_array, 3 );	// Try to get the 3-Byte ping
			break;
			case IRDA_SLAT_FIRST:  // Send the response back and reset
				// Send out the ping and wait
				irda_tx_array[0] = 0xBB;
     12c:	4d2c      	ldr	r5, [pc, #176]	; (1e0 <irda_communication_task+0xc4>)
				
				vTracePrintF(event_channel, "Send Resp.");
				
				// Send this data now
				xTimerReset( timer_IrDA_Ping, 0 );
				usart_write_buffer_job(&irda_master, irda_tx_array, 5);
     12e:	1c2f      	adds	r7, r5, #0
     130:	3708      	adds	r7, #8
	irda_comm_state = IRDA_SLAT_PING;
	
	while (1) {
		//port_pin_toggle_output_level(LED_BUSY);
		//vTracePrintF(event_channel, "IRDA: %d", irda_comm_state);
		switch( irda_comm_state )
     132:	7833      	ldrb	r3, [r6, #0]
     134:	2b01      	cmp	r3, #1
     136:	d002      	beq.n	13e <irda_communication_task+0x22>
     138:	2b02      	cmp	r3, #2
     13a:	d025      	beq.n	188 <irda_communication_task+0x6c>
     13c:	e03f      	b.n	1be <irda_communication_task+0xa2>
		{
			case IRDA_SLAT_PING:
				irda_timed_out = pdFALSE;
     13e:	2400      	movs	r4, #0
     140:	4b28      	ldr	r3, [pc, #160]	; (1e4 <irda_communication_task+0xc8>)
     142:	601c      	str	r4, [r3, #0]
			
				
				
				// Start the necessary timers 
				//vTracePrintF(event_channel, "Rx Request.");
				xTimerReset( timer_IrDA_Ping, 0 );
     144:	4b28      	ldr	r3, [pc, #160]	; (1e8 <irda_communication_task+0xcc>)
     146:	681a      	ldr	r2, [r3, #0]
     148:	4690      	mov	r8, r2
     14a:	4b28      	ldr	r3, [pc, #160]	; (1ec <irda_communication_task+0xd0>)
     14c:	4798      	blx	r3
     14e:	1c02      	adds	r2, r0, #0
     150:	9400      	str	r4, [sp, #0]
     152:	4640      	mov	r0, r8
     154:	2102      	movs	r1, #2
     156:	2300      	movs	r3, #0
     158:	4c25      	ldr	r4, [pc, #148]	; (1f0 <irda_communication_task+0xd4>)
     15a:	47a0      	blx	r4
	/* Sanity check arguments */
	Assert(module);
	Assert(module->hw);

	/* Get a pointer to the hardware module instance */
	SercomUsart *const usart_hw = &(module->hw->USART);
     15c:	4b25      	ldr	r3, [pc, #148]	; (1f4 <irda_communication_task+0xd8>)
     15e:	681b      	ldr	r3, [r3, #0]
	Assert(module->hw);

	SercomUsart *const usart_hw = &(module->hw->USART);

#ifdef FEATURE_USART_SYNC_SCHEME_V2
	return (usart_hw->SYNCBUSY.reg);
     160:	69da      	ldr	r2, [r3, #28]
		const struct usart_module *const module)
{
	/* Sanity check */
	Assert(module);

	while (usart_is_syncing(module)) {
     162:	2a00      	cmp	r2, #0
     164:	d1fc      	bne.n	160 <irda_communication_task+0x44>
	_usart_wait_for_sync(module);

	switch (transceiver_type) {
		case USART_TRANSCEIVER_RX:
			/* Enable RX */
			usart_hw->CTRLB.reg |= SERCOM_USART_CTRLB_RXEN;
     166:	6859      	ldr	r1, [r3, #4]
     168:	2280      	movs	r2, #128	; 0x80
     16a:	0292      	lsls	r2, r2, #10
     16c:	430a      	orrs	r2, r1
     16e:	605a      	str	r2, [r3, #4]
			module->receiver_enabled = true;
     170:	2101      	movs	r1, #1
     172:	4a20      	ldr	r2, [pc, #128]	; (1f4 <irda_communication_task+0xd8>)
     174:	7191      	strb	r1, [r2, #6]
	Assert(module->hw);

	SercomUsart *const usart_hw = &(module->hw->USART);

#ifdef FEATURE_USART_SYNC_SCHEME_V2
	return (usart_hw->SYNCBUSY.reg);
     176:	69da      	ldr	r2, [r3, #28]
		const struct usart_module *const module)
{
	/* Sanity check */
	Assert(module);

	while (usart_is_syncing(module)) {
     178:	2a00      	cmp	r2, #0
     17a:	d1fc      	bne.n	176 <irda_communication_task+0x5a>
				//xTimerReset( timer_IrDA_Sync, 0 );	// Reset, immediately, the syncing timers
				
				usart_enable_transceiver( &irda_master, USART_TRANSCEIVER_RX );	// Enable Receiving Transceiver
				usart_read_buffer_job( &irda_master, irda_rx_array, 3 );	// Try to get the 3-Byte ping
     17c:	481d      	ldr	r0, [pc, #116]	; (1f4 <irda_communication_task+0xd8>)
     17e:	4918      	ldr	r1, [pc, #96]	; (1e0 <irda_communication_task+0xc4>)
     180:	2203      	movs	r2, #3
     182:	4b1d      	ldr	r3, [pc, #116]	; (1f8 <irda_communication_task+0xdc>)
     184:	4798      	blx	r3
			break;
     186:	e01a      	b.n	1be <irda_communication_task+0xa2>
			case IRDA_SLAT_FIRST:  // Send the response back and reset
				// Send out the ping and wait
				irda_tx_array[0] = 0xBB;
     188:	23bb      	movs	r3, #187	; 0xbb
     18a:	722b      	strb	r3, [r5, #8]
				irda_tx_array[1] = 0xBB;
     18c:	726b      	strb	r3, [r5, #9]
				irda_tx_array[2] = 0xBB;
     18e:	72ab      	strb	r3, [r5, #10]
				irda_tx_array[3] = 0xBB;
     190:	72eb      	strb	r3, [r5, #11]
				irda_tx_array[4] = 0xBB;
     192:	732b      	strb	r3, [r5, #12]
				
				vTracePrintF(event_channel, "Send Resp.");
     194:	4b19      	ldr	r3, [pc, #100]	; (1fc <irda_communication_task+0xe0>)
     196:	8818      	ldrh	r0, [r3, #0]
     198:	4919      	ldr	r1, [pc, #100]	; (200 <irda_communication_task+0xe4>)
     19a:	4b1a      	ldr	r3, [pc, #104]	; (204 <irda_communication_task+0xe8>)
     19c:	4798      	blx	r3
				
				// Send this data now
				xTimerReset( timer_IrDA_Ping, 0 );
     19e:	4b12      	ldr	r3, [pc, #72]	; (1e8 <irda_communication_task+0xcc>)
     1a0:	681c      	ldr	r4, [r3, #0]
     1a2:	4b12      	ldr	r3, [pc, #72]	; (1ec <irda_communication_task+0xd0>)
     1a4:	4798      	blx	r3
     1a6:	1c02      	adds	r2, r0, #0
     1a8:	2300      	movs	r3, #0
     1aa:	9300      	str	r3, [sp, #0]
     1ac:	1c20      	adds	r0, r4, #0
     1ae:	2102      	movs	r1, #2
     1b0:	4c0f      	ldr	r4, [pc, #60]	; (1f0 <irda_communication_task+0xd4>)
     1b2:	47a0      	blx	r4
				usart_write_buffer_job(&irda_master, irda_tx_array, 5);
     1b4:	480f      	ldr	r0, [pc, #60]	; (1f4 <irda_communication_task+0xd8>)
     1b6:	1c39      	adds	r1, r7, #0
     1b8:	2205      	movs	r2, #5
     1ba:	4b13      	ldr	r3, [pc, #76]	; (208 <irda_communication_task+0xec>)
     1bc:	4798      	blx	r3
 *
 * Enables global interrupts in the device to fire any enabled interrupt handlers.
 */
static inline void system_interrupt_enable_global(void)
{
	cpu_irq_enable();
     1be:	4c13      	ldr	r4, [pc, #76]	; (20c <irda_communication_task+0xf0>)
     1c0:	2301      	movs	r3, #1
     1c2:	7023      	strb	r3, [r4, #0]
    This function ensures the apparent order of the explicit memory operations before
    and after the instruction, without ensuring their completion.
 */
__attribute__( ( always_inline ) ) __STATIC_INLINE void __DMB(void)
{
  __ASM volatile ("dmb");
     1c4:	f3bf 8f5f 	dmb	sy
  This function enables IRQ interrupts by clearing the I-bit in the CPSR.
  Can only be executed in Privileged modes.
 */
__attribute__( ( always_inline ) ) __STATIC_INLINE void __enable_irq(void)
{
  __ASM volatile ("cpsie i" : : : "memory");
     1c8:	b662      	cpsie	i
				
			break;	
		}
		
		system_interrupt_enable_global();
		vTaskSuspend( NULL );
     1ca:	2000      	movs	r0, #0
     1cc:	4b10      	ldr	r3, [pc, #64]	; (210 <irda_communication_task+0xf4>)
     1ce:	4798      	blx	r3
  This function disables IRQ interrupts by setting the I-bit in the CPSR.
  Can only be executed in Privileged modes.
 */
__attribute__( ( always_inline ) ) __STATIC_INLINE void __disable_irq(void)
{
  __ASM volatile ("cpsid i" : : : "memory");
     1d0:	b672      	cpsid	i
     1d2:	f3bf 8f5f 	dmb	sy
 * Disabled global interrupts in the device, preventing any enabled interrupt
 * handlers from executing.
 */
static inline void system_interrupt_disable_global(void)
{
	cpu_irq_disable();
     1d6:	2300      	movs	r3, #0
     1d8:	7023      	strb	r3, [r4, #0]
     1da:	e7aa      	b.n	132 <irda_communication_task+0x16>
     1dc:	2000168c 	.word	0x2000168c
     1e0:	20000464 	.word	0x20000464
     1e4:	20000480 	.word	0x20000480
     1e8:	200016f8 	.word	0x200016f8
     1ec:	00003ae1 	.word	0x00003ae1
     1f0:	00004461 	.word	0x00004461
     1f4:	200016c4 	.word	0x200016c4
     1f8:	00000e51 	.word	0x00000e51
     1fc:	20001684 	.word	0x20001684
     200:	000056e8 	.word	0x000056e8
     204:	00002961 	.word	0x00002961
     208:	00000e31 	.word	0x00000e31
     20c:	20000018 	.word	0x20000018
     210:	00003e8d 	.word	0x00003e8d

00000214 <timer_irda_ping_callback>:
}


// vTracePrintF(event_channel, "IrDA Reset!");
void timer_irda_ping_callback(TimerHandle_t pxTimer) 
{
     214:	b508      	push	{r3, lr}
     216:	b672      	cpsid	i
     218:	f3bf 8f5f 	dmb	sy
     21c:	2200      	movs	r2, #0
     21e:	4b16      	ldr	r3, [pc, #88]	; (278 <timer_irda_ping_callback+0x64>)
     220:	701a      	strb	r2, [r3, #0]
	system_interrupt_disable_global();
	
	configASSERT( pxTimer );
     222:	2800      	cmp	r0, #0
     224:	d101      	bne.n	22a <timer_irda_ping_callback+0x16>
     226:	b672      	cpsid	i
     228:	e7fe      	b.n	228 <timer_irda_ping_callback+0x14>
	
	switch ( irda_comm_state ) {
     22a:	4b14      	ldr	r3, [pc, #80]	; (27c <timer_irda_ping_callback+0x68>)
     22c:	781b      	ldrb	r3, [r3, #0]
     22e:	2b01      	cmp	r3, #1
     230:	d004      	beq.n	23c <timer_irda_ping_callback+0x28>
     232:	2b03      	cmp	r3, #3
     234:	d119      	bne.n	26a <timer_irda_ping_callback+0x56>
			// r010716-1608: IRDA_SLAT_FIRST_RESPONSE T.O. code
		case IRDA_SLAT_FIRST_RESPONSE:
			irda_comm_state = IRDA_SLAT_PING;	// Go back to the Ping Mode
     236:	2201      	movs	r2, #1
     238:	4b10      	ldr	r3, [pc, #64]	; (27c <timer_irda_ping_callback+0x68>)
     23a:	701a      	strb	r2, [r3, #0]
		case IRDA_SLAT_PING:
			irda_timed_out = pdTRUE;
     23c:	2201      	movs	r2, #1
     23e:	4b10      	ldr	r3, [pc, #64]	; (280 <timer_irda_ping_callback+0x6c>)
     240:	601a      	str	r2, [r3, #0]
			
			vTracePrintF(event_channel, "Ping TO!");
     242:	4b10      	ldr	r3, [pc, #64]	; (284 <timer_irda_ping_callback+0x70>)
     244:	8818      	ldrh	r0, [r3, #0]
     246:	4910      	ldr	r1, [pc, #64]	; (288 <timer_irda_ping_callback+0x74>)
     248:	4b10      	ldr	r3, [pc, #64]	; (28c <timer_irda_ping_callback+0x78>)
     24a:	4798      	blx	r3

	/* Set the pin to high or low atomically based on the requested level */
	if (level) {
		port_base->OUTSET.reg = pin_mask;
	} else {
		port_base->OUTCLR.reg = pin_mask;
     24c:	4b10      	ldr	r3, [pc, #64]	; (290 <timer_irda_ping_callback+0x7c>)
     24e:	2280      	movs	r2, #128	; 0x80
     250:	0492      	lsls	r2, r2, #18
     252:	615a      	str	r2, [r3, #20]
     254:	2280      	movs	r2, #128	; 0x80
     256:	0512      	lsls	r2, r2, #20
     258:	615a      	str	r2, [r3, #20]
			port_pin_set_output_level(LED_ERROR, pdFALSE);
			
			port_pin_set_output_level(LED_BUSY, pdFALSE);
			// There was no significant response to the ping,
			// Reset accordingly
			usart_abort_job( &irda_master, USART_TRANSCEIVER_RX );
     25a:	480e      	ldr	r0, [pc, #56]	; (294 <timer_irda_ping_callback+0x80>)
     25c:	2100      	movs	r1, #0
     25e:	4b0e      	ldr	r3, [pc, #56]	; (298 <timer_irda_ping_callback+0x84>)
     260:	4798      	blx	r3
			
			// The IrDA task is now to reset and ping again
			vTaskResume( irda_task_handler );
     262:	4b0e      	ldr	r3, [pc, #56]	; (29c <timer_irda_ping_callback+0x88>)
     264:	6818      	ldr	r0, [r3, #0]
     266:	4b0e      	ldr	r3, [pc, #56]	; (2a0 <timer_irda_ping_callback+0x8c>)
     268:	4798      	blx	r3
     26a:	b672      	cpsid	i
     26c:	f3bf 8f5f 	dmb	sy
     270:	2200      	movs	r2, #0
     272:	4b01      	ldr	r3, [pc, #4]	; (278 <timer_irda_ping_callback+0x64>)
     274:	701a      	strb	r2, [r3, #0]
		break;
	}	
	
	system_interrupt_disable_global();
}
     276:	bd08      	pop	{r3, pc}
     278:	20000018 	.word	0x20000018
     27c:	2000168c 	.word	0x2000168c
     280:	20000480 	.word	0x20000480
     284:	20001684 	.word	0x20001684
     288:	000056f4 	.word	0x000056f4
     28c:	00002961 	.word	0x00002961
     290:	41004400 	.word	0x41004400
     294:	200016c4 	.word	0x200016c4
     298:	00000e71 	.word	0x00000e71
     29c:	200016fc 	.word	0x200016fc
     2a0:	00003919 	.word	0x00003919

000002a4 <main>:
traceLabel event_channel;

//struct tc_module tc_instance;

int main(void)
{
     2a4:	b5f0      	push	{r4, r5, r6, r7, lr}
     2a6:	b087      	sub	sp, #28
    /* Initialize the SAM system */
	system_init();
     2a8:	4b24      	ldr	r3, [pc, #144]	; (33c <main+0x98>)
     2aa:	4798      	blx	r3
	/* Sanity check arguments */
	Assert(config);

	/* Default configuration values */
	config->direction  = PORT_PIN_DIR_INPUT;
	config->input_pull = PORT_PIN_PULL_UP;
     2ac:	ac05      	add	r4, sp, #20
     2ae:	2601      	movs	r6, #1
     2b0:	7066      	strb	r6, [r4, #1]
	config->powersave  = false;
     2b2:	2500      	movs	r5, #0
     2b4:	70a5      	strb	r5, [r4, #2]
	//////////////////////////////////////////////////////////////////////////
	// Set the LED outputs for this board.
	struct port_config led_out;
	port_get_config_defaults(&led_out);
	
	led_out.direction = PORT_PIN_DIR_OUTPUT;
     2b6:	7026      	strb	r6, [r4, #0]
	port_pin_set_config(LED_BUSY, &led_out);
     2b8:	201b      	movs	r0, #27
     2ba:	1c21      	adds	r1, r4, #0
     2bc:	4f20      	ldr	r7, [pc, #128]	; (340 <main+0x9c>)
     2be:	47b8      	blx	r7
	port_pin_set_config(LED_ERROR, &led_out);
     2c0:	2019      	movs	r0, #25
     2c2:	1c21      	adds	r1, r4, #0
     2c4:	47b8      	blx	r7
	//////////////////////////////////////////////////////////////////////////
	
	//////////////////////////////////////////////////////////////////////////
	// Start the IrDA communication port
	bastian_IrDA_configuration();
     2c6:	4b1f      	ldr	r3, [pc, #124]	; (344 <main+0xa0>)
     2c8:	4798      	blx	r3
	
	// Start the trace logger
	vTraceInitTraceData();
     2ca:	4b1f      	ldr	r3, [pc, #124]	; (348 <main+0xa4>)
     2cc:	4798      	blx	r3
	
	
	
	/* Initialization code - create the channel label for a VTracePrintF*/
	event_channel = xTraceOpenLabel("Debug");
     2ce:	481f      	ldr	r0, [pc, #124]	; (34c <main+0xa8>)
     2d0:	4b1f      	ldr	r3, [pc, #124]	; (350 <main+0xac>)
     2d2:	4798      	blx	r3
     2d4:	4b1f      	ldr	r3, [pc, #124]	; (354 <main+0xb0>)
     2d6:	8018      	strh	r0, [r3, #0]

	
	
	// Create the task
	xTaskCreate(irda_communication_task,
     2d8:	2302      	movs	r3, #2
     2da:	9300      	str	r3, [sp, #0]
     2dc:	4b1e      	ldr	r3, [pc, #120]	; (358 <main+0xb4>)
     2de:	9301      	str	r3, [sp, #4]
     2e0:	9502      	str	r5, [sp, #8]
     2e2:	9503      	str	r5, [sp, #12]
     2e4:	481d      	ldr	r0, [pc, #116]	; (35c <main+0xb8>)
     2e6:	491e      	ldr	r1, [pc, #120]	; (360 <main+0xbc>)
     2e8:	22d2      	movs	r2, #210	; 0xd2
     2ea:	0052      	lsls	r2, r2, #1
     2ec:	2300      	movs	r3, #0
     2ee:	4c1d      	ldr	r4, [pc, #116]	; (364 <main+0xc0>)
     2f0:	47a0      	blx	r4
 *
 * Enables global interrupts in the device to fire any enabled interrupt handlers.
 */
static inline void system_interrupt_enable_global(void)
{
	cpu_irq_enable();
     2f2:	4b1d      	ldr	r3, [pc, #116]	; (368 <main+0xc4>)
     2f4:	701e      	strb	r6, [r3, #0]
     2f6:	f3bf 8f5f 	dmb	sy
  This function enables IRQ interrupts by clearing the I-bit in the CPSR.
  Can only be executed in Privileged modes.
 */
__attribute__( ( always_inline ) ) __STATIC_INLINE void __enable_irq(void)
{
  __ASM volatile ("cpsie i" : : : "memory");
     2fa:	b662      	cpsie	i
	
	// Enable global interrupts
	system_interrupt_enable_global();
	
	// Create the necessary timer
	timer_IrDA_Ping = xTimerCreate("Ping", 2, pdFALSE, 0, timer_irda_ping_callback);
     2fc:	4b1b      	ldr	r3, [pc, #108]	; (36c <main+0xc8>)
     2fe:	9300      	str	r3, [sp, #0]
     300:	481b      	ldr	r0, [pc, #108]	; (370 <main+0xcc>)
     302:	2102      	movs	r1, #2
     304:	2200      	movs	r2, #0
     306:	2300      	movs	r3, #0
     308:	4e1a      	ldr	r6, [pc, #104]	; (374 <main+0xd0>)
     30a:	47b0      	blx	r6
     30c:	4c1a      	ldr	r4, [pc, #104]	; (378 <main+0xd4>)
     30e:	6020      	str	r0, [r4, #0]
	timer_IrDA_Sync = xTimerCreate("Sync", 1, pdFALSE, 1, timer_irda_sync_callback );
     310:	4b1a      	ldr	r3, [pc, #104]	; (37c <main+0xd8>)
     312:	9300      	str	r3, [sp, #0]
     314:	481a      	ldr	r0, [pc, #104]	; (380 <main+0xdc>)
     316:	2101      	movs	r1, #1
     318:	2200      	movs	r2, #0
     31a:	2301      	movs	r3, #1
     31c:	47b0      	blx	r6
     31e:	4b19      	ldr	r3, [pc, #100]	; (384 <main+0xe0>)
     320:	6018      	str	r0, [r3, #0]
	xTimerStart(timer_IrDA_Ping, 0);	// Start timer that keeps track of Linking
     322:	6824      	ldr	r4, [r4, #0]
     324:	4b18      	ldr	r3, [pc, #96]	; (388 <main+0xe4>)
     326:	4798      	blx	r3
     328:	1c02      	adds	r2, r0, #0
     32a:	9500      	str	r5, [sp, #0]
     32c:	1c20      	adds	r0, r4, #0
     32e:	2101      	movs	r1, #1
     330:	2300      	movs	r3, #0
     332:	4c16      	ldr	r4, [pc, #88]	; (38c <main+0xe8>)
     334:	47a0      	blx	r4
	//xTimerStart(timer_IrDA_Sync, 0);	// Start ping timer
	
	// ..and let FreeRTOS run tasks!
	vTaskStartScheduler();
     336:	4b16      	ldr	r3, [pc, #88]	; (390 <main+0xec>)
     338:	4798      	blx	r3
     33a:	e7fe      	b.n	33a <main+0x96>
     33c:	00004fd1 	.word	0x00004fd1
     340:	00005065 	.word	0x00005065
     344:	00000905 	.word	0x00000905
     348:	000024c9 	.word	0x000024c9
     34c:	00005700 	.word	0x00005700
     350:	00002585 	.word	0x00002585
     354:	20001684 	.word	0x20001684
     358:	200016fc 	.word	0x200016fc
     35c:	0000011d 	.word	0x0000011d
     360:	00005708 	.word	0x00005708
     364:	000036cd 	.word	0x000036cd
     368:	20000018 	.word	0x20000018
     36c:	00000215 	.word	0x00000215
     370:	00005710 	.word	0x00005710
     374:	000043d1 	.word	0x000043d1
     378:	200016f8 	.word	0x200016f8
     37c:	00000111 	.word	0x00000111
     380:	00005718 	.word	0x00005718
     384:	20001688 	.word	0x20001688
     388:	00003ae1 	.word	0x00003ae1
     38c:	00004461 	.word	0x00004461
     390:	00003a71 	.word	0x00003a71

00000394 <_sercom_get_sync_baud_val>:
 */
enum status_code _sercom_get_sync_baud_val(
		const uint32_t baudrate,
		const uint32_t external_clock,
		uint16_t *const baudvalue)
{
     394:	b510      	push	{r4, lr}
     396:	1c03      	adds	r3, r0, #0
	uint16_t baud_calculated = 0;
	uint32_t clock_value = external_clock;


	/* Check if baudrate is outside of valid range */
	if (baudrate > (external_clock / 2)) {
     398:	0849      	lsrs	r1, r1, #1
		/* Return with error code */
		return STATUS_ERR_BAUDRATE_UNAVAILABLE;
     39a:	2040      	movs	r0, #64	; 0x40
	uint16_t baud_calculated = 0;
	uint32_t clock_value = external_clock;


	/* Check if baudrate is outside of valid range */
	if (baudrate > (external_clock / 2)) {
     39c:	4299      	cmp	r1, r3
     39e:	d30c      	bcc.n	3ba <_sercom_get_sync_baud_val+0x26>
     3a0:	2400      	movs	r4, #0
	}

	/* Calculate BAUD value from clock frequency and baudrate */
	clock_value = external_clock / 2;
	while (clock_value >= baudrate) {
		clock_value = clock_value - baudrate;
     3a2:	1ac9      	subs	r1, r1, r3
		baud_calculated++;
     3a4:	1c60      	adds	r0, r4, #1
     3a6:	b280      	uxth	r0, r0
		return STATUS_ERR_BAUDRATE_UNAVAILABLE;
	}

	/* Calculate BAUD value from clock frequency and baudrate */
	clock_value = external_clock / 2;
	while (clock_value >= baudrate) {
     3a8:	428b      	cmp	r3, r1
     3aa:	d801      	bhi.n	3b0 <_sercom_get_sync_baud_val+0x1c>
		clock_value = clock_value - baudrate;
		baud_calculated++;
     3ac:	1c04      	adds	r4, r0, #0
     3ae:	e7f8      	b.n	3a2 <_sercom_get_sync_baud_val+0xe>

	/* Check if BAUD value is more than 255, which is maximum
	 * for synchronous mode */
	if (baud_calculated > 0xFF) {
		/* Return with an error code */
		return STATUS_ERR_BAUDRATE_UNAVAILABLE;
     3b0:	2040      	movs	r0, #64	; 0x40
	}
	baud_calculated = baud_calculated - 1;

	/* Check if BAUD value is more than 255, which is maximum
	 * for synchronous mode */
	if (baud_calculated > 0xFF) {
     3b2:	2cff      	cmp	r4, #255	; 0xff
     3b4:	d801      	bhi.n	3ba <_sercom_get_sync_baud_val+0x26>
		/* Return with an error code */
		return STATUS_ERR_BAUDRATE_UNAVAILABLE;
	} else {
		*baudvalue = baud_calculated;
     3b6:	8014      	strh	r4, [r2, #0]
		return STATUS_OK;
     3b8:	2000      	movs	r0, #0
	}
}
     3ba:	bd10      	pop	{r4, pc}
     3bc:	0000      	movs	r0, r0
	...

000003c0 <_sercom_get_async_baud_val>:
		const uint32_t baudrate,
		const uint32_t peripheral_clock,
		uint16_t *const baudval,
		enum sercom_asynchronous_operation_mode mode,
		enum sercom_asynchronous_sample_num sample_num)
{
     3c0:	b5f0      	push	{r4, r5, r6, r7, lr}
     3c2:	465f      	mov	r7, fp
     3c4:	4656      	mov	r6, sl
     3c6:	464d      	mov	r5, r9
     3c8:	4644      	mov	r4, r8
     3ca:	b4f0      	push	{r4, r5, r6, r7}
     3cc:	b087      	sub	sp, #28
     3ce:	1c06      	adds	r6, r0, #0
     3d0:	1c0d      	adds	r5, r1, #0
     3d2:	9204      	str	r2, [sp, #16]
     3d4:	aa10      	add	r2, sp, #64	; 0x40
     3d6:	7810      	ldrb	r0, [r2, #0]
	uint8_t baud_fp;
	uint32_t baud_int = 0;
	uint64_t temp1, temp2;

	/* Check if the baudrate is outside of valid range */
	if ((baudrate * sample_num) > peripheral_clock) {
     3d8:	1c32      	adds	r2, r6, #0
     3da:	4342      	muls	r2, r0
		/* Return with error code */
		return STATUS_ERR_BAUDRATE_UNAVAILABLE;
     3dc:	2440      	movs	r4, #64	; 0x40
	uint8_t baud_fp;
	uint32_t baud_int = 0;
	uint64_t temp1, temp2;

	/* Check if the baudrate is outside of valid range */
	if ((baudrate * sample_num) > peripheral_clock) {
     3de:	428a      	cmp	r2, r1
     3e0:	d900      	bls.n	3e4 <_sercom_get_async_baud_val+0x24>
     3e2:	e0b3      	b.n	54c <_sercom_get_async_baud_val+0x18c>
		/* Return with error code */
		return STATUS_ERR_BAUDRATE_UNAVAILABLE;
	}

	if(mode == SERCOM_ASYNC_OPERATION_MODE_ARITHMETIC) {
     3e4:	2b00      	cmp	r3, #0
     3e6:	d14b      	bne.n	480 <_sercom_get_async_baud_val+0xc0>
		/* Calculate the BAUD value */
		temp1 = ((sample_num * (uint64_t)baudrate) << SHIFT);
     3e8:	2100      	movs	r1, #0
     3ea:	1c32      	adds	r2, r6, #0
     3ec:	4c5e      	ldr	r4, [pc, #376]	; (568 <_sercom_get_async_baud_val+0x1a8>)
     3ee:	47a0      	blx	r4
     3f0:	4683      	mov	fp, r0
		ratio = long_division(temp1, peripheral_clock);
     3f2:	1c2e      	adds	r6, r5, #0
     3f4:	2700      	movs	r7, #0
 * http://en.wikipedia.org/wiki/Division_algorithm#Long_division
 */
static uint64_t long_division(uint64_t n, uint64_t d)
{
	int32_t i;
	uint64_t q = 0, r = 0, bit_shift;
     3f6:	2000      	movs	r0, #0
     3f8:	2100      	movs	r1, #0
     3fa:	2200      	movs	r2, #0
     3fc:	2300      	movs	r3, #0
	for (i = 63; i >= 0; i--) {
     3fe:	243f      	movs	r4, #63	; 0x3f
     400:	46a4      	mov	ip, r4
		bit_shift = (uint64_t)1 << i;
     402:	2501      	movs	r5, #1
     404:	46a8      	mov	r8, r5
     406:	9002      	str	r0, [sp, #8]
     408:	9103      	str	r1, [sp, #12]
     40a:	4661      	mov	r1, ip
     40c:	3920      	subs	r1, #32
     40e:	d403      	bmi.n	418 <_sercom_get_async_baud_val+0x58>
     410:	4640      	mov	r0, r8
     412:	4088      	lsls	r0, r1
     414:	4681      	mov	r9, r0
     416:	e005      	b.n	424 <_sercom_get_async_baud_val+0x64>
     418:	2120      	movs	r1, #32
     41a:	4665      	mov	r5, ip
     41c:	1b4c      	subs	r4, r1, r5
     41e:	4640      	mov	r0, r8
     420:	40e0      	lsrs	r0, r4
     422:	4681      	mov	r9, r0
     424:	4641      	mov	r1, r8
     426:	4664      	mov	r4, ip
     428:	40a1      	lsls	r1, r4
     42a:	468a      	mov	sl, r1

		r = r << 1;
     42c:	1c10      	adds	r0, r2, #0
     42e:	1c19      	adds	r1, r3, #0
     430:	1880      	adds	r0, r0, r2
     432:	4159      	adcs	r1, r3
     434:	1c02      	adds	r2, r0, #0
     436:	1c0b      	adds	r3, r1, #0

		if (n & bit_shift) {
     438:	465d      	mov	r5, fp
     43a:	464c      	mov	r4, r9
     43c:	4225      	tst	r5, r4
     43e:	d002      	beq.n	446 <_sercom_get_async_baud_val+0x86>
			r |= 0x01;
     440:	4642      	mov	r2, r8
     442:	4302      	orrs	r2, r0
     444:	1c0b      	adds	r3, r1, #0
		}

		if (r >= d) {
     446:	429f      	cmp	r7, r3
     448:	d80c      	bhi.n	464 <_sercom_get_async_baud_val+0xa4>
     44a:	d101      	bne.n	450 <_sercom_get_async_baud_val+0x90>
     44c:	4296      	cmp	r6, r2
     44e:	d809      	bhi.n	464 <_sercom_get_async_baud_val+0xa4>
			r = r - d;
     450:	1b92      	subs	r2, r2, r6
     452:	41bb      	sbcs	r3, r7
			q |= bit_shift;
     454:	4650      	mov	r0, sl
     456:	9d02      	ldr	r5, [sp, #8]
     458:	4328      	orrs	r0, r5
     45a:	4649      	mov	r1, r9
     45c:	9c03      	ldr	r4, [sp, #12]
     45e:	4321      	orrs	r1, r4
     460:	9002      	str	r0, [sp, #8]
     462:	9103      	str	r1, [sp, #12]
 */
static uint64_t long_division(uint64_t n, uint64_t d)
{
	int32_t i;
	uint64_t q = 0, r = 0, bit_shift;
	for (i = 63; i >= 0; i--) {
     464:	4665      	mov	r5, ip
     466:	3d01      	subs	r5, #1
     468:	46ac      	mov	ip, r5
     46a:	d2ce      	bcs.n	40a <_sercom_get_async_baud_val+0x4a>
     46c:	9802      	ldr	r0, [sp, #8]
     46e:	9903      	ldr	r1, [sp, #12]

	if(mode == SERCOM_ASYNC_OPERATION_MODE_ARITHMETIC) {
		/* Calculate the BAUD value */
		temp1 = ((sample_num * (uint64_t)baudrate) << SHIFT);
		ratio = long_division(temp1, peripheral_clock);
		scale = ((uint64_t)1 << SHIFT) - ratio;
     470:	4b3c      	ldr	r3, [pc, #240]	; (564 <_sercom_get_async_baud_val+0x1a4>)
     472:	4a3b      	ldr	r2, [pc, #236]	; (560 <_sercom_get_async_baud_val+0x1a0>)
     474:	1a12      	subs	r2, r2, r0
     476:	418b      	sbcs	r3, r1
		baud_calculated = (65536 * scale) >> SHIFT;
     478:	0c12      	lsrs	r2, r2, #16
     47a:	041b      	lsls	r3, r3, #16
     47c:	431a      	orrs	r2, r3
     47e:	e062      	b.n	546 <_sercom_get_async_baud_val+0x186>
		enum sercom_asynchronous_sample_num sample_num)
{
	/* Temporary variables  */
	uint64_t ratio = 0;
	uint64_t scale = 0;
	uint64_t baud_calculated = 0;
     480:	2200      	movs	r2, #0
		/* Calculate the BAUD value */
		temp1 = ((sample_num * (uint64_t)baudrate) << SHIFT);
		ratio = long_division(temp1, peripheral_clock);
		scale = ((uint64_t)1 << SHIFT) - ratio;
		baud_calculated = (65536 * scale) >> SHIFT;
	} else if(mode == SERCOM_ASYNC_OPERATION_MODE_FRACTIONAL) {
     482:	2b01      	cmp	r3, #1
     484:	d15f      	bne.n	546 <_sercom_get_async_baud_val+0x186>
		for(baud_fp = 0; baud_fp < BAUD_FP_MAX; baud_fp++) {
			temp1 = BAUD_FP_MAX * (uint64_t)peripheral_clock;
     486:	0f4f      	lsrs	r7, r1, #29
     488:	46b9      	mov	r9, r7
     48a:	00cd      	lsls	r5, r1, #3
     48c:	46ab      	mov	fp, r5
			temp2 = ((uint64_t)baudrate * sample_num);
     48e:	2100      	movs	r1, #0
     490:	1c32      	adds	r2, r6, #0
     492:	2300      	movs	r3, #0
     494:	4c34      	ldr	r4, [pc, #208]	; (568 <_sercom_get_async_baud_val+0x1a8>)
     496:	47a0      	blx	r4
     498:	1c06      	adds	r6, r0, #0
     49a:	1c0f      	adds	r7, r1, #0
     49c:	2300      	movs	r3, #0
static uint64_t long_division(uint64_t n, uint64_t d)
{
	int32_t i;
	uint64_t q = 0, r = 0, bit_shift;
	for (i = 63; i >= 0; i--) {
		bit_shift = (uint64_t)1 << i;
     49e:	2501      	movs	r5, #1
			temp1 = BAUD_FP_MAX * (uint64_t)peripheral_clock;
			temp2 = ((uint64_t)baudrate * sample_num);
			baud_int = long_division(temp1, temp2);
			baud_int -= baud_fp;
			baud_int = baud_int / BAUD_FP_MAX;
			if(baud_int < BAUD_INT_MAX) {
     4a0:	9602      	str	r6, [sp, #8]
     4a2:	9703      	str	r7, [sp, #12]
     4a4:	469a      	mov	sl, r3
     4a6:	4650      	mov	r0, sl
     4a8:	b2c0      	uxtb	r0, r0
     4aa:	9005      	str	r0, [sp, #20]
 * http://en.wikipedia.org/wiki/Division_algorithm#Long_division
 */
static uint64_t long_division(uint64_t n, uint64_t d)
{
	int32_t i;
	uint64_t q = 0, r = 0, bit_shift;
     4ac:	2100      	movs	r1, #0
     4ae:	4688      	mov	r8, r1
     4b0:	2200      	movs	r2, #0
     4b2:	2300      	movs	r3, #0
	for (i = 63; i >= 0; i--) {
     4b4:	243f      	movs	r4, #63	; 0x3f
		bit_shift = (uint64_t)1 << i;
     4b6:	1c27      	adds	r7, r4, #0
     4b8:	3f20      	subs	r7, #32
     4ba:	d403      	bmi.n	4c4 <_sercom_get_async_baud_val+0x104>
     4bc:	1c2e      	adds	r6, r5, #0
     4be:	40be      	lsls	r6, r7
     4c0:	9601      	str	r6, [sp, #4]
     4c2:	e004      	b.n	4ce <_sercom_get_async_baud_val+0x10e>
     4c4:	2020      	movs	r0, #32
     4c6:	1b07      	subs	r7, r0, r4
     4c8:	1c29      	adds	r1, r5, #0
     4ca:	40f9      	lsrs	r1, r7
     4cc:	9101      	str	r1, [sp, #4]
     4ce:	1c2e      	adds	r6, r5, #0
     4d0:	40a6      	lsls	r6, r4
     4d2:	9600      	str	r6, [sp, #0]

		r = r << 1;
     4d4:	1c10      	adds	r0, r2, #0
     4d6:	1c19      	adds	r1, r3, #0
     4d8:	1880      	adds	r0, r0, r2
     4da:	4159      	adcs	r1, r3
     4dc:	1c02      	adds	r2, r0, #0
     4de:	1c0b      	adds	r3, r1, #0

		if (n & bit_shift) {
     4e0:	465f      	mov	r7, fp
     4e2:	4037      	ands	r7, r6
     4e4:	46bc      	mov	ip, r7
     4e6:	9e01      	ldr	r6, [sp, #4]
     4e8:	464f      	mov	r7, r9
     4ea:	403e      	ands	r6, r7
     4ec:	4667      	mov	r7, ip
     4ee:	433e      	orrs	r6, r7
     4f0:	d002      	beq.n	4f8 <_sercom_get_async_baud_val+0x138>
			r |= 0x01;
     4f2:	1c2a      	adds	r2, r5, #0
     4f4:	4302      	orrs	r2, r0
     4f6:	1c0b      	adds	r3, r1, #0
		}

		if (r >= d) {
     4f8:	9803      	ldr	r0, [sp, #12]
     4fa:	4298      	cmp	r0, r3
     4fc:	d80b      	bhi.n	516 <_sercom_get_async_baud_val+0x156>
     4fe:	d102      	bne.n	506 <_sercom_get_async_baud_val+0x146>
     500:	9902      	ldr	r1, [sp, #8]
     502:	4291      	cmp	r1, r2
     504:	d807      	bhi.n	516 <_sercom_get_async_baud_val+0x156>
			r = r - d;
     506:	9e02      	ldr	r6, [sp, #8]
     508:	9f03      	ldr	r7, [sp, #12]
     50a:	1b92      	subs	r2, r2, r6
     50c:	41bb      	sbcs	r3, r7
			q |= bit_shift;
     50e:	4647      	mov	r7, r8
     510:	9800      	ldr	r0, [sp, #0]
     512:	4307      	orrs	r7, r0
     514:	46b8      	mov	r8, r7
 */
static uint64_t long_division(uint64_t n, uint64_t d)
{
	int32_t i;
	uint64_t q = 0, r = 0, bit_shift;
	for (i = 63; i >= 0; i--) {
     516:	3c01      	subs	r4, #1
     518:	d2cd      	bcs.n	4b6 <_sercom_get_async_baud_val+0xf6>
	} else if(mode == SERCOM_ASYNC_OPERATION_MODE_FRACTIONAL) {
		for(baud_fp = 0; baud_fp < BAUD_FP_MAX; baud_fp++) {
			temp1 = BAUD_FP_MAX * (uint64_t)peripheral_clock;
			temp2 = ((uint64_t)baudrate * sample_num);
			baud_int = long_division(temp1, temp2);
			baud_int -= baud_fp;
     51a:	4641      	mov	r1, r8
     51c:	4652      	mov	r2, sl
     51e:	1a8b      	subs	r3, r1, r2
			baud_int = baud_int / BAUD_FP_MAX;
     520:	08db      	lsrs	r3, r3, #3
			if(baud_int < BAUD_INT_MAX) {
     522:	4c12      	ldr	r4, [pc, #72]	; (56c <_sercom_get_async_baud_val+0x1ac>)
     524:	42a3      	cmp	r3, r4
     526:	d908      	bls.n	53a <_sercom_get_async_baud_val+0x17a>
     528:	9a05      	ldr	r2, [sp, #20]
     52a:	3201      	adds	r2, #1
     52c:	b2d2      	uxtb	r2, r2
     52e:	9205      	str	r2, [sp, #20]
     530:	2601      	movs	r6, #1
     532:	44b2      	add	sl, r6
		temp1 = ((sample_num * (uint64_t)baudrate) << SHIFT);
		ratio = long_division(temp1, peripheral_clock);
		scale = ((uint64_t)1 << SHIFT) - ratio;
		baud_calculated = (65536 * scale) >> SHIFT;
	} else if(mode == SERCOM_ASYNC_OPERATION_MODE_FRACTIONAL) {
		for(baud_fp = 0; baud_fp < BAUD_FP_MAX; baud_fp++) {
     534:	4657      	mov	r7, sl
     536:	2f08      	cmp	r7, #8
     538:	d1b5      	bne.n	4a6 <_sercom_get_async_baud_val+0xe6>
			if(baud_int < BAUD_INT_MAX) {
				break;
			}
		}
		if(baud_fp == BAUD_FP_MAX) {
			return STATUS_ERR_BAUDRATE_UNAVAILABLE;
     53a:	2440      	movs	r4, #64	; 0x40
			baud_int = baud_int / BAUD_FP_MAX;
			if(baud_int < BAUD_INT_MAX) {
				break;
			}
		}
		if(baud_fp == BAUD_FP_MAX) {
     53c:	9805      	ldr	r0, [sp, #20]
     53e:	2808      	cmp	r0, #8
     540:	d004      	beq.n	54c <_sercom_get_async_baud_val+0x18c>
			return STATUS_ERR_BAUDRATE_UNAVAILABLE;
		}
		baud_calculated = baud_int | (baud_fp << 13);
     542:	0342      	lsls	r2, r0, #13
     544:	431a      	orrs	r2, r3
	}

	*baudval = baud_calculated;
     546:	9c04      	ldr	r4, [sp, #16]
     548:	8022      	strh	r2, [r4, #0]
	return STATUS_OK;
     54a:	2400      	movs	r4, #0
}
     54c:	1c20      	adds	r0, r4, #0
     54e:	b007      	add	sp, #28
     550:	bc3c      	pop	{r2, r3, r4, r5}
     552:	4690      	mov	r8, r2
     554:	4699      	mov	r9, r3
     556:	46a2      	mov	sl, r4
     558:	46ab      	mov	fp, r5
     55a:	bdf0      	pop	{r4, r5, r6, r7, pc}
     55c:	46c0      	nop			; (mov r8, r8)
     55e:	46c0      	nop			; (mov r8, r8)
     560:	00000000 	.word	0x00000000
     564:	00000001 	.word	0x00000001
     568:	000051e1 	.word	0x000051e1
     56c:	00001fff 	.word	0x00001fff

00000570 <sercom_set_gclk_generator>:
 *                                         forced.
 */
enum status_code sercom_set_gclk_generator(
		const enum gclk_generator generator_source,
		const bool force_change)
{
     570:	b510      	push	{r4, lr}
     572:	b082      	sub	sp, #8
     574:	1c04      	adds	r4, r0, #0
	/* Check if valid option */
	if (!_sercom_config.generator_is_set || force_change) {
     576:	4b0f      	ldr	r3, [pc, #60]	; (5b4 <sercom_set_gclk_generator+0x44>)
     578:	781b      	ldrb	r3, [r3, #0]
     57a:	2b00      	cmp	r3, #0
     57c:	d001      	beq.n	582 <sercom_set_gclk_generator+0x12>
     57e:	2900      	cmp	r1, #0
     580:	d00d      	beq.n	59e <sercom_set_gclk_generator+0x2e>
		/* Create and fill a GCLK configuration structure for the new config */
		struct system_gclk_chan_config gclk_chan_conf;
		system_gclk_chan_get_config_defaults(&gclk_chan_conf);
		gclk_chan_conf.source_generator = generator_source;
     582:	a901      	add	r1, sp, #4
     584:	700c      	strb	r4, [r1, #0]
		system_gclk_chan_set_config(SERCOM_GCLK_ID, &gclk_chan_conf);
     586:	2013      	movs	r0, #19
     588:	4b0b      	ldr	r3, [pc, #44]	; (5b8 <sercom_set_gclk_generator+0x48>)
     58a:	4798      	blx	r3
		system_gclk_chan_enable(SERCOM_GCLK_ID);
     58c:	2013      	movs	r0, #19
     58e:	4b0b      	ldr	r3, [pc, #44]	; (5bc <sercom_set_gclk_generator+0x4c>)
     590:	4798      	blx	r3

		/* Save config */
		_sercom_config.generator_source = generator_source;
     592:	4b08      	ldr	r3, [pc, #32]	; (5b4 <sercom_set_gclk_generator+0x44>)
     594:	705c      	strb	r4, [r3, #1]
		_sercom_config.generator_is_set = true;
     596:	2201      	movs	r2, #1
     598:	701a      	strb	r2, [r3, #0]

		return STATUS_OK;
     59a:	2000      	movs	r0, #0
     59c:	e007      	b.n	5ae <sercom_set_gclk_generator+0x3e>
	} else if (generator_source == _sercom_config.generator_source) {
     59e:	4b05      	ldr	r3, [pc, #20]	; (5b4 <sercom_set_gclk_generator+0x44>)
     5a0:	785a      	ldrb	r2, [r3, #1]
		/* Return status OK if same config */
		return STATUS_OK;
	}

	/* Return invalid config to already initialized GCLK */
	return STATUS_ERR_ALREADY_INITIALIZED;
     5a2:	201d      	movs	r0, #29
		_sercom_config.generator_is_set = true;

		return STATUS_OK;
	} else if (generator_source == _sercom_config.generator_source) {
		/* Return status OK if same config */
		return STATUS_OK;
     5a4:	1b14      	subs	r4, r2, r4
     5a6:	1e62      	subs	r2, r4, #1
     5a8:	4194      	sbcs	r4, r2
     5aa:	4264      	negs	r4, r4
     5ac:	4020      	ands	r0, r4
	}

	/* Return invalid config to already initialized GCLK */
	return STATUS_ERR_ALREADY_INITIALIZED;
}
     5ae:	b002      	add	sp, #8
     5b0:	bd10      	pop	{r4, pc}
     5b2:	46c0      	nop			; (mov r8, r8)
     5b4:	20000478 	.word	0x20000478
     5b8:	00004f7d 	.word	0x00004f7d
     5bc:	00004ef1 	.word	0x00004ef1

000005c0 <_sercom_get_default_pad>:
 */
uint32_t _sercom_get_default_pad(
		Sercom *const sercom_module,
		const uint8_t pad)
{
	switch ((uintptr_t)sercom_module) {
     5c0:	4b2e      	ldr	r3, [pc, #184]	; (67c <_sercom_get_default_pad+0xbc>)
     5c2:	4298      	cmp	r0, r3
     5c4:	d01c      	beq.n	600 <_sercom_get_default_pad+0x40>
     5c6:	d803      	bhi.n	5d0 <_sercom_get_default_pad+0x10>
     5c8:	4b2d      	ldr	r3, [pc, #180]	; (680 <_sercom_get_default_pad+0xc0>)
     5ca:	4298      	cmp	r0, r3
     5cc:	d007      	beq.n	5de <_sercom_get_default_pad+0x1e>
     5ce:	e04a      	b.n	666 <_sercom_get_default_pad+0xa6>
     5d0:	4b2c      	ldr	r3, [pc, #176]	; (684 <_sercom_get_default_pad+0xc4>)
     5d2:	4298      	cmp	r0, r3
     5d4:	d025      	beq.n	622 <_sercom_get_default_pad+0x62>
     5d6:	4b2c      	ldr	r3, [pc, #176]	; (688 <_sercom_get_default_pad+0xc8>)
     5d8:	4298      	cmp	r0, r3
     5da:	d033      	beq.n	644 <_sercom_get_default_pad+0x84>
     5dc:	e043      	b.n	666 <_sercom_get_default_pad+0xa6>
		/* Auto-generate a lookup table for the default SERCOM pad defaults */
		MREPEAT(SERCOM_INST_NUM, _SERCOM_PAD_DEFAULTS_CASE, pad)
     5de:	2901      	cmp	r1, #1
     5e0:	d043      	beq.n	66a <_sercom_get_default_pad+0xaa>
     5e2:	2900      	cmp	r1, #0
     5e4:	d004      	beq.n	5f0 <_sercom_get_default_pad+0x30>
     5e6:	2902      	cmp	r1, #2
     5e8:	d006      	beq.n	5f8 <_sercom_get_default_pad+0x38>
     5ea:	2903      	cmp	r1, #3
     5ec:	d006      	beq.n	5fc <_sercom_get_default_pad+0x3c>
     5ee:	e001      	b.n	5f4 <_sercom_get_default_pad+0x34>
     5f0:	4826      	ldr	r0, [pc, #152]	; (68c <_sercom_get_default_pad+0xcc>)
     5f2:	e041      	b.n	678 <_sercom_get_default_pad+0xb8>
	}

	Assert(false);
	return 0;
     5f4:	2000      	movs	r0, #0
     5f6:	e03f      	b.n	678 <_sercom_get_default_pad+0xb8>
		Sercom *const sercom_module,
		const uint8_t pad)
{
	switch ((uintptr_t)sercom_module) {
		/* Auto-generate a lookup table for the default SERCOM pad defaults */
		MREPEAT(SERCOM_INST_NUM, _SERCOM_PAD_DEFAULTS_CASE, pad)
     5f8:	4825      	ldr	r0, [pc, #148]	; (690 <_sercom_get_default_pad+0xd0>)
     5fa:	e03d      	b.n	678 <_sercom_get_default_pad+0xb8>
     5fc:	4825      	ldr	r0, [pc, #148]	; (694 <_sercom_get_default_pad+0xd4>)
     5fe:	e03b      	b.n	678 <_sercom_get_default_pad+0xb8>
     600:	2901      	cmp	r1, #1
     602:	d034      	beq.n	66e <_sercom_get_default_pad+0xae>
     604:	2900      	cmp	r1, #0
     606:	d004      	beq.n	612 <_sercom_get_default_pad+0x52>
     608:	2902      	cmp	r1, #2
     60a:	d006      	beq.n	61a <_sercom_get_default_pad+0x5a>
     60c:	2903      	cmp	r1, #3
     60e:	d006      	beq.n	61e <_sercom_get_default_pad+0x5e>
     610:	e001      	b.n	616 <_sercom_get_default_pad+0x56>
     612:	2003      	movs	r0, #3
     614:	e030      	b.n	678 <_sercom_get_default_pad+0xb8>
	}

	Assert(false);
	return 0;
     616:	2000      	movs	r0, #0
     618:	e02e      	b.n	678 <_sercom_get_default_pad+0xb8>
		Sercom *const sercom_module,
		const uint8_t pad)
{
	switch ((uintptr_t)sercom_module) {
		/* Auto-generate a lookup table for the default SERCOM pad defaults */
		MREPEAT(SERCOM_INST_NUM, _SERCOM_PAD_DEFAULTS_CASE, pad)
     61a:	481f      	ldr	r0, [pc, #124]	; (698 <_sercom_get_default_pad+0xd8>)
     61c:	e02c      	b.n	678 <_sercom_get_default_pad+0xb8>
     61e:	481f      	ldr	r0, [pc, #124]	; (69c <_sercom_get_default_pad+0xdc>)
     620:	e02a      	b.n	678 <_sercom_get_default_pad+0xb8>
     622:	2901      	cmp	r1, #1
     624:	d025      	beq.n	672 <_sercom_get_default_pad+0xb2>
     626:	2900      	cmp	r1, #0
     628:	d004      	beq.n	634 <_sercom_get_default_pad+0x74>
     62a:	2902      	cmp	r1, #2
     62c:	d006      	beq.n	63c <_sercom_get_default_pad+0x7c>
     62e:	2903      	cmp	r1, #3
     630:	d006      	beq.n	640 <_sercom_get_default_pad+0x80>
     632:	e001      	b.n	638 <_sercom_get_default_pad+0x78>
     634:	481a      	ldr	r0, [pc, #104]	; (6a0 <_sercom_get_default_pad+0xe0>)
     636:	e01f      	b.n	678 <_sercom_get_default_pad+0xb8>
	}

	Assert(false);
	return 0;
     638:	2000      	movs	r0, #0
     63a:	e01d      	b.n	678 <_sercom_get_default_pad+0xb8>
		Sercom *const sercom_module,
		const uint8_t pad)
{
	switch ((uintptr_t)sercom_module) {
		/* Auto-generate a lookup table for the default SERCOM pad defaults */
		MREPEAT(SERCOM_INST_NUM, _SERCOM_PAD_DEFAULTS_CASE, pad)
     63c:	4819      	ldr	r0, [pc, #100]	; (6a4 <_sercom_get_default_pad+0xe4>)
     63e:	e01b      	b.n	678 <_sercom_get_default_pad+0xb8>
     640:	4819      	ldr	r0, [pc, #100]	; (6a8 <_sercom_get_default_pad+0xe8>)
     642:	e019      	b.n	678 <_sercom_get_default_pad+0xb8>
     644:	2901      	cmp	r1, #1
     646:	d016      	beq.n	676 <_sercom_get_default_pad+0xb6>
     648:	2900      	cmp	r1, #0
     64a:	d004      	beq.n	656 <_sercom_get_default_pad+0x96>
     64c:	2902      	cmp	r1, #2
     64e:	d006      	beq.n	65e <_sercom_get_default_pad+0x9e>
     650:	2903      	cmp	r1, #3
     652:	d006      	beq.n	662 <_sercom_get_default_pad+0xa2>
     654:	e001      	b.n	65a <_sercom_get_default_pad+0x9a>
     656:	4815      	ldr	r0, [pc, #84]	; (6ac <_sercom_get_default_pad+0xec>)
     658:	e00e      	b.n	678 <_sercom_get_default_pad+0xb8>
	}

	Assert(false);
	return 0;
     65a:	2000      	movs	r0, #0
     65c:	e00c      	b.n	678 <_sercom_get_default_pad+0xb8>
		Sercom *const sercom_module,
		const uint8_t pad)
{
	switch ((uintptr_t)sercom_module) {
		/* Auto-generate a lookup table for the default SERCOM pad defaults */
		MREPEAT(SERCOM_INST_NUM, _SERCOM_PAD_DEFAULTS_CASE, pad)
     65e:	4814      	ldr	r0, [pc, #80]	; (6b0 <_sercom_get_default_pad+0xf0>)
     660:	e00a      	b.n	678 <_sercom_get_default_pad+0xb8>
     662:	4814      	ldr	r0, [pc, #80]	; (6b4 <_sercom_get_default_pad+0xf4>)
     664:	e008      	b.n	678 <_sercom_get_default_pad+0xb8>
	}

	Assert(false);
	return 0;
     666:	2000      	movs	r0, #0
     668:	e006      	b.n	678 <_sercom_get_default_pad+0xb8>
		Sercom *const sercom_module,
		const uint8_t pad)
{
	switch ((uintptr_t)sercom_module) {
		/* Auto-generate a lookup table for the default SERCOM pad defaults */
		MREPEAT(SERCOM_INST_NUM, _SERCOM_PAD_DEFAULTS_CASE, pad)
     66a:	4813      	ldr	r0, [pc, #76]	; (6b8 <_sercom_get_default_pad+0xf8>)
     66c:	e004      	b.n	678 <_sercom_get_default_pad+0xb8>
     66e:	4813      	ldr	r0, [pc, #76]	; (6bc <_sercom_get_default_pad+0xfc>)
     670:	e002      	b.n	678 <_sercom_get_default_pad+0xb8>
     672:	4813      	ldr	r0, [pc, #76]	; (6c0 <_sercom_get_default_pad+0x100>)
     674:	e000      	b.n	678 <_sercom_get_default_pad+0xb8>
     676:	4813      	ldr	r0, [pc, #76]	; (6c4 <_sercom_get_default_pad+0x104>)
	}

	Assert(false);
	return 0;
}
     678:	4770      	bx	lr
     67a:	46c0      	nop			; (mov r8, r8)
     67c:	42000c00 	.word	0x42000c00
     680:	42000800 	.word	0x42000800
     684:	42001000 	.word	0x42001000
     688:	42001400 	.word	0x42001400
     68c:	00040003 	.word	0x00040003
     690:	00060003 	.word	0x00060003
     694:	00070003 	.word	0x00070003
     698:	001e0003 	.word	0x001e0003
     69c:	001f0003 	.word	0x001f0003
     6a0:	00080003 	.word	0x00080003
     6a4:	000a0003 	.word	0x000a0003
     6a8:	000b0003 	.word	0x000b0003
     6ac:	00100003 	.word	0x00100003
     6b0:	00120003 	.word	0x00120003
     6b4:	00130003 	.word	0x00130003
     6b8:	00050003 	.word	0x00050003
     6bc:	00010003 	.word	0x00010003
     6c0:	00090003 	.word	0x00090003
     6c4:	00110003 	.word	0x00110003

000006c8 <_sercom_get_sercom_inst_index>:
 *
 * \return Index of given instance.
 */
uint8_t _sercom_get_sercom_inst_index(
		Sercom *const sercom_instance)
{
     6c8:	b570      	push	{r4, r5, r6, lr}
     6ca:	b084      	sub	sp, #16
	/* Save all available SERCOM instances for compare */
	Sercom *sercom_instances[SERCOM_INST_NUM] = SERCOM_INSTS;
     6cc:	4a0e      	ldr	r2, [pc, #56]	; (708 <_sercom_get_sercom_inst_index+0x40>)
     6ce:	4669      	mov	r1, sp
     6d0:	ca70      	ldmia	r2!, {r4, r5, r6}
     6d2:	c170      	stmia	r1!, {r4, r5, r6}
     6d4:	6812      	ldr	r2, [r2, #0]
     6d6:	600a      	str	r2, [r1, #0]

	/* Find index for sercom instance */
	for (uint32_t i = 0; i < SERCOM_INST_NUM; i++) {
		if ((uintptr_t)sercom_instance == (uintptr_t)sercom_instances[i]) {
     6d8:	1c03      	adds	r3, r0, #0
     6da:	9a00      	ldr	r2, [sp, #0]
     6dc:	4282      	cmp	r2, r0
     6de:	d00f      	beq.n	700 <_sercom_get_sercom_inst_index+0x38>
     6e0:	9c01      	ldr	r4, [sp, #4]
     6e2:	4284      	cmp	r4, r0
     6e4:	d008      	beq.n	6f8 <_sercom_get_sercom_inst_index+0x30>
     6e6:	9d02      	ldr	r5, [sp, #8]
     6e8:	4285      	cmp	r5, r0
     6ea:	d007      	beq.n	6fc <_sercom_get_sercom_inst_index+0x34>
		}
	}

	/* Invalid data given */
	Assert(false);
	return 0;
     6ec:	2000      	movs	r0, #0
	/* Save all available SERCOM instances for compare */
	Sercom *sercom_instances[SERCOM_INST_NUM] = SERCOM_INSTS;

	/* Find index for sercom instance */
	for (uint32_t i = 0; i < SERCOM_INST_NUM; i++) {
		if ((uintptr_t)sercom_instance == (uintptr_t)sercom_instances[i]) {
     6ee:	9e03      	ldr	r6, [sp, #12]
     6f0:	429e      	cmp	r6, r3
     6f2:	d107      	bne.n	704 <_sercom_get_sercom_inst_index+0x3c>
{
	/* Save all available SERCOM instances for compare */
	Sercom *sercom_instances[SERCOM_INST_NUM] = SERCOM_INSTS;

	/* Find index for sercom instance */
	for (uint32_t i = 0; i < SERCOM_INST_NUM; i++) {
     6f4:	2003      	movs	r0, #3
     6f6:	e004      	b.n	702 <_sercom_get_sercom_inst_index+0x3a>
     6f8:	2001      	movs	r0, #1
     6fa:	e002      	b.n	702 <_sercom_get_sercom_inst_index+0x3a>
     6fc:	2002      	movs	r0, #2
     6fe:	e000      	b.n	702 <_sercom_get_sercom_inst_index+0x3a>
     700:	2000      	movs	r0, #0
		if ((uintptr_t)sercom_instance == (uintptr_t)sercom_instances[i]) {
			return i;
     702:	b2c0      	uxtb	r0, r0
	}

	/* Invalid data given */
	Assert(false);
	return 0;
}
     704:	b004      	add	sp, #16
     706:	bd70      	pop	{r4, r5, r6, pc}
     708:	00005720 	.word	0x00005720

0000070c <irda_master_callback_transmitted>:
			break;
		}	
	}
}
// IrDA Tx Callback Function
static void irda_master_callback_transmitted(const struct usart_module *const module) {
     70c:	b510      	push	{r4, lr}
     70e:	b082      	sub	sp, #8
	// Update post r010716-1608
		// ** In this update, the machine state is changed so that we can continue receiving data
		// Change::: IRDA_SLAT_PING to IRDA_SLAT_FIRST_RESPONSE
		// ** In this update, we also queue the Rx job for 0xCC
	
	switch ( irda_comm_state ) {
     710:	4b14      	ldr	r3, [pc, #80]	; (764 <irda_master_callback_transmitted+0x58>)
     712:	781b      	ldrb	r3, [r3, #0]
     714:	2b02      	cmp	r3, #2
     716:	d122      	bne.n	75e <irda_master_callback_transmitted+0x52>
		case IRDA_SLAT_FIRST:	// This is the case where the first Response has been sent
			// r010716-1608: Change the machine state accordingly
			irda_comm_state = IRDA_SLAT_FIRST_RESPONSE;	// Go back to the First Response mode
     718:	2203      	movs	r2, #3
     71a:	4b12      	ldr	r3, [pc, #72]	; (764 <irda_master_callback_transmitted+0x58>)
     71c:	701a      	strb	r2, [r3, #0]
			
			
			
				// Make sure to reset the timer
			xTimerResetFromISR ( timer_IrDA_Ping, 0 );
     71e:	4b12      	ldr	r3, [pc, #72]	; (768 <irda_master_callback_transmitted+0x5c>)
     720:	681c      	ldr	r4, [r3, #0]
     722:	4b12      	ldr	r3, [pc, #72]	; (76c <irda_master_callback_transmitted+0x60>)
     724:	4798      	blx	r3
     726:	1c02      	adds	r2, r0, #0
     728:	2300      	movs	r3, #0
     72a:	9300      	str	r3, [sp, #0]
     72c:	1c20      	adds	r0, r4, #0
     72e:	2107      	movs	r1, #7
     730:	4c0f      	ldr	r4, [pc, #60]	; (770 <irda_master_callback_transmitted+0x64>)
     732:	47a0      	blx	r4
	/* Sanity check arguments */
	Assert(module);
	Assert(module->hw);

	/* Get a pointer to the hardware module instance */
	SercomUsart *const usart_hw = &(module->hw->USART);
     734:	4b0f      	ldr	r3, [pc, #60]	; (774 <irda_master_callback_transmitted+0x68>)
     736:	681b      	ldr	r3, [r3, #0]
	Assert(module->hw);

	SercomUsart *const usart_hw = &(module->hw->USART);

#ifdef FEATURE_USART_SYNC_SCHEME_V2
	return (usart_hw->SYNCBUSY.reg);
     738:	69da      	ldr	r2, [r3, #28]
		const struct usart_module *const module)
{
	/* Sanity check */
	Assert(module);

	while (usart_is_syncing(module)) {
     73a:	2a00      	cmp	r2, #0
     73c:	d1fc      	bne.n	738 <irda_master_callback_transmitted+0x2c>
	_usart_wait_for_sync(module);

	switch (transceiver_type) {
		case USART_TRANSCEIVER_RX:
			/* Enable RX */
			usart_hw->CTRLB.reg |= SERCOM_USART_CTRLB_RXEN;
     73e:	6859      	ldr	r1, [r3, #4]
     740:	2280      	movs	r2, #128	; 0x80
     742:	0292      	lsls	r2, r2, #10
     744:	430a      	orrs	r2, r1
     746:	605a      	str	r2, [r3, #4]
			module->receiver_enabled = true;
     748:	2101      	movs	r1, #1
     74a:	4a0a      	ldr	r2, [pc, #40]	; (774 <irda_master_callback_transmitted+0x68>)
     74c:	7191      	strb	r1, [r2, #6]
	Assert(module->hw);

	SercomUsart *const usart_hw = &(module->hw->USART);

#ifdef FEATURE_USART_SYNC_SCHEME_V2
	return (usart_hw->SYNCBUSY.reg);
     74e:	69da      	ldr	r2, [r3, #28]
		const struct usart_module *const module)
{
	/* Sanity check */
	Assert(module);

	while (usart_is_syncing(module)) {
     750:	2a00      	cmp	r2, #0
     752:	d1fc      	bne.n	74e <irda_master_callback_transmitted+0x42>
			
			// r010716-1608: Request the 0xCC data reception right away
			usart_enable_transceiver( &irda_master, USART_TRANSCEIVER_RX );	// Enable Receiving Transceiver
			
			
			usart_read_buffer_job( &irda_master, irda_rx_array, 5 );	// Try to get the 3-Byte ping
     754:	4807      	ldr	r0, [pc, #28]	; (774 <irda_master_callback_transmitted+0x68>)
     756:	4908      	ldr	r1, [pc, #32]	; (778 <irda_master_callback_transmitted+0x6c>)
     758:	2205      	movs	r2, #5
     75a:	4b08      	ldr	r3, [pc, #32]	; (77c <irda_master_callback_transmitted+0x70>)
     75c:	4798      	blx	r3
				// the documentation and examples for your port.
			//	portYIELD_FROM_ISR(xYieldRequired);
			//}
		break;
	}
}
     75e:	b002      	add	sp, #8
     760:	bd10      	pop	{r4, pc}
     762:	46c0      	nop			; (mov r8, r8)
     764:	2000168c 	.word	0x2000168c
     768:	200016f8 	.word	0x200016f8
     76c:	00003b01 	.word	0x00003b01
     770:	00004461 	.word	0x00004461
     774:	200016c4 	.word	0x200016c4
     778:	20000464 	.word	0x20000464
     77c:	00000e51 	.word	0x00000e51

00000780 <irda_master_callback_received>:
BaseType_t lock_allow_main_discovery = pdTRUE;
TickType_t lock_main_discovery_count;
BaseType_t lock_trace = pdFALSE;
TickType_t unlock_count;
BaseType_t irda_timed_out = pdFALSE;
static void irda_master_callback_received(const struct usart_module *const module) {
     780:	b510      	push	{r4, lr}
     782:	b082      	sub	sp, #8
	
	BaseType_t xYieldRequired; 
	
	if ( !irda_timed_out ) {
     784:	4b4a      	ldr	r3, [pc, #296]	; (8b0 <irda_master_callback_received+0x130>)
     786:	681b      	ldr	r3, [r3, #0]
     788:	2b00      	cmp	r3, #0
     78a:	d000      	beq.n	78e <irda_master_callback_received+0xe>
     78c:	e08d      	b.n	8aa <irda_master_callback_received+0x12a>
	/* Sanity check arguments */
	Assert(module);
	Assert(module->hw);

	/* Get a pointer to the hardware module instance */
	SercomUsart *const usart_hw = &(module->hw->USART);
     78e:	4b49      	ldr	r3, [pc, #292]	; (8b4 <irda_master_callback_received+0x134>)
     790:	681a      	ldr	r2, [r3, #0]
	Assert(module->hw);

	SercomUsart *const usart_hw = &(module->hw->USART);

#ifdef FEATURE_USART_SYNC_SCHEME_V2
	return (usart_hw->SYNCBUSY.reg);
     792:	69d3      	ldr	r3, [r2, #28]
		const struct usart_module *const module)
{
	/* Sanity check */
	Assert(module);

	while (usart_is_syncing(module)) {
     794:	2b00      	cmp	r3, #0
     796:	d1fc      	bne.n	792 <irda_master_callback_received+0x12>
	_usart_wait_for_sync(module);

	switch (transceiver_type) {
		case USART_TRANSCEIVER_RX:
			/* Disable RX */
			usart_hw->CTRLB.reg &= ~SERCOM_USART_CTRLB_RXEN;
     798:	6851      	ldr	r1, [r2, #4]
     79a:	4b47      	ldr	r3, [pc, #284]	; (8b8 <irda_master_callback_received+0x138>)
     79c:	400b      	ands	r3, r1
     79e:	6053      	str	r3, [r2, #4]
			module->receiver_enabled = false;
     7a0:	2200      	movs	r2, #0
     7a2:	4b44      	ldr	r3, [pc, #272]	; (8b4 <irda_master_callback_received+0x134>)
     7a4:	719a      	strb	r2, [r3, #6]
		usart_disable_transceiver(&irda_master, USART_TRANSCEIVER_RX);
	
		switch ( irda_comm_state )
     7a6:	4b45      	ldr	r3, [pc, #276]	; (8bc <irda_master_callback_received+0x13c>)
     7a8:	781b      	ldrb	r3, [r3, #0]
     7aa:	2b01      	cmp	r3, #1
     7ac:	d002      	beq.n	7b4 <irda_master_callback_received+0x34>
     7ae:	2b03      	cmp	r3, #3
     7b0:	d049      	beq.n	846 <irda_master_callback_received+0xc6>
     7b2:	e07a      	b.n	8aa <irda_master_callback_received+0x12a>
		{
			case IRDA_SLAT_PING:
						// Check if main discovery is allowed
				if ( lock_allow_main_discovery == pdFALSE ) {
     7b4:	4b42      	ldr	r3, [pc, #264]	; (8c0 <irda_master_callback_received+0x140>)
     7b6:	681b      	ldr	r3, [r3, #0]
     7b8:	2b00      	cmp	r3, #0
     7ba:	d10a      	bne.n	7d2 <irda_master_callback_received+0x52>
					unlock_count = xTaskGetTickCountFromISR();
     7bc:	4b41      	ldr	r3, [pc, #260]	; (8c4 <irda_master_callback_received+0x144>)
     7be:	4798      	blx	r3
     7c0:	4b41      	ldr	r3, [pc, #260]	; (8c8 <irda_master_callback_received+0x148>)
     7c2:	6018      	str	r0, [r3, #0]
				
					if ( unlock_count >= lock_main_discovery_count ) {
     7c4:	4b41      	ldr	r3, [pc, #260]	; (8cc <irda_master_callback_received+0x14c>)
     7c6:	681b      	ldr	r3, [r3, #0]
     7c8:	4298      	cmp	r0, r3
     7ca:	d302      	bcc.n	7d2 <irda_master_callback_received+0x52>
						lock_allow_main_discovery = pdTRUE;
     7cc:	2201      	movs	r2, #1
     7ce:	4b3c      	ldr	r3, [pc, #240]	; (8c0 <irda_master_callback_received+0x140>)
     7d0:	601a      	str	r2, [r3, #0]
					}
				}
	
				if ( irda_rx_array[0] == irda_rx_array[1] && irda_rx_array[1] == irda_rx_array[2] && 
     7d2:	4b3f      	ldr	r3, [pc, #252]	; (8d0 <irda_master_callback_received+0x150>)
     7d4:	781a      	ldrb	r2, [r3, #0]
     7d6:	785b      	ldrb	r3, [r3, #1]
     7d8:	4293      	cmp	r3, r2
     7da:	d12e      	bne.n	83a <irda_master_callback_received+0xba>
     7dc:	4b3c      	ldr	r3, [pc, #240]	; (8d0 <irda_master_callback_received+0x150>)
     7de:	789b      	ldrb	r3, [r3, #2]
     7e0:	4293      	cmp	r3, r2
     7e2:	d12a      	bne.n	83a <irda_master_callback_received+0xba>
     7e4:	2aaa      	cmp	r2, #170	; 0xaa
     7e6:	d128      	bne.n	83a <irda_master_callback_received+0xba>
						irda_rx_array[0] == 0xAA )
				{
					if ( lock_allow_main_discovery ) {
     7e8:	4b35      	ldr	r3, [pc, #212]	; (8c0 <irda_master_callback_received+0x140>)
     7ea:	681b      	ldr	r3, [r3, #0]
     7ec:	2b00      	cmp	r3, #0
     7ee:	d05c      	beq.n	8aa <irda_master_callback_received+0x12a>
						if ( lock_trace == pdFALSE ) {
     7f0:	4b2f      	ldr	r3, [pc, #188]	; (8b0 <irda_master_callback_received+0x130>)
     7f2:	685b      	ldr	r3, [r3, #4]
     7f4:	2b00      	cmp	r3, #0
     7f6:	d104      	bne.n	802 <irda_master_callback_received+0x82>
							lock_trace = pdTRUE;
     7f8:	2201      	movs	r2, #1
     7fa:	4b2d      	ldr	r3, [pc, #180]	; (8b0 <irda_master_callback_received+0x130>)
     7fc:	605a      	str	r2, [r3, #4]
					
							// Start the trace
							uiTraceStart();
     7fe:	4b35      	ldr	r3, [pc, #212]	; (8d4 <irda_master_callback_received+0x154>)
     800:	4798      	blx	r3
 						//port_pin_set_output_level(LED_ERROR, pdFALSE);

 						//vTracePrintF(event_channel, "Rxd Header!"); 					

							//port_pin_toggle_output_level(LED_BUSY);
 						irda_comm_state = IRDA_SLAT_FIRST;	// Change state to send first response
     802:	2202      	movs	r2, #2
     804:	4b2d      	ldr	r3, [pc, #180]	; (8bc <irda_master_callback_received+0x13c>)
     806:	701a      	strb	r2, [r3, #0]

 						// The board has been discovered, note so that 0xAA is ignored next pass
 						//lock_allow_main_discovery = pdFALSE;
 						//lock_main_discovery_count = xTaskGetTickCountFromISR();
 						//lock_main_discovery_count += 16;	// Wait half-a-second
						xYieldRequired = xTaskResumeFromISR( irda_task_handler );
     808:	4b33      	ldr	r3, [pc, #204]	; (8d8 <irda_master_callback_received+0x158>)
     80a:	6818      	ldr	r0, [r3, #0]
     80c:	4b33      	ldr	r3, [pc, #204]	; (8dc <irda_master_callback_received+0x15c>)
     80e:	4798      	blx	r3
					
						if( xYieldRequired == pdTRUE )
     810:	2801      	cmp	r0, #1
     812:	d109      	bne.n	828 <irda_master_callback_received+0xa8>
						{
							// We should switch context so the ISR returns to a different task.
							// NOTE:  How this is done depends on the port you are using.  Check
							// the documentation and examples for your port.
							vTracePrintF(event_channel, "Yield ISR!");
     814:	4b32      	ldr	r3, [pc, #200]	; (8e0 <irda_master_callback_received+0x160>)
     816:	8818      	ldrh	r0, [r3, #0]
     818:	4932      	ldr	r1, [pc, #200]	; (8e4 <irda_master_callback_received+0x164>)
     81a:	4b33      	ldr	r3, [pc, #204]	; (8e8 <irda_master_callback_received+0x168>)
     81c:	4798      	blx	r3
							portYIELD_FROM_ISR(xYieldRequired);
     81e:	2280      	movs	r2, #128	; 0x80
     820:	0552      	lsls	r2, r2, #21
     822:	4b32      	ldr	r3, [pc, #200]	; (8ec <irda_master_callback_received+0x16c>)
     824:	601a      	str	r2, [r3, #0]
     826:	e040      	b.n	8aa <irda_master_callback_received+0x12a>
						} else {
							irda_comm_state = IRDA_SLAT_PING;
     828:	2201      	movs	r2, #1
     82a:	4b24      	ldr	r3, [pc, #144]	; (8bc <irda_master_callback_received+0x13c>)
     82c:	701a      	strb	r2, [r3, #0]
							vTracePrintF(event_channel, "No Yield! Changed to PING");
     82e:	4b2c      	ldr	r3, [pc, #176]	; (8e0 <irda_master_callback_received+0x160>)
     830:	8818      	ldrh	r0, [r3, #0]
     832:	492f      	ldr	r1, [pc, #188]	; (8f0 <irda_master_callback_received+0x170>)
     834:	4b2c      	ldr	r3, [pc, #176]	; (8e8 <irda_master_callback_received+0x168>)
     836:	4798      	blx	r3
     838:	e037      	b.n	8aa <irda_master_callback_received+0x12a>
						}
					}
				} else {
					vTracePrintF(event_channel, "Wrong Data!");
     83a:	4b29      	ldr	r3, [pc, #164]	; (8e0 <irda_master_callback_received+0x160>)
     83c:	8818      	ldrh	r0, [r3, #0]
     83e:	492d      	ldr	r1, [pc, #180]	; (8f4 <irda_master_callback_received+0x174>)
     840:	4b29      	ldr	r3, [pc, #164]	; (8e8 <irda_master_callback_received+0x168>)
     842:	4798      	blx	r3
     844:	e031      	b.n	8aa <irda_master_callback_received+0x12a>
					//irda_comm_state = IRDA_SLAT_PING;
				}
			break;
			case IRDA_SLAT_FIRST_RESPONSE:	// r010716-1608: This the code to execute when we get 0xCC. Stage 6
						// If this is correct, this board can be safely assumed to be synchronized
				if ( irda_rx_array[0] == irda_rx_array[1] && irda_rx_array[1] == irda_rx_array[2] &&
     846:	4b22      	ldr	r3, [pc, #136]	; (8d0 <irda_master_callback_received+0x150>)
     848:	781a      	ldrb	r2, [r3, #0]
     84a:	785b      	ldrb	r3, [r3, #1]
     84c:	4293      	cmp	r3, r2
     84e:	d120      	bne.n	892 <irda_master_callback_received+0x112>
     850:	4b1f      	ldr	r3, [pc, #124]	; (8d0 <irda_master_callback_received+0x150>)
     852:	789b      	ldrb	r3, [r3, #2]
     854:	4293      	cmp	r3, r2
     856:	d11c      	bne.n	892 <irda_master_callback_received+0x112>
						irda_rx_array[2] == irda_rx_array[3] && irda_rx_array[3] == irda_rx_array[4] && 
     858:	4b1d      	ldr	r3, [pc, #116]	; (8d0 <irda_master_callback_received+0x150>)
					//irda_comm_state = IRDA_SLAT_PING;
				}
			break;
			case IRDA_SLAT_FIRST_RESPONSE:	// r010716-1608: This the code to execute when we get 0xCC. Stage 6
						// If this is correct, this board can be safely assumed to be synchronized
				if ( irda_rx_array[0] == irda_rx_array[1] && irda_rx_array[1] == irda_rx_array[2] &&
     85a:	78db      	ldrb	r3, [r3, #3]
     85c:	4293      	cmp	r3, r2
     85e:	d118      	bne.n	892 <irda_master_callback_received+0x112>
						irda_rx_array[2] == irda_rx_array[3] && irda_rx_array[3] == irda_rx_array[4] && 
     860:	4b1b      	ldr	r3, [pc, #108]	; (8d0 <irda_master_callback_received+0x150>)
     862:	791b      	ldrb	r3, [r3, #4]
     864:	4293      	cmp	r3, r2
     866:	d114      	bne.n	892 <irda_master_callback_received+0x112>
     868:	2acc      	cmp	r2, #204	; 0xcc
     86a:	d112      	bne.n	892 <irda_master_callback_received+0x112>
					

					//vTracePrintF(event_channel, "Rxd Header!");

					//port_pin_toggle_output_level(LED_BUSY);
					irda_comm_state = IRDA_SLAT_PING;	// Change state to send first response
     86c:	2201      	movs	r2, #1
     86e:	4b13      	ldr	r3, [pc, #76]	; (8bc <irda_master_callback_received+0x13c>)
     870:	701a      	strb	r2, [r3, #0]
	PortGroup *const port_base = port_get_group_from_gpio_pin(gpio_pin);
	uint32_t pin_mask  = (1UL << (gpio_pin % 32));

	/* Set the pin to high or low atomically based on the requested level */
	if (level) {
		port_base->OUTSET.reg = pin_mask;
     872:	2280      	movs	r2, #128	; 0x80
     874:	0512      	lsls	r2, r2, #20
     876:	4b20      	ldr	r3, [pc, #128]	; (8f8 <irda_master_callback_received+0x178>)
     878:	619a      	str	r2, [r3, #24]
					port_pin_set_output_level(LED_BUSY, pdTRUE);
					
					// Resetting the timer
					xTimerResetFromISR ( timer_IrDA_Ping, 0 );
     87a:	4b20      	ldr	r3, [pc, #128]	; (8fc <irda_master_callback_received+0x17c>)
     87c:	681c      	ldr	r4, [r3, #0]
     87e:	4b11      	ldr	r3, [pc, #68]	; (8c4 <irda_master_callback_received+0x144>)
     880:	4798      	blx	r3
     882:	1c02      	adds	r2, r0, #0
     884:	2300      	movs	r3, #0
     886:	9300      	str	r3, [sp, #0]
     888:	1c20      	adds	r0, r4, #0
     88a:	2107      	movs	r1, #7
     88c:	4c1c      	ldr	r4, [pc, #112]	; (900 <irda_master_callback_received+0x180>)
     88e:	47a0      	blx	r4
     890:	e00b      	b.n	8aa <irda_master_callback_received+0x12a>
					//	portYIELD_FROM_ISR(xYieldRequired);
					//} else {
					//	vTracePrintF(event_channel, "No Yield! Changed to PING");
					//}
				} else {
					vTracePrintF(event_channel, "Wrong Data!");
     892:	4b13      	ldr	r3, [pc, #76]	; (8e0 <irda_master_callback_received+0x160>)
     894:	8818      	ldrh	r0, [r3, #0]
     896:	4917      	ldr	r1, [pc, #92]	; (8f4 <irda_master_callback_received+0x174>)
     898:	4b13      	ldr	r3, [pc, #76]	; (8e8 <irda_master_callback_received+0x168>)
     89a:	4798      	blx	r3
     89c:	2280      	movs	r2, #128	; 0x80
     89e:	0492      	lsls	r2, r2, #18
     8a0:	4b15      	ldr	r3, [pc, #84]	; (8f8 <irda_master_callback_received+0x178>)
     8a2:	619a      	str	r2, [r3, #24]
					port_pin_set_output_level(LED_ERROR, pdTRUE);
					irda_comm_state = IRDA_SLAT_PING;
     8a4:	2201      	movs	r2, #1
     8a6:	4b05      	ldr	r3, [pc, #20]	; (8bc <irda_master_callback_received+0x13c>)
     8a8:	701a      	strb	r2, [r3, #0]
				}
			break;
		}	
	}
}
     8aa:	b002      	add	sp, #8
     8ac:	bd10      	pop	{r4, pc}
     8ae:	46c0      	nop			; (mov r8, r8)
     8b0:	20000480 	.word	0x20000480
     8b4:	200016c4 	.word	0x200016c4
     8b8:	fffdffff 	.word	0xfffdffff
     8bc:	2000168c 	.word	0x2000168c
     8c0:	20000000 	.word	0x20000000
     8c4:	00003b01 	.word	0x00003b01
     8c8:	20001700 	.word	0x20001700
     8cc:	20001704 	.word	0x20001704
     8d0:	20000464 	.word	0x20000464
     8d4:	000024d5 	.word	0x000024d5
     8d8:	200016fc 	.word	0x200016fc
     8dc:	000039bd 	.word	0x000039bd
     8e0:	20001684 	.word	0x20001684
     8e4:	00005730 	.word	0x00005730
     8e8:	00002961 	.word	0x00002961
     8ec:	e000ed04 	.word	0xe000ed04
     8f0:	0000573c 	.word	0x0000573c
     8f4:	00005758 	.word	0x00005758
     8f8:	41004400 	.word	0x41004400
     8fc:	200016f8 	.word	0x200016f8
     900:	00004461 	.word	0x00004461

00000904 <bastian_IrDA_configuration>:
static void irda_master_callback_received(const struct usart_module *const module);
static void irda_master_callback_transmitted(const struct usart_module *const module);

//////////////////////////////////////////////////////////////////////////
// IrDA Port COnfiguration
void bastian_IrDA_configuration (void){
     904:	b570      	push	{r4, r5, r6, lr}
     906:	b090      	sub	sp, #64	; 0x40
{
	/* Sanity check arguments */
	Assert(config);

	/* Set default config in the config struct */
	config->data_order       = USART_DATAORDER_LSB;
     908:	2380      	movs	r3, #128	; 0x80
     90a:	05db      	lsls	r3, r3, #23
     90c:	9300      	str	r3, [sp, #0]
	config->transfer_mode    = USART_TRANSFER_ASYNCHRONOUSLY;
     90e:	2300      	movs	r3, #0
     910:	9301      	str	r3, [sp, #4]
	config->parity           = USART_PARITY_NONE;
	config->stopbits         = USART_STOPBITS_1;
     912:	2200      	movs	r2, #0
     914:	4668      	mov	r0, sp
     916:	7283      	strb	r3, [r0, #10]
	config->character_size   = USART_CHARACTER_SIZE_8BIT;
     918:	72c3      	strb	r3, [r0, #11]
	config->baudrate         = 9600;
	config->receiver_enable  = true;
     91a:	2401      	movs	r4, #1
     91c:	2124      	movs	r1, #36	; 0x24
     91e:	5444      	strb	r4, [r0, r1]
	config->transmitter_enable = true;
     920:	2125      	movs	r1, #37	; 0x25
     922:	5444      	strb	r4, [r0, r1]
	config->clock_polarity_inverted = false;
     924:	2126      	movs	r1, #38	; 0x26
     926:	5443      	strb	r3, [r0, r1]
	config->use_external_clock = false;
     928:	2127      	movs	r1, #39	; 0x27
     92a:	5443      	strb	r3, [r0, r1]
	config->ext_clock_freq   = 0;
     92c:	930a      	str	r3, [sp, #40]	; 0x28
	config->mux_setting      = USART_RX_1_TX_2_XCK_3;
	config->run_in_standby   = false;
     92e:	212c      	movs	r1, #44	; 0x2c
     930:	5443      	strb	r3, [r0, r1]
	config->generator_source = GCLK_GENERATOR_0;
     932:	212d      	movs	r1, #45	; 0x2d
     934:	5443      	strb	r3, [r0, r1]
	config->pinmux_pad0      = PINMUX_DEFAULT;
	config->pinmux_pad1      = PINMUX_DEFAULT;
	config->pinmux_pad2      = PINMUX_DEFAULT;
	config->pinmux_pad3      = PINMUX_DEFAULT;
#ifdef FEATURE_USART_OVER_SAMPLE
	config->sample_adjustment     = USART_SAMPLE_ADJUSTMENT_7_8_9;
     936:	9305      	str	r3, [sp, #20]
	config->sample_rate           = USART_SAMPLE_RATE_16X_ARITHMETIC;
     938:	8203      	strh	r3, [r0, #16]
#endif
#ifdef FEATURE_USART_LIN_SLAVE
	config->lin_slave_enable      = false;
     93a:	2100      	movs	r1, #0
     93c:	76c1      	strb	r1, [r0, #27]
	config->lin_header_delay = LIN_MASTER_HEADER_DELAY_0;
	config->lin_break_length = LIN_MASTER_BREAK_LENGTH_13_BIT;
#endif

#ifdef FEATURE_USART_IMMEDIATE_BUFFER_OVERFLOW_NOTIFICATION
	config->immediate_buffer_overflow_notification  = false;
     93e:	7602      	strb	r2, [r0, #24]
#endif
#ifdef FEATURE_USART_START_FRAME_DECTION
	config->start_frame_detection_enable            = false;
     940:	7702      	strb	r2, [r0, #28]
#endif
#ifdef FEATURE_USART_IRDA
	config->encoding_format_enable                  = false;
	config->receive_pulse_length                    = 19;
     942:	2113      	movs	r1, #19
     944:	7681      	strb	r1, [r0, #26]
	config->iso7816_config.inhibit_nack             = ISO7816_INHIBIT_NACK_DISABLE;
	config->iso7816_config.successive_recv_nack     = ISO7816_SUCCESSIVE_RECV_NACK_DISABLE;
	config->iso7816_config.max_iterations           = 7;
#endif
#ifdef FEATURE_USART_COLLISION_DECTION
	config->collision_detection_enable              = false;
     946:	7742      	strb	r2, [r0, #29]
	usart_get_config_defaults(&irda_conf);
	
	// Port Configuration
	irda_conf.transfer_mode = USART_TRANSFER_ASYNCHRONOUSLY;	// Asynchronous Communication Mode
	irda_conf.generator_source = GCLK_GENERATOR_0;				// Use the Generic Clock 0 as source
	irda_conf.baudrate = 115200;								// IrDA Baudrate
     948:	22e1      	movs	r2, #225	; 0xe1
     94a:	0252      	lsls	r2, r2, #9
     94c:	9208      	str	r2, [sp, #32]
	irda_conf.character_size = USART_CHARACTER_SIZE_8BIT;
	irda_conf.stopbits = USART_STOPBITS_1;
	irda_conf.parity = USART_PARITY_EVEN;
     94e:	8103      	strh	r3, [r0, #8]
	irda_conf.encoding_format_enable = true;	// Enable IrDA Encoding
     950:	7644      	strb	r4, [r0, #25]
	
	// Pin Multiplexer Settings
	irda_conf.mux_setting = USART_RX_1_TX_0_XCK_1;
     952:	2380      	movs	r3, #128	; 0x80
     954:	035b      	lsls	r3, r3, #13
     956:	9303      	str	r3, [sp, #12]
	irda_conf.pinmux_pad0 = PINMUX_PA22C_SERCOM3_PAD0;
     958:	4b19      	ldr	r3, [pc, #100]	; (9c0 <bastian_IrDA_configuration+0xbc>)
     95a:	930c      	str	r3, [sp, #48]	; 0x30
	irda_conf.pinmux_pad1 = PINMUX_PA23C_SERCOM3_PAD1;
     95c:	4b19      	ldr	r3, [pc, #100]	; (9c4 <bastian_IrDA_configuration+0xc0>)
     95e:	930d      	str	r3, [sp, #52]	; 0x34
	irda_conf.pinmux_pad2 = PINMUX_UNUSED;
     960:	2301      	movs	r3, #1
     962:	425b      	negs	r3, r3
     964:	930e      	str	r3, [sp, #56]	; 0x38
	irda_conf.pinmux_pad3 = PINMUX_UNUSED;
     966:	930f      	str	r3, [sp, #60]	; 0x3c

	// Initialize the previous settings
	usart_init((struct usart_module*) &irda_master, SERCOM3, &irda_conf);
     968:	4e17      	ldr	r6, [pc, #92]	; (9c8 <bastian_IrDA_configuration+0xc4>)
     96a:	1c30      	adds	r0, r6, #0
     96c:	4917      	ldr	r1, [pc, #92]	; (9cc <bastian_IrDA_configuration+0xc8>)
     96e:	466a      	mov	r2, sp
     970:	4b17      	ldr	r3, [pc, #92]	; (9d0 <bastian_IrDA_configuration+0xcc>)
     972:	4798      	blx	r3
	/* Sanity check arguments */
	Assert(module);
	Assert(module->hw);

	/* Get a pointer to the hardware module instance */
	SercomUsart *const usart_hw = &(module->hw->USART);
     974:	6835      	ldr	r5, [r6, #0]

#if USART_CALLBACK_MODE == true
	/* Enable Global interrupt for module */
	system_interrupt_enable(_sercom_get_interrupt_vector(module->hw));
     976:	1c28      	adds	r0, r5, #0
     978:	4b16      	ldr	r3, [pc, #88]	; (9d4 <bastian_IrDA_configuration+0xd0>)
     97a:	4798      	blx	r3
 * \param[in] vector Interrupt vector to enable
 */
static inline void system_interrupt_enable(
		const enum system_interrupt_vector vector)
{
	NVIC->ISER[0] = (uint32_t)(1 << ((uint32_t)vector & 0x0000001f));
     97c:	231f      	movs	r3, #31
     97e:	4018      	ands	r0, r3
     980:	4084      	lsls	r4, r0
     982:	4b15      	ldr	r3, [pc, #84]	; (9d8 <bastian_IrDA_configuration+0xd4>)
     984:	601c      	str	r4, [r3, #0]
{
	/* Sanity check arguments */
	Assert(module);
	Assert(module->hw);

	SercomUsart *const usart_hw = &(module->hw->USART);
     986:	6832      	ldr	r2, [r6, #0]

#ifdef FEATURE_USART_SYNC_SCHEME_V2
	return (usart_hw->SYNCBUSY.reg);
     988:	69d3      	ldr	r3, [r2, #28]
		const struct usart_module *const module)
{
	/* Sanity check */
	Assert(module);

	while (usart_is_syncing(module)) {
     98a:	2b00      	cmp	r3, #0
     98c:	d1fc      	bne.n	988 <bastian_IrDA_configuration+0x84>

	/* Wait until synchronization is complete */
	_usart_wait_for_sync(module);

	/* Enable USART module */
	usart_hw->CTRLA.reg |= SERCOM_USART_CTRLA_ENABLE;
     98e:	682a      	ldr	r2, [r5, #0]
     990:	2302      	movs	r3, #2
     992:	4313      	orrs	r3, r2
     994:	602b      	str	r3, [r5, #0]

	// Enable the module
	usart_enable((struct usart_module*) &irda_master);

	// ******** Callback setup
	usart_register_callback((struct usart_module*) &irda_master, (usart_callback_t)irda_master_callback_received, USART_CALLBACK_BUFFER_RECEIVED);
     996:	4c0c      	ldr	r4, [pc, #48]	; (9c8 <bastian_IrDA_configuration+0xc4>)
     998:	1c20      	adds	r0, r4, #0
     99a:	4910      	ldr	r1, [pc, #64]	; (9dc <bastian_IrDA_configuration+0xd8>)
     99c:	2201      	movs	r2, #1
     99e:	4e10      	ldr	r6, [pc, #64]	; (9e0 <bastian_IrDA_configuration+0xdc>)
     9a0:	47b0      	blx	r6
{
	/* Sanity check arguments */
	Assert(module);

	/* Enable callback */
	module->callback_enable_mask |= (1 << callback_type);
     9a2:	2531      	movs	r5, #49	; 0x31
     9a4:	5d62      	ldrb	r2, [r4, r5]
     9a6:	2302      	movs	r3, #2
     9a8:	4313      	orrs	r3, r2
     9aa:	5563      	strb	r3, [r4, r5]
	usart_enable_callback((struct usart_module*) &irda_master, USART_CALLBACK_BUFFER_RECEIVED);

	usart_register_callback((struct usart_module*) &irda_master, (usart_callback_t)irda_master_callback_transmitted, USART_CALLBACK_BUFFER_TRANSMITTED);
     9ac:	1c20      	adds	r0, r4, #0
     9ae:	490d      	ldr	r1, [pc, #52]	; (9e4 <bastian_IrDA_configuration+0xe0>)
     9b0:	2200      	movs	r2, #0
     9b2:	47b0      	blx	r6
     9b4:	5d62      	ldrb	r2, [r4, r5]
     9b6:	2301      	movs	r3, #1
     9b8:	4313      	orrs	r3, r2
     9ba:	5563      	strb	r3, [r4, r5]
	usart_enable_callback((struct usart_module*) &irda_master, USART_CALLBACK_BUFFER_TRANSMITTED);
}
     9bc:	b010      	add	sp, #64	; 0x40
     9be:	bd70      	pop	{r4, r5, r6, pc}
     9c0:	00160002 	.word	0x00160002
     9c4:	00170002 	.word	0x00170002
     9c8:	200016c4 	.word	0x200016c4
     9cc:	42001400 	.word	0x42001400
     9d0:	00000a95 	.word	0x00000a95
     9d4:	00000a29 	.word	0x00000a29
     9d8:	e000e100 	.word	0xe000e100
     9dc:	00000781 	.word	0x00000781
     9e0:	00000e19 	.word	0x00000e19
     9e4:	0000070d 	.word	0x0000070d

000009e8 <_sercom_default_handler>:
 */
static void _sercom_default_handler(
		const uint8_t instance)
{
	Assert(false);
}
     9e8:	4770      	bx	lr
     9ea:	46c0      	nop			; (mov r8, r8)

000009ec <_sercom_set_handler>:
 * \param[in]  interrupt_handler  Pointer to instance callback handler.
 */
void _sercom_set_handler(
		const uint8_t instance,
		const sercom_handler_t interrupt_handler)
{
     9ec:	b530      	push	{r4, r5, lr}
	/* Initialize handlers with default handler and device instances with 0 */
	if (_handler_table_initialized == false) {
     9ee:	4b0b      	ldr	r3, [pc, #44]	; (a1c <_sercom_set_handler+0x30>)
     9f0:	781b      	ldrb	r3, [r3, #0]
     9f2:	2b00      	cmp	r3, #0
     9f4:	d10d      	bne.n	a12 <_sercom_set_handler+0x26>
		for (uint32_t i = 0; i < SERCOM_INST_NUM; i++) {
			_sercom_interrupt_handlers[i] = &_sercom_default_handler;
     9f6:	4b09      	ldr	r3, [pc, #36]	; (a1c <_sercom_set_handler+0x30>)
     9f8:	4d09      	ldr	r5, [pc, #36]	; (a20 <_sercom_set_handler+0x34>)
     9fa:	605d      	str	r5, [r3, #4]
			_sercom_instances[i] = NULL;
     9fc:	4a09      	ldr	r2, [pc, #36]	; (a24 <_sercom_set_handler+0x38>)
     9fe:	2400      	movs	r4, #0
     a00:	6014      	str	r4, [r2, #0]
		const sercom_handler_t interrupt_handler)
{
	/* Initialize handlers with default handler and device instances with 0 */
	if (_handler_table_initialized == false) {
		for (uint32_t i = 0; i < SERCOM_INST_NUM; i++) {
			_sercom_interrupt_handlers[i] = &_sercom_default_handler;
     a02:	609d      	str	r5, [r3, #8]
			_sercom_instances[i] = NULL;
     a04:	6054      	str	r4, [r2, #4]
		const sercom_handler_t interrupt_handler)
{
	/* Initialize handlers with default handler and device instances with 0 */
	if (_handler_table_initialized == false) {
		for (uint32_t i = 0; i < SERCOM_INST_NUM; i++) {
			_sercom_interrupt_handlers[i] = &_sercom_default_handler;
     a06:	60dd      	str	r5, [r3, #12]
			_sercom_instances[i] = NULL;
     a08:	6094      	str	r4, [r2, #8]
		const sercom_handler_t interrupt_handler)
{
	/* Initialize handlers with default handler and device instances with 0 */
	if (_handler_table_initialized == false) {
		for (uint32_t i = 0; i < SERCOM_INST_NUM; i++) {
			_sercom_interrupt_handlers[i] = &_sercom_default_handler;
     a0a:	611d      	str	r5, [r3, #16]
			_sercom_instances[i] = NULL;
     a0c:	60d4      	str	r4, [r2, #12]
		}

		_handler_table_initialized = true;
     a0e:	2201      	movs	r2, #1
     a10:	701a      	strb	r2, [r3, #0]
	}

	/* Save interrupt handler */
	_sercom_interrupt_handlers[instance] = interrupt_handler;
     a12:	0080      	lsls	r0, r0, #2
     a14:	4b01      	ldr	r3, [pc, #4]	; (a1c <_sercom_set_handler+0x30>)
     a16:	1818      	adds	r0, r3, r0
     a18:	6041      	str	r1, [r0, #4]
}
     a1a:	bd30      	pop	{r4, r5, pc}
     a1c:	20000490 	.word	0x20000490
     a20:	000009e9 	.word	0x000009e9
     a24:	20001708 	.word	0x20001708

00000a28 <_sercom_get_interrupt_vector>:
 * \retval SYSTEM_INTERRUPT_MODULE_SERCOM6
 * \retval SYSTEM_INTERRUPT_MODULE_SERCOM7
 */
enum system_interrupt_vector _sercom_get_interrupt_vector(
		Sercom *const sercom_instance)
{
     a28:	b530      	push	{r4, r5, lr}
     a2a:	b083      	sub	sp, #12
     a2c:	1c05      	adds	r5, r0, #0
	const uint8_t sercom_int_vectors[SERCOM_INST_NUM] =
     a2e:	ac01      	add	r4, sp, #4
     a30:	1c20      	adds	r0, r4, #0
     a32:	4905      	ldr	r1, [pc, #20]	; (a48 <_sercom_get_interrupt_vector+0x20>)
     a34:	2204      	movs	r2, #4
     a36:	4b05      	ldr	r3, [pc, #20]	; (a4c <_sercom_get_interrupt_vector+0x24>)
     a38:	4798      	blx	r3
		{
			MREPEAT(SERCOM_INST_NUM, _SERCOM_INTERRUPT_VECT_NUM, ~)
		};

	/* Retrieve the index of the SERCOM being requested */
	uint8_t instance_index = _sercom_get_sercom_inst_index(sercom_instance);
     a3a:	1c28      	adds	r0, r5, #0
     a3c:	4b04      	ldr	r3, [pc, #16]	; (a50 <_sercom_get_interrupt_vector+0x28>)
     a3e:	4798      	blx	r3

	/* Get the vector number from the lookup table for the requested SERCOM */
	return (enum system_interrupt_vector)sercom_int_vectors[instance_index];
     a40:	5620      	ldrsb	r0, [r4, r0]
}
     a42:	b003      	add	sp, #12
     a44:	bd30      	pop	{r4, r5, pc}
     a46:	46c0      	nop			; (mov r8, r8)
     a48:	00005764 	.word	0x00005764
     a4c:	00005385 	.word	0x00005385
     a50:	000006c9 	.word	0x000006c9

00000a54 <SERCOM0_Handler>:

/** Auto-generate a set of interrupt handlers for each SERCOM in the device */
MREPEAT(SERCOM_INST_NUM, _SERCOM_INTERRUPT_HANDLER, ~)
     a54:	b508      	push	{r3, lr}
     a56:	4b02      	ldr	r3, [pc, #8]	; (a60 <SERCOM0_Handler+0xc>)
     a58:	685b      	ldr	r3, [r3, #4]
     a5a:	2000      	movs	r0, #0
     a5c:	4798      	blx	r3
     a5e:	bd08      	pop	{r3, pc}
     a60:	20000490 	.word	0x20000490

00000a64 <SERCOM1_Handler>:
     a64:	b508      	push	{r3, lr}
     a66:	4b02      	ldr	r3, [pc, #8]	; (a70 <SERCOM1_Handler+0xc>)
     a68:	689b      	ldr	r3, [r3, #8]
     a6a:	2001      	movs	r0, #1
     a6c:	4798      	blx	r3
     a6e:	bd08      	pop	{r3, pc}
     a70:	20000490 	.word	0x20000490

00000a74 <SERCOM2_Handler>:
     a74:	b508      	push	{r3, lr}
     a76:	4b02      	ldr	r3, [pc, #8]	; (a80 <SERCOM2_Handler+0xc>)
     a78:	68db      	ldr	r3, [r3, #12]
     a7a:	2002      	movs	r0, #2
     a7c:	4798      	blx	r3
     a7e:	bd08      	pop	{r3, pc}
     a80:	20000490 	.word	0x20000490

00000a84 <SERCOM3_Handler>:
     a84:	b508      	push	{r3, lr}
     a86:	4b02      	ldr	r3, [pc, #8]	; (a90 <SERCOM3_Handler+0xc>)
     a88:	691b      	ldr	r3, [r3, #16]
     a8a:	2003      	movs	r0, #3
     a8c:	4798      	blx	r3
     a8e:	bd08      	pop	{r3, pc}
     a90:	20000490 	.word	0x20000490

00000a94 <usart_init>:
 */
enum status_code usart_init(
		struct usart_module *const module,
		Sercom *const hw,
		const struct usart_config *const config)
{
     a94:	b5f0      	push	{r4, r5, r6, r7, lr}
     a96:	465f      	mov	r7, fp
     a98:	4656      	mov	r6, sl
     a9a:	464d      	mov	r5, r9
     a9c:	4644      	mov	r4, r8
     a9e:	b4f0      	push	{r4, r5, r6, r7}
     aa0:	b093      	sub	sp, #76	; 0x4c
     aa2:	1c05      	adds	r5, r0, #0
     aa4:	1c0c      	adds	r4, r1, #0
     aa6:	1c16      	adds	r6, r2, #0
	Assert(config);

	enum status_code status_code = STATUS_OK;

	/* Assign module pointer to software instance struct */
	module->hw = hw;
     aa8:	6029      	str	r1, [r5, #0]

	/* Get a pointer to the hardware module instance */
	SercomUsart *const usart_hw = &(module->hw->USART);

	uint32_t sercom_index = _sercom_get_sercom_inst_index(module->hw);
     aaa:	1c08      	adds	r0, r1, #0
     aac:	4ba9      	ldr	r3, [pc, #676]	; (d54 <usart_init+0x2c0>)
     aae:	4798      	blx	r3
     ab0:	1c02      	adds	r2, r0, #0
#else
	pm_index     = sercom_index + PM_APBCMASK_SERCOM0_Pos;
	gclk_index   = sercom_index + SERCOM0_GCLK_ID_CORE;
#endif

	if (usart_hw->CTRLA.reg & SERCOM_USART_CTRLA_SWRST) {
     ab2:	6823      	ldr	r3, [r4, #0]
		/* The module is busy resetting itself */
		return STATUS_BUSY;
     ab4:	2005      	movs	r0, #5
#else
	pm_index     = sercom_index + PM_APBCMASK_SERCOM0_Pos;
	gclk_index   = sercom_index + SERCOM0_GCLK_ID_CORE;
#endif

	if (usart_hw->CTRLA.reg & SERCOM_USART_CTRLA_SWRST) {
     ab6:	07d9      	lsls	r1, r3, #31
     ab8:	d500      	bpl.n	abc <usart_init+0x28>
     aba:	e143      	b.n	d44 <usart_init+0x2b0>
		/* The module is busy resetting itself */
		return STATUS_BUSY;
	}

	if (usart_hw->CTRLA.reg & SERCOM_USART_CTRLA_ENABLE) {
     abc:	6823      	ldr	r3, [r4, #0]
		/* Check the module is enabled */
		return STATUS_ERR_DENIED;
     abe:	201c      	movs	r0, #28
	if (usart_hw->CTRLA.reg & SERCOM_USART_CTRLA_SWRST) {
		/* The module is busy resetting itself */
		return STATUS_BUSY;
	}

	if (usart_hw->CTRLA.reg & SERCOM_USART_CTRLA_ENABLE) {
     ac0:	079f      	lsls	r7, r3, #30
     ac2:	d500      	bpl.n	ac6 <usart_init+0x32>
     ac4:	e13e      	b.n	d44 <usart_init+0x2b0>
		case SYSTEM_CLOCK_APB_APBB:
			PM->APBBMASK.reg |= mask;
			break;

		case SYSTEM_CLOCK_APB_APBC:
			PM->APBCMASK.reg |= mask;
     ac6:	4ba4      	ldr	r3, [pc, #656]	; (d58 <usart_init+0x2c4>)
     ac8:	6a18      	ldr	r0, [r3, #32]
#else
	pm_index     = sercom_index + MCLK_APBCMASK_SERCOM0_Pos;
	gclk_index   = sercom_index + SERCOM0_GCLK_ID_CORE;
#endif
#else
	pm_index     = sercom_index + PM_APBCMASK_SERCOM0_Pos;
     aca:	1c91      	adds	r1, r2, #2
		system_apb_clock_set_mask(SYSTEM_CLOCK_APB_APBD, 1 << pm_index);
	} else {
		system_apb_clock_set_mask(SYSTEM_CLOCK_APB_APBC, 1 << pm_index);	
	}
#else
	system_apb_clock_set_mask(SYSTEM_CLOCK_APB_APBC, 1 << pm_index);
     acc:	2701      	movs	r7, #1
     ace:	408f      	lsls	r7, r1
     ad0:	1c39      	adds	r1, r7, #0
     ad2:	4301      	orrs	r1, r0
     ad4:	6219      	str	r1, [r3, #32]
#endif

	/* Set up the GCLK for the module */
	struct system_gclk_chan_config gclk_chan_conf;
	system_gclk_chan_get_config_defaults(&gclk_chan_conf);
	gclk_chan_conf.source_generator = config->generator_source;
     ad6:	a911      	add	r1, sp, #68	; 0x44
     ad8:	272d      	movs	r7, #45	; 0x2d
     ada:	5df3      	ldrb	r3, [r6, r7]
     adc:	700b      	strb	r3, [r1, #0]
	pm_index     = sercom_index + MCLK_APBCMASK_SERCOM0_Pos;
	gclk_index   = sercom_index + SERCOM0_GCLK_ID_CORE;
#endif
#else
	pm_index     = sercom_index + PM_APBCMASK_SERCOM0_Pos;
	gclk_index   = sercom_index + SERCOM0_GCLK_ID_CORE;
     ade:	3214      	adds	r2, #20

	/* Set up the GCLK for the module */
	struct system_gclk_chan_config gclk_chan_conf;
	system_gclk_chan_get_config_defaults(&gclk_chan_conf);
	gclk_chan_conf.source_generator = config->generator_source;
	system_gclk_chan_set_config(gclk_index, &gclk_chan_conf);
     ae0:	b2d2      	uxtb	r2, r2
     ae2:	4690      	mov	r8, r2
     ae4:	1c10      	adds	r0, r2, #0
     ae6:	4b9d      	ldr	r3, [pc, #628]	; (d5c <usart_init+0x2c8>)
     ae8:	4798      	blx	r3
	system_gclk_chan_enable(gclk_index);
     aea:	4640      	mov	r0, r8
     aec:	4b9c      	ldr	r3, [pc, #624]	; (d60 <usart_init+0x2cc>)
     aee:	4798      	blx	r3
	sercom_set_gclk_generator(config->generator_source, false);
     af0:	5df0      	ldrb	r0, [r6, r7]
     af2:	2100      	movs	r1, #0
     af4:	4b9b      	ldr	r3, [pc, #620]	; (d64 <usart_init+0x2d0>)
     af6:	4798      	blx	r3

	/* Set character size */
	module->character_size = config->character_size;
     af8:	7af3      	ldrb	r3, [r6, #11]
     afa:	716b      	strb	r3, [r5, #5]

	/* Set transmitter and receiver status */
	module->receiver_enabled = config->receiver_enable;
     afc:	2324      	movs	r3, #36	; 0x24
     afe:	5cf3      	ldrb	r3, [r6, r3]
     b00:	71ab      	strb	r3, [r5, #6]
	module->transmitter_enabled = config->transmitter_enable;
     b02:	2325      	movs	r3, #37	; 0x25
     b04:	5cf3      	ldrb	r3, [r6, r3]
     b06:	71eb      	strb	r3, [r5, #7]

#ifdef FEATURE_USART_LIN_SLAVE
	module->lin_slave_enabled = config->lin_slave_enable;
     b08:	7ef3      	ldrb	r3, [r6, #27]
     b0a:	722b      	strb	r3, [r5, #8]
#endif
#ifdef FEATURE_USART_START_FRAME_DECTION
	module->start_frame_detection_enabled = config->start_frame_detection_enable;
     b0c:	7f33      	ldrb	r3, [r6, #28]
     b0e:	726b      	strb	r3, [r5, #9]
	/* Sanity check arguments */
	Assert(module);
	Assert(module->hw);

	/* Get a pointer to the hardware module instance */
	SercomUsart *const usart_hw = &(module->hw->USART);
     b10:	6829      	ldr	r1, [r5, #0]
     b12:	4688      	mov	r8, r1

	/* Index for generic clock */
	uint32_t sercom_index = _sercom_get_sercom_inst_index(module->hw);
     b14:	1c08      	adds	r0, r1, #0
     b16:	4b8f      	ldr	r3, [pc, #572]	; (d54 <usart_init+0x2c0>)
     b18:	4798      	blx	r3
	uint32_t gclk_index   = sercom_index + SERCOM0_GCLK_ID_CORE;
     b1a:	3014      	adds	r0, #20
	uint32_t ctrla = 0;
	uint32_t ctrlb = 0;
#ifdef FEATURE_USART_ISO7816
	uint32_t ctrlc = 0;
#endif
	uint16_t baud  = 0;
     b1c:	2200      	movs	r2, #0
     b1e:	466b      	mov	r3, sp
     b20:	85da      	strh	r2, [r3, #46]	; 0x2e

	enum sercom_asynchronous_operation_mode mode = SERCOM_ASYNC_OPERATION_MODE_ARITHMETIC;
	enum sercom_asynchronous_sample_num sample_num = SERCOM_ASYNC_SAMPLE_NUM_16;

#ifdef FEATURE_USART_OVER_SAMPLE
	switch (config->sample_rate) {
     b22:	8a32      	ldrh	r2, [r6, #16]
     b24:	9203      	str	r2, [sp, #12]
     b26:	2380      	movs	r3, #128	; 0x80
     b28:	01db      	lsls	r3, r3, #7
     b2a:	429a      	cmp	r2, r3
     b2c:	d021      	beq.n	b72 <usart_init+0xde>
     b2e:	2380      	movs	r3, #128	; 0x80
     b30:	01db      	lsls	r3, r3, #7
     b32:	429a      	cmp	r2, r3
     b34:	d804      	bhi.n	b40 <usart_init+0xac>
     b36:	2380      	movs	r3, #128	; 0x80
     b38:	019b      	lsls	r3, r3, #6
     b3a:	429a      	cmp	r2, r3
     b3c:	d011      	beq.n	b62 <usart_init+0xce>
     b3e:	e008      	b.n	b52 <usart_init+0xbe>
     b40:	23c0      	movs	r3, #192	; 0xc0
     b42:	01db      	lsls	r3, r3, #7
     b44:	9f03      	ldr	r7, [sp, #12]
     b46:	429f      	cmp	r7, r3
     b48:	d00f      	beq.n	b6a <usart_init+0xd6>
     b4a:	2380      	movs	r3, #128	; 0x80
     b4c:	021b      	lsls	r3, r3, #8
     b4e:	429f      	cmp	r7, r3
     b50:	d003      	beq.n	b5a <usart_init+0xc6>
#endif
	uint16_t baud  = 0;
	uint32_t transfer_mode;

	enum sercom_asynchronous_operation_mode mode = SERCOM_ASYNC_OPERATION_MODE_ARITHMETIC;
	enum sercom_asynchronous_sample_num sample_num = SERCOM_ASYNC_SAMPLE_NUM_16;
     b52:	2710      	movs	r7, #16
     b54:	9708      	str	r7, [sp, #32]
	uint32_t ctrlc = 0;
#endif
	uint16_t baud  = 0;
	uint32_t transfer_mode;

	enum sercom_asynchronous_operation_mode mode = SERCOM_ASYNC_OPERATION_MODE_ARITHMETIC;
     b56:	2700      	movs	r7, #0
     b58:	e00e      	b.n	b78 <usart_init+0xe4>
			mode = SERCOM_ASYNC_OPERATION_MODE_ARITHMETIC;
			sample_num = SERCOM_ASYNC_SAMPLE_NUM_8;
			break;
		case USART_SAMPLE_RATE_3X_ARITHMETIC:
			mode = SERCOM_ASYNC_OPERATION_MODE_ARITHMETIC;
			sample_num = SERCOM_ASYNC_SAMPLE_NUM_3;
     b5a:	2703      	movs	r7, #3
     b5c:	9708      	str	r7, [sp, #32]
		case USART_SAMPLE_RATE_8X_ARITHMETIC:
			mode = SERCOM_ASYNC_OPERATION_MODE_ARITHMETIC;
			sample_num = SERCOM_ASYNC_SAMPLE_NUM_8;
			break;
		case USART_SAMPLE_RATE_3X_ARITHMETIC:
			mode = SERCOM_ASYNC_OPERATION_MODE_ARITHMETIC;
     b5e:	2700      	movs	r7, #0
     b60:	e00a      	b.n	b78 <usart_init+0xe4>
			sample_num = SERCOM_ASYNC_SAMPLE_NUM_3;
			break;
		case USART_SAMPLE_RATE_16X_FRACTIONAL:
			mode = SERCOM_ASYNC_OPERATION_MODE_FRACTIONAL;
			sample_num = SERCOM_ASYNC_SAMPLE_NUM_16;
     b62:	2710      	movs	r7, #16
     b64:	9708      	str	r7, [sp, #32]
		case USART_SAMPLE_RATE_3X_ARITHMETIC:
			mode = SERCOM_ASYNC_OPERATION_MODE_ARITHMETIC;
			sample_num = SERCOM_ASYNC_SAMPLE_NUM_3;
			break;
		case USART_SAMPLE_RATE_16X_FRACTIONAL:
			mode = SERCOM_ASYNC_OPERATION_MODE_FRACTIONAL;
     b66:	2701      	movs	r7, #1
     b68:	e006      	b.n	b78 <usart_init+0xe4>
			sample_num = SERCOM_ASYNC_SAMPLE_NUM_16;
			break;
		case USART_SAMPLE_RATE_8X_FRACTIONAL:
			mode = SERCOM_ASYNC_OPERATION_MODE_FRACTIONAL;
			sample_num = SERCOM_ASYNC_SAMPLE_NUM_8;
     b6a:	2708      	movs	r7, #8
     b6c:	9708      	str	r7, [sp, #32]
		case USART_SAMPLE_RATE_16X_FRACTIONAL:
			mode = SERCOM_ASYNC_OPERATION_MODE_FRACTIONAL;
			sample_num = SERCOM_ASYNC_SAMPLE_NUM_16;
			break;
		case USART_SAMPLE_RATE_8X_FRACTIONAL:
			mode = SERCOM_ASYNC_OPERATION_MODE_FRACTIONAL;
     b6e:	2701      	movs	r7, #1
     b70:	e002      	b.n	b78 <usart_init+0xe4>
			mode = SERCOM_ASYNC_OPERATION_MODE_ARITHMETIC;
			sample_num = SERCOM_ASYNC_SAMPLE_NUM_16;
			break;
		case USART_SAMPLE_RATE_8X_ARITHMETIC:
			mode = SERCOM_ASYNC_OPERATION_MODE_ARITHMETIC;
			sample_num = SERCOM_ASYNC_SAMPLE_NUM_8;
     b72:	2708      	movs	r7, #8
     b74:	9708      	str	r7, [sp, #32]
		case USART_SAMPLE_RATE_16X_ARITHMETIC:
			mode = SERCOM_ASYNC_OPERATION_MODE_ARITHMETIC;
			sample_num = SERCOM_ASYNC_SAMPLE_NUM_16;
			break;
		case USART_SAMPLE_RATE_8X_ARITHMETIC:
			mode = SERCOM_ASYNC_OPERATION_MODE_ARITHMETIC;
     b76:	2700      	movs	r7, #0
			break;
	}
#endif

	/* Set data order, internal muxing, and clock polarity */
	ctrla = (uint32_t)config->data_order |
     b78:	6831      	ldr	r1, [r6, #0]
     b7a:	9104      	str	r1, [sp, #16]
		(uint32_t)config->mux_setting |
     b7c:	68f2      	ldr	r2, [r6, #12]
     b7e:	9205      	str	r2, [sp, #20]
	#ifdef FEATURE_USART_OVER_SAMPLE
		config->sample_adjustment |
     b80:	6973      	ldr	r3, [r6, #20]
     b82:	9306      	str	r3, [sp, #24]
		config->sample_rate |
	#endif
	#ifdef FEATURE_USART_IMMEDIATE_BUFFER_OVERFLOW_NOTIFICATION
		(config->immediate_buffer_overflow_notification << SERCOM_USART_CTRLA_IBON_Pos) |
     b84:	7e31      	ldrb	r1, [r6, #24]
     b86:	468a      	mov	sl, r1
	#endif
		(config->clock_polarity_inverted << SERCOM_USART_CTRLA_CPOL_Pos);
     b88:	2326      	movs	r3, #38	; 0x26
     b8a:	5cf3      	ldrb	r3, [r6, r3]
     b8c:	469b      	mov	fp, r3

	enum status_code status_code = STATUS_OK;

	transfer_mode = (uint32_t)config->transfer_mode;
     b8e:	6872      	ldr	r2, [r6, #4]
     b90:	4691      	mov	r9, r2
#ifdef FEATURE_USART_ISO7816
	if(config->iso7816_config.enabled) {
		baud = config->baudrate;
	} else {
#endif
	switch (transfer_mode)
     b92:	2a00      	cmp	r2, #0
     b94:	d013      	beq.n	bbe <usart_init+0x12a>
     b96:	2380      	movs	r3, #128	; 0x80
     b98:	055b      	lsls	r3, r3, #21
     b9a:	429a      	cmp	r2, r3
     b9c:	d12e      	bne.n	bfc <usart_init+0x168>
	{
		case USART_TRANSFER_SYNCHRONOUSLY:
			if (!config->use_external_clock) {
     b9e:	2327      	movs	r3, #39	; 0x27
     ba0:	5cf3      	ldrb	r3, [r6, r3]
     ba2:	2b00      	cmp	r3, #0
     ba4:	d12e      	bne.n	c04 <usart_init+0x170>
				status_code = _sercom_get_sync_baud_val(config->baudrate,
     ba6:	6a37      	ldr	r7, [r6, #32]
     ba8:	b2c0      	uxtb	r0, r0
     baa:	4b6f      	ldr	r3, [pc, #444]	; (d68 <usart_init+0x2d4>)
     bac:	4798      	blx	r3
     bae:	1c01      	adds	r1, r0, #0
     bb0:	1c38      	adds	r0, r7, #0
     bb2:	466a      	mov	r2, sp
     bb4:	322e      	adds	r2, #46	; 0x2e
     bb6:	4b6d      	ldr	r3, [pc, #436]	; (d6c <usart_init+0x2d8>)
     bb8:	4798      	blx	r3
     bba:	1c03      	adds	r3, r0, #0
     bbc:	e01f      	b.n	bfe <usart_init+0x16a>
			}

			break;

		case USART_TRANSFER_ASYNCHRONOUSLY:
			if (config->use_external_clock) {
     bbe:	2327      	movs	r3, #39	; 0x27
     bc0:	5cf3      	ldrb	r3, [r6, r3]
     bc2:	2b00      	cmp	r3, #0
     bc4:	d00a      	beq.n	bdc <usart_init+0x148>
				status_code =
     bc6:	9908      	ldr	r1, [sp, #32]
     bc8:	9100      	str	r1, [sp, #0]
     bca:	6a30      	ldr	r0, [r6, #32]
     bcc:	6ab1      	ldr	r1, [r6, #40]	; 0x28
     bce:	466a      	mov	r2, sp
     bd0:	322e      	adds	r2, #46	; 0x2e
     bd2:	1c3b      	adds	r3, r7, #0
     bd4:	4f66      	ldr	r7, [pc, #408]	; (d70 <usart_init+0x2dc>)
     bd6:	47b8      	blx	r7
     bd8:	1c03      	adds	r3, r0, #0
     bda:	e010      	b.n	bfe <usart_init+0x16a>
						_sercom_get_async_baud_val(config->baudrate,
							config->ext_clock_freq, &baud, mode, sample_num);
			} else {
				status_code =
						_sercom_get_async_baud_val(config->baudrate,
     bdc:	6a31      	ldr	r1, [r6, #32]
     bde:	9109      	str	r1, [sp, #36]	; 0x24
     be0:	b2c0      	uxtb	r0, r0
     be2:	4b61      	ldr	r3, [pc, #388]	; (d68 <usart_init+0x2d4>)
     be4:	4798      	blx	r3
     be6:	1c01      	adds	r1, r0, #0
			if (config->use_external_clock) {
				status_code =
						_sercom_get_async_baud_val(config->baudrate,
							config->ext_clock_freq, &baud, mode, sample_num);
			} else {
				status_code =
     be8:	9a08      	ldr	r2, [sp, #32]
     bea:	9200      	str	r2, [sp, #0]
     bec:	9809      	ldr	r0, [sp, #36]	; 0x24
     bee:	466a      	mov	r2, sp
     bf0:	322e      	adds	r2, #46	; 0x2e
     bf2:	1c3b      	adds	r3, r7, #0
     bf4:	4f5e      	ldr	r7, [pc, #376]	; (d70 <usart_init+0x2dc>)
     bf6:	47b8      	blx	r7
     bf8:	1c03      	adds	r3, r0, #0
     bfa:	e000      	b.n	bfe <usart_init+0x16a>
	#ifdef FEATURE_USART_IMMEDIATE_BUFFER_OVERFLOW_NOTIFICATION
		(config->immediate_buffer_overflow_notification << SERCOM_USART_CTRLA_IBON_Pos) |
	#endif
		(config->clock_polarity_inverted << SERCOM_USART_CTRLA_CPOL_Pos);

	enum status_code status_code = STATUS_OK;
     bfc:	2300      	movs	r3, #0
     bfe:	1e18      	subs	r0, r3, #0

			break;
	}

	/* Check if calculating the baudrate failed */
	if (status_code != STATUS_OK) {
     c00:	d000      	beq.n	c04 <usart_init+0x170>
     c02:	e09f      	b.n	d44 <usart_init+0x2b0>
#ifdef FEATURE_USART_ISO7816
	}
#endif

#ifdef FEATURE_USART_IRDA
	if(config->encoding_format_enable) {
     c04:	7e73      	ldrb	r3, [r6, #25]
     c06:	2b00      	cmp	r3, #0
     c08:	d002      	beq.n	c10 <usart_init+0x17c>
		usart_hw->RXPL.reg = config->receive_pulse_length;
     c0a:	7eb3      	ldrb	r3, [r6, #26]
     c0c:	4641      	mov	r1, r8
     c0e:	738b      	strb	r3, [r1, #14]
{
	/* Sanity check arguments */
	Assert(module);
	Assert(module->hw);

	SercomUsart *const usart_hw = &(module->hw->USART);
     c10:	682a      	ldr	r2, [r5, #0]
     c12:	9f03      	ldr	r7, [sp, #12]

#ifdef FEATURE_USART_SYNC_SCHEME_V2
	return (usart_hw->SYNCBUSY.reg);
     c14:	69d3      	ldr	r3, [r2, #28]
		const struct usart_module *const module)
{
	/* Sanity check */
	Assert(module);

	while (usart_is_syncing(module)) {
     c16:	2b00      	cmp	r3, #0
     c18:	d1fc      	bne.n	c14 <usart_init+0x180>
     c1a:	9703      	str	r7, [sp, #12]

	/* Wait until synchronization is complete */
	_usart_wait_for_sync(module);

	/*Set baud val */
	usart_hw->BAUD.reg = baud;
     c1c:	466b      	mov	r3, sp
     c1e:	332e      	adds	r3, #46	; 0x2e
     c20:	881b      	ldrh	r3, [r3, #0]
     c22:	4642      	mov	r2, r8
     c24:	8193      	strh	r3, [r2, #12]
			break;
	}
#endif

	/* Set data order, internal muxing, and clock polarity */
	ctrla = (uint32_t)config->data_order |
     c26:	9b05      	ldr	r3, [sp, #20]
     c28:	9f04      	ldr	r7, [sp, #16]
     c2a:	433b      	orrs	r3, r7
		(uint32_t)config->mux_setting |
     c2c:	9f06      	ldr	r7, [sp, #24]
     c2e:	433b      	orrs	r3, r7
	#ifdef FEATURE_USART_OVER_SAMPLE
		config->sample_adjustment |
     c30:	4649      	mov	r1, r9
     c32:	430b      	orrs	r3, r1
		config->sample_rate |
     c34:	9f03      	ldr	r7, [sp, #12]
     c36:	431f      	orrs	r7, r3
	#endif
	#ifdef FEATURE_USART_IMMEDIATE_BUFFER_OVERFLOW_NOTIFICATION
		(config->immediate_buffer_overflow_notification << SERCOM_USART_CTRLA_IBON_Pos) |
     c38:	4652      	mov	r2, sl
     c3a:	0213      	lsls	r3, r2, #8
			break;
	}
#endif

	/* Set data order, internal muxing, and clock polarity */
	ctrla = (uint32_t)config->data_order |
     c3c:	431f      	orrs	r7, r3
		config->sample_rate |
	#endif
	#ifdef FEATURE_USART_IMMEDIATE_BUFFER_OVERFLOW_NOTIFICATION
		(config->immediate_buffer_overflow_notification << SERCOM_USART_CTRLA_IBON_Pos) |
	#endif
		(config->clock_polarity_inverted << SERCOM_USART_CTRLA_CPOL_Pos);
     c3e:	4659      	mov	r1, fp
     c40:	074b      	lsls	r3, r1, #29

	/*Set baud val */
	usart_hw->BAUD.reg = baud;

	/* Set sample mode */
	ctrla |= transfer_mode;
     c42:	431f      	orrs	r7, r3

	if (config->use_external_clock == false) {
     c44:	2327      	movs	r3, #39	; 0x27
     c46:	5cf3      	ldrb	r3, [r6, r3]
     c48:	2b00      	cmp	r3, #0
     c4a:	d101      	bne.n	c50 <usart_init+0x1bc>
		ctrla |= SERCOM_USART_CTRLA_MODE(0x1);
     c4c:	2304      	movs	r3, #4
     c4e:	431f      	orrs	r7, r3
	ctrlb =  
		#ifdef FEATURE_USART_IRDA
			(config->encoding_format_enable << SERCOM_USART_CTRLB_ENC_Pos) |
		#endif
		#ifdef FEATURE_USART_START_FRAME_DECTION
			(config->start_frame_detection_enable << SERCOM_USART_CTRLB_SFDE_Pos) |
     c50:	7f31      	ldrb	r1, [r6, #28]
     c52:	0249      	lsls	r1, r1, #9
	}

	/* Set stopbits and enable transceivers */
	ctrlb =  
		#ifdef FEATURE_USART_IRDA
			(config->encoding_format_enable << SERCOM_USART_CTRLB_ENC_Pos) |
     c54:	7e73      	ldrb	r3, [r6, #25]
     c56:	029b      	lsls	r3, r3, #10
     c58:	4319      	orrs	r1, r3
		#endif
		#ifdef FEATURE_USART_START_FRAME_DECTION
			(config->start_frame_detection_enable << SERCOM_USART_CTRLB_SFDE_Pos) |
		#endif
		#ifdef FEATURE_USART_COLLISION_DECTION
			(config->collision_detection_enable << SERCOM_USART_CTRLB_COLDEN_Pos) |
     c5a:	7f73      	ldrb	r3, [r6, #29]
     c5c:	021b      	lsls	r3, r3, #8
	ctrlb =  
		#ifdef FEATURE_USART_IRDA
			(config->encoding_format_enable << SERCOM_USART_CTRLB_ENC_Pos) |
		#endif
		#ifdef FEATURE_USART_START_FRAME_DECTION
			(config->start_frame_detection_enable << SERCOM_USART_CTRLB_SFDE_Pos) |
     c5e:	4319      	orrs	r1, r3
		#endif
		#ifdef FEATURE_USART_COLLISION_DECTION
			(config->collision_detection_enable << SERCOM_USART_CTRLB_COLDEN_Pos) |
		#endif
			(config->receiver_enable << SERCOM_USART_CTRLB_RXEN_Pos) |
     c60:	2324      	movs	r3, #36	; 0x24
     c62:	5cf3      	ldrb	r3, [r6, r3]
     c64:	045b      	lsls	r3, r3, #17
		#endif
		#ifdef FEATURE_USART_START_FRAME_DECTION
			(config->start_frame_detection_enable << SERCOM_USART_CTRLB_SFDE_Pos) |
		#endif
		#ifdef FEATURE_USART_COLLISION_DECTION
			(config->collision_detection_enable << SERCOM_USART_CTRLB_COLDEN_Pos) |
     c66:	4319      	orrs	r1, r3
		#endif
			(config->receiver_enable << SERCOM_USART_CTRLB_RXEN_Pos) |
			(config->transmitter_enable << SERCOM_USART_CTRLB_TXEN_Pos);
     c68:	2325      	movs	r3, #37	; 0x25
     c6a:	5cf3      	ldrb	r3, [r6, r3]
     c6c:	041b      	lsls	r3, r3, #16
			(config->start_frame_detection_enable << SERCOM_USART_CTRLB_SFDE_Pos) |
		#endif
		#ifdef FEATURE_USART_COLLISION_DECTION
			(config->collision_detection_enable << SERCOM_USART_CTRLB_COLDEN_Pos) |
		#endif
			(config->receiver_enable << SERCOM_USART_CTRLB_RXEN_Pos) |
     c6e:	4319      	orrs	r1, r3
				ctrlb |= USART_STOPBITS_1;
				break;		
		}
	} else {
#endif
	ctrlb |= (uint32_t)config->character_size;
     c70:	7af3      	ldrb	r3, [r6, #11]
     c72:	4319      	orrs	r1, r3
	/* Check parity mode bits */
	if (config->parity != USART_PARITY_NONE) {
     c74:	8933      	ldrh	r3, [r6, #8]
     c76:	2bff      	cmp	r3, #255	; 0xff
     c78:	d004      	beq.n	c84 <usart_init+0x1f0>
		ctrla |= SERCOM_USART_CTRLA_FORM(1);
     c7a:	2280      	movs	r2, #128	; 0x80
     c7c:	0452      	lsls	r2, r2, #17
     c7e:	4317      	orrs	r7, r2
		ctrlb |= config->parity;
     c80:	4319      	orrs	r1, r3
     c82:	e005      	b.n	c90 <usart_init+0x1fc>
	} else {
#ifdef FEATURE_USART_LIN_SLAVE
		if(config->lin_slave_enable) {
     c84:	7ef3      	ldrb	r3, [r6, #27]
     c86:	2b00      	cmp	r3, #0
     c88:	d002      	beq.n	c90 <usart_init+0x1fc>
			ctrla |= SERCOM_USART_CTRLA_FORM(0x4);
     c8a:	2380      	movs	r3, #128	; 0x80
     c8c:	04db      	lsls	r3, r3, #19
     c8e:	431f      	orrs	r7, r3
		ctrla |= config->lin_node;
	}
#endif

	/* Set whether module should run in standby. */
	if (config->run_in_standby || system_is_debugger_present()) {
     c90:	232c      	movs	r3, #44	; 0x2c
     c92:	5cf3      	ldrb	r3, [r6, r3]
     c94:	2b00      	cmp	r3, #0
     c96:	d103      	bne.n	ca0 <usart_init+0x20c>
 * \retval false Debugger is not connected to the system
 *
 */
static inline bool system_is_debugger_present(void)
{
	return DSU->STATUSB.reg & DSU_STATUSB_DBGPRES;
     c98:	4b36      	ldr	r3, [pc, #216]	; (d74 <usart_init+0x2e0>)
     c9a:	789b      	ldrb	r3, [r3, #2]
     c9c:	079a      	lsls	r2, r3, #30
     c9e:	d501      	bpl.n	ca4 <usart_init+0x210>
		ctrla |= SERCOM_USART_CTRLA_RUNSTDBY;
     ca0:	2380      	movs	r3, #128	; 0x80
     ca2:	431f      	orrs	r7, r3
{
	/* Sanity check arguments */
	Assert(module);
	Assert(module->hw);

	SercomUsart *const usart_hw = &(module->hw->USART);
     ca4:	682a      	ldr	r2, [r5, #0]

#ifdef FEATURE_USART_SYNC_SCHEME_V2
	return (usart_hw->SYNCBUSY.reg);
     ca6:	69d3      	ldr	r3, [r2, #28]
		const struct usart_module *const module)
{
	/* Sanity check */
	Assert(module);

	while (usart_is_syncing(module)) {
     ca8:	2b00      	cmp	r3, #0
     caa:	d1fc      	bne.n	ca6 <usart_init+0x212>

	/* Wait until synchronization is complete */
	_usart_wait_for_sync(module);

	/* Write configuration to CTRLB */
	usart_hw->CTRLB.reg = ctrlb;
     cac:	4643      	mov	r3, r8
     cae:	6059      	str	r1, [r3, #4]
{
	/* Sanity check arguments */
	Assert(module);
	Assert(module->hw);

	SercomUsart *const usart_hw = &(module->hw->USART);
     cb0:	682a      	ldr	r2, [r5, #0]

#ifdef FEATURE_USART_SYNC_SCHEME_V2
	return (usart_hw->SYNCBUSY.reg);
     cb2:	69d3      	ldr	r3, [r2, #28]
		const struct usart_module *const module)
{
	/* Sanity check */
	Assert(module);

	while (usart_is_syncing(module)) {
     cb4:	2b00      	cmp	r3, #0
     cb6:	d1fc      	bne.n	cb2 <usart_init+0x21e>

	/* Wait until synchronization is complete */
	_usart_wait_for_sync(module);

	/* Write configuration to CTRLA */
	usart_hw->CTRLA.reg = ctrla;
     cb8:	4641      	mov	r1, r8
     cba:	600f      	str	r7, [r1, #0]
{
	/* Sanity check arguments */
	Assert(config);

	/* Default configuration values */
	config->mux_position = SYSTEM_PINMUX_GPIO;
     cbc:	ab10      	add	r3, sp, #64	; 0x40
     cbe:	2280      	movs	r2, #128	; 0x80
     cc0:	701a      	strb	r2, [r3, #0]
	config->direction    = SYSTEM_PINMUX_PIN_DIR_INPUT;
     cc2:	2200      	movs	r2, #0
     cc4:	705a      	strb	r2, [r3, #1]
	config->input_pull   = SYSTEM_PINMUX_PIN_PULL_UP;
	config->powersave    = false;
     cc6:	70da      	strb	r2, [r3, #3]
	}

	struct system_pinmux_config pin_conf;
	system_pinmux_get_config_defaults(&pin_conf);
	pin_conf.direction = SYSTEM_PINMUX_PIN_DIR_INPUT;
	pin_conf.input_pull = SYSTEM_PINMUX_PIN_PULL_NONE;
     cc8:	709a      	strb	r2, [r3, #2]

	uint32_t pad_pinmuxes[] = {
     cca:	6b32      	ldr	r2, [r6, #48]	; 0x30
     ccc:	920c      	str	r2, [sp, #48]	; 0x30
     cce:	6b73      	ldr	r3, [r6, #52]	; 0x34
     cd0:	930d      	str	r3, [sp, #52]	; 0x34
     cd2:	6bb7      	ldr	r7, [r6, #56]	; 0x38
     cd4:	970e      	str	r7, [sp, #56]	; 0x38
     cd6:	6bf6      	ldr	r6, [r6, #60]	; 0x3c
     cd8:	960f      	str	r6, [sp, #60]	; 0x3c
     cda:	2700      	movs	r7, #0
		if (current_pinmux == PINMUX_DEFAULT) {
			current_pinmux = _sercom_get_default_pad(hw, pad);
		}

		if (current_pinmux != PINMUX_UNUSED) {
			pin_conf.mux_position = current_pinmux & 0xFFFF;
     cdc:	ae10      	add	r6, sp, #64	; 0x40
     cde:	b2f9      	uxtb	r1, r7
     ce0:	00bb      	lsls	r3, r7, #2
			config->pinmux_pad2, config->pinmux_pad3
		};

	/* Configure the SERCOM pins according to the user configuration */
	for (uint8_t pad = 0; pad < 4; pad++) {
		uint32_t current_pinmux = pad_pinmuxes[pad];
     ce2:	aa0c      	add	r2, sp, #48	; 0x30
     ce4:	5898      	ldr	r0, [r3, r2]

		if (current_pinmux == PINMUX_DEFAULT) {
     ce6:	2800      	cmp	r0, #0
     ce8:	d102      	bne.n	cf0 <usart_init+0x25c>
			current_pinmux = _sercom_get_default_pad(hw, pad);
     cea:	1c20      	adds	r0, r4, #0
     cec:	4a22      	ldr	r2, [pc, #136]	; (d78 <usart_init+0x2e4>)
     cee:	4790      	blx	r2
		}

		if (current_pinmux != PINMUX_UNUSED) {
     cf0:	1c43      	adds	r3, r0, #1
     cf2:	d005      	beq.n	d00 <usart_init+0x26c>
			pin_conf.mux_position = current_pinmux & 0xFFFF;
     cf4:	7030      	strb	r0, [r6, #0]
			system_pinmux_pin_set_config(current_pinmux >> 16, &pin_conf);
     cf6:	0c00      	lsrs	r0, r0, #16
     cf8:	b2c0      	uxtb	r0, r0
     cfa:	1c31      	adds	r1, r6, #0
     cfc:	4a1f      	ldr	r2, [pc, #124]	; (d7c <usart_init+0x2e8>)
     cfe:	4790      	blx	r2
     d00:	3701      	adds	r7, #1
			config->pinmux_pad0, config->pinmux_pad1,
			config->pinmux_pad2, config->pinmux_pad3
		};

	/* Configure the SERCOM pins according to the user configuration */
	for (uint8_t pad = 0; pad < 4; pad++) {
     d02:	2f04      	cmp	r7, #4
     d04:	d1eb      	bne.n	cde <usart_init+0x24a>
	}

#if USART_CALLBACK_MODE == true
	/* Initialize parameters */
	for (uint32_t i = 0; i < USART_CALLBACK_N; i++) {
		module->callback[i]            = NULL;
     d06:	2300      	movs	r3, #0
     d08:	60eb      	str	r3, [r5, #12]
     d0a:	612b      	str	r3, [r5, #16]
     d0c:	616b      	str	r3, [r5, #20]
     d0e:	61ab      	str	r3, [r5, #24]
     d10:	61eb      	str	r3, [r5, #28]
     d12:	622b      	str	r3, [r5, #32]
	}

	module->tx_buffer_ptr              = NULL;
     d14:	62ab      	str	r3, [r5, #40]	; 0x28
	module->rx_buffer_ptr              = NULL;
     d16:	626b      	str	r3, [r5, #36]	; 0x24
	module->remaining_tx_buffer_length = 0x0000;
     d18:	2200      	movs	r2, #0
     d1a:	85eb      	strh	r3, [r5, #46]	; 0x2e
	module->remaining_rx_buffer_length = 0x0000;
     d1c:	85ab      	strh	r3, [r5, #44]	; 0x2c
	module->callback_reg_mask          = 0x00;
     d1e:	2330      	movs	r3, #48	; 0x30
     d20:	54ea      	strb	r2, [r5, r3]
	module->callback_enable_mask       = 0x00;
     d22:	2331      	movs	r3, #49	; 0x31
     d24:	54ea      	strb	r2, [r5, r3]
	module->rx_status                  = STATUS_OK;
     d26:	2332      	movs	r3, #50	; 0x32
     d28:	54ea      	strb	r2, [r5, r3]
	module->tx_status                  = STATUS_OK;
     d2a:	2333      	movs	r3, #51	; 0x33
     d2c:	54ea      	strb	r2, [r5, r3]

	/* Set interrupt handler and register USART software module struct in
	 * look-up table */
	uint8_t instance_index = _sercom_get_sercom_inst_index(module->hw);
     d2e:	6828      	ldr	r0, [r5, #0]
     d30:	4b08      	ldr	r3, [pc, #32]	; (d54 <usart_init+0x2c0>)
     d32:	4798      	blx	r3
     d34:	1c04      	adds	r4, r0, #0
	_sercom_set_handler(instance_index, _usart_interrupt_handler);
     d36:	4912      	ldr	r1, [pc, #72]	; (d80 <usart_init+0x2ec>)
     d38:	4b12      	ldr	r3, [pc, #72]	; (d84 <usart_init+0x2f0>)
     d3a:	4798      	blx	r3
	_sercom_instances[instance_index] = module;
     d3c:	00a4      	lsls	r4, r4, #2
     d3e:	4b12      	ldr	r3, [pc, #72]	; (d88 <usart_init+0x2f4>)
     d40:	50e5      	str	r5, [r4, r3]
#endif

	return status_code;
     d42:	2000      	movs	r0, #0
}
     d44:	b013      	add	sp, #76	; 0x4c
     d46:	bc3c      	pop	{r2, r3, r4, r5}
     d48:	4690      	mov	r8, r2
     d4a:	4699      	mov	r9, r3
     d4c:	46a2      	mov	sl, r4
     d4e:	46ab      	mov	fp, r5
     d50:	bdf0      	pop	{r4, r5, r6, r7, pc}
     d52:	46c0      	nop			; (mov r8, r8)
     d54:	000006c9 	.word	0x000006c9
     d58:	40000400 	.word	0x40000400
     d5c:	00004f7d 	.word	0x00004f7d
     d60:	00004ef1 	.word	0x00004ef1
     d64:	00000571 	.word	0x00000571
     d68:	00004f99 	.word	0x00004f99
     d6c:	00000395 	.word	0x00000395
     d70:	000003c1 	.word	0x000003c1
     d74:	41002000 	.word	0x41002000
     d78:	000005c1 	.word	0x000005c1
     d7c:	00005115 	.word	0x00005115
     d80:	00000e91 	.word	0x00000e91
     d84:	000009ed 	.word	0x000009ed
     d88:	20001708 	.word	0x20001708

00000d8c <_usart_write_buffer>:
 */
enum status_code _usart_write_buffer(
		struct usart_module *const module,
		uint8_t *tx_data,
		uint16_t length)
{
     d8c:	b5f8      	push	{r3, r4, r5, r6, r7, lr}
     d8e:	1c04      	adds	r4, r0, #0
     d90:	1c0e      	adds	r6, r1, #0
     d92:	1c17      	adds	r7, r2, #0
	Assert(module);
	Assert(module->hw);
	Assert(tx_data);

	/* Get a pointer to the hardware module instance */
	SercomUsart *const usart_hw = &(module->hw->USART);
     d94:	6805      	ldr	r5, [r0, #0]
 * are only re-enabled upon leaving the outermost nested critical section.
 *
 */
static inline void system_interrupt_enter_critical_section(void)
{
	cpu_irq_enter_critical();
     d96:	4b0a      	ldr	r3, [pc, #40]	; (dc0 <_usart_write_buffer+0x34>)
     d98:	4798      	blx	r3

	system_interrupt_enter_critical_section();

	/* Check if the USART transmitter is busy */
	if (module->remaining_tx_buffer_length > 0) {
     d9a:	8de3      	ldrh	r3, [r4, #46]	; 0x2e
     d9c:	b29b      	uxth	r3, r3
     d9e:	2b00      	cmp	r3, #0
     da0:	d003      	beq.n	daa <_usart_write_buffer+0x1e>
 * are only re-enabled upon leaving the outermost nested critical section.
 *
 */
static inline void system_interrupt_leave_critical_section(void)
{
	cpu_irq_leave_critical();
     da2:	4b08      	ldr	r3, [pc, #32]	; (dc4 <_usart_write_buffer+0x38>)
     da4:	4798      	blx	r3
		system_interrupt_leave_critical_section();
		return STATUS_BUSY;
     da6:	2005      	movs	r0, #5
     da8:	e009      	b.n	dbe <_usart_write_buffer+0x32>
	}

	/* Write parameters to the device instance */
	module->remaining_tx_buffer_length = length;
     daa:	85e7      	strh	r7, [r4, #46]	; 0x2e
     dac:	4b05      	ldr	r3, [pc, #20]	; (dc4 <_usart_write_buffer+0x38>)
     dae:	4798      	blx	r3

	system_interrupt_leave_critical_section();

	module->tx_buffer_ptr              = tx_data;
     db0:	62a6      	str	r6, [r4, #40]	; 0x28
	module->tx_status                  = STATUS_BUSY;
     db2:	2205      	movs	r2, #5
     db4:	2333      	movs	r3, #51	; 0x33
     db6:	54e2      	strb	r2, [r4, r3]

	/* Enable the Data Register Empty Interrupt */
	usart_hw->INTENSET.reg = SERCOM_USART_INTFLAG_DRE;
     db8:	2301      	movs	r3, #1
     dba:	75ab      	strb	r3, [r5, #22]

	return STATUS_OK;
     dbc:	2000      	movs	r0, #0
}
     dbe:	bdf8      	pop	{r3, r4, r5, r6, r7, pc}
     dc0:	00004ffd 	.word	0x00004ffd
     dc4:	00005039 	.word	0x00005039

00000dc8 <_usart_read_buffer>:
 */
enum status_code _usart_read_buffer(
		struct usart_module *const module,
		uint8_t *rx_data,
		uint16_t length)
{
     dc8:	b5f8      	push	{r3, r4, r5, r6, r7, lr}
     dca:	1c04      	adds	r4, r0, #0
     dcc:	1c0e      	adds	r6, r1, #0
     dce:	1c17      	adds	r7, r2, #0
	Assert(module);
	Assert(module->hw);
	Assert(rx_data);

	/* Get a pointer to the hardware module instance */
	SercomUsart *const usart_hw = &(module->hw->USART);
     dd0:	6805      	ldr	r5, [r0, #0]
 * are only re-enabled upon leaving the outermost nested critical section.
 *
 */
static inline void system_interrupt_enter_critical_section(void)
{
	cpu_irq_enter_critical();
     dd2:	4b0f      	ldr	r3, [pc, #60]	; (e10 <_usart_read_buffer+0x48>)
     dd4:	4798      	blx	r3

	system_interrupt_enter_critical_section();

	/* Check if the USART receiver is busy */
	if (module->remaining_rx_buffer_length > 0) {
     dd6:	8da3      	ldrh	r3, [r4, #44]	; 0x2c
     dd8:	b29b      	uxth	r3, r3
     dda:	2b00      	cmp	r3, #0
     ddc:	d003      	beq.n	de6 <_usart_read_buffer+0x1e>
 * are only re-enabled upon leaving the outermost nested critical section.
 *
 */
static inline void system_interrupt_leave_critical_section(void)
{
	cpu_irq_leave_critical();
     dde:	4b0d      	ldr	r3, [pc, #52]	; (e14 <_usart_read_buffer+0x4c>)
     de0:	4798      	blx	r3
		system_interrupt_leave_critical_section();
		return STATUS_BUSY;
     de2:	2005      	movs	r0, #5
     de4:	e013      	b.n	e0e <_usart_read_buffer+0x46>
	}

	/* Set length for the buffer and the pointer, and let
	 * the interrupt handler do the rest */
	module->remaining_rx_buffer_length = length;
     de6:	85a7      	strh	r7, [r4, #44]	; 0x2c
     de8:	4b0a      	ldr	r3, [pc, #40]	; (e14 <_usart_read_buffer+0x4c>)
     dea:	4798      	blx	r3

	system_interrupt_leave_critical_section();

	module->rx_buffer_ptr              = rx_data;
     dec:	6266      	str	r6, [r4, #36]	; 0x24
	module->rx_status                  = STATUS_BUSY;
     dee:	2205      	movs	r2, #5
     df0:	2332      	movs	r3, #50	; 0x32
     df2:	54e2      	strb	r2, [r4, r3]

	/* Enable the RX Complete Interrupt */
	usart_hw->INTENSET.reg = SERCOM_USART_INTFLAG_RXC;
     df4:	2304      	movs	r3, #4
     df6:	75ab      	strb	r3, [r5, #22]

#ifdef FEATURE_USART_LIN_SLAVE
	/* Enable the break character is received Interrupt */
	if(module->lin_slave_enabled) {
     df8:	7a23      	ldrb	r3, [r4, #8]
     dfa:	2b00      	cmp	r3, #0
     dfc:	d001      	beq.n	e02 <_usart_read_buffer+0x3a>
		usart_hw->INTENSET.reg = SERCOM_USART_INTFLAG_RXBRK;
     dfe:	2320      	movs	r3, #32
     e00:	75ab      	strb	r3, [r5, #22]
	}
#endif

#ifdef FEATURE_USART_START_FRAME_DECTION
	/* Enable a start condition is detected Interrupt */
	if(module->start_frame_detection_enabled) {
     e02:	7a63      	ldrb	r3, [r4, #9]
		usart_hw->INTENSET.reg = SERCOM_USART_INTFLAG_RXS;
	}
#endif

	return STATUS_OK;
     e04:	2000      	movs	r0, #0
	}
#endif

#ifdef FEATURE_USART_START_FRAME_DECTION
	/* Enable a start condition is detected Interrupt */
	if(module->start_frame_detection_enabled) {
     e06:	2b00      	cmp	r3, #0
     e08:	d001      	beq.n	e0e <_usart_read_buffer+0x46>
		usart_hw->INTENSET.reg = SERCOM_USART_INTFLAG_RXS;
     e0a:	2308      	movs	r3, #8
     e0c:	75ab      	strb	r3, [r5, #22]
	}
#endif

	return STATUS_OK;
}
     e0e:	bdf8      	pop	{r3, r4, r5, r6, r7, pc}
     e10:	00004ffd 	.word	0x00004ffd
     e14:	00005039 	.word	0x00005039

00000e18 <usart_register_callback>:
	/* Sanity check arguments */
	Assert(module);
	Assert(callback_func);

	/* Register callback function */
	module->callback[callback_type] = callback_func;
     e18:	1c93      	adds	r3, r2, #2
     e1a:	009b      	lsls	r3, r3, #2
     e1c:	18c3      	adds	r3, r0, r3
     e1e:	6059      	str	r1, [r3, #4]

	/* Set the bit corresponding to the callback_type */
	module->callback_reg_mask |= (1 << callback_type);
     e20:	2301      	movs	r3, #1
     e22:	4093      	lsls	r3, r2
     e24:	1c1a      	adds	r2, r3, #0
     e26:	2330      	movs	r3, #48	; 0x30
     e28:	5cc1      	ldrb	r1, [r0, r3]
     e2a:	430a      	orrs	r2, r1
     e2c:	54c2      	strb	r2, [r0, r3]
}
     e2e:	4770      	bx	lr

00000e30 <usart_write_buffer_job>:
 */
enum status_code usart_write_buffer_job(
		struct usart_module *const module,
		uint8_t *tx_data,
		uint16_t length)
{
     e30:	b510      	push	{r4, lr}
	/* Sanity check arguments */
	Assert(module);
	Assert(tx_data);

	if (length == 0) {
		return STATUS_ERR_INVALID_ARG;
     e32:	2317      	movs	r3, #23
{
	/* Sanity check arguments */
	Assert(module);
	Assert(tx_data);

	if (length == 0) {
     e34:	2a00      	cmp	r2, #0
     e36:	d006      	beq.n	e46 <usart_write_buffer_job+0x16>
		return STATUS_ERR_INVALID_ARG;
	}

	/* Check that the receiver is enabled */
	if (!(module->transmitter_enabled)) {
     e38:	79c4      	ldrb	r4, [r0, #7]
		return STATUS_ERR_DENIED;
     e3a:	231c      	movs	r3, #28
	if (length == 0) {
		return STATUS_ERR_INVALID_ARG;
	}

	/* Check that the receiver is enabled */
	if (!(module->transmitter_enabled)) {
     e3c:	2c00      	cmp	r4, #0
     e3e:	d002      	beq.n	e46 <usart_write_buffer_job+0x16>
		return STATUS_ERR_DENIED;
	}

	/* Issue internal asynchronous write */
	return _usart_write_buffer(module, tx_data, length);
     e40:	4b02      	ldr	r3, [pc, #8]	; (e4c <usart_write_buffer_job+0x1c>)
     e42:	4798      	blx	r3
     e44:	1c03      	adds	r3, r0, #0
}
     e46:	1c18      	adds	r0, r3, #0
     e48:	bd10      	pop	{r4, pc}
     e4a:	46c0      	nop			; (mov r8, r8)
     e4c:	00000d8d 	.word	0x00000d8d

00000e50 <usart_read_buffer_job>:
 */
enum status_code usart_read_buffer_job(
		struct usart_module *const module,
		uint8_t *rx_data,
		uint16_t length)
{
     e50:	b510      	push	{r4, lr}
	/* Sanity check arguments */
	Assert(module);
	Assert(rx_data);

	if (length == 0) {
		return STATUS_ERR_INVALID_ARG;
     e52:	2317      	movs	r3, #23
{
	/* Sanity check arguments */
	Assert(module);
	Assert(rx_data);

	if (length == 0) {
     e54:	2a00      	cmp	r2, #0
     e56:	d006      	beq.n	e66 <usart_read_buffer_job+0x16>
		return STATUS_ERR_INVALID_ARG;
	}

	/* Check that the receiver is enabled */
	if (!(module->receiver_enabled)) {
     e58:	7984      	ldrb	r4, [r0, #6]
		return STATUS_ERR_DENIED;
     e5a:	231c      	movs	r3, #28
	if (length == 0) {
		return STATUS_ERR_INVALID_ARG;
	}

	/* Check that the receiver is enabled */
	if (!(module->receiver_enabled)) {
     e5c:	2c00      	cmp	r4, #0
     e5e:	d002      	beq.n	e66 <usart_read_buffer_job+0x16>
		return STATUS_ERR_DENIED;
	}

	/* Issue internal asynchronous read */
	return _usart_read_buffer(module, rx_data, length);
     e60:	4b02      	ldr	r3, [pc, #8]	; (e6c <usart_read_buffer_job+0x1c>)
     e62:	4798      	blx	r3
     e64:	1c03      	adds	r3, r0, #0
}
     e66:	1c18      	adds	r0, r3, #0
     e68:	bd10      	pop	{r4, pc}
     e6a:	46c0      	nop			; (mov r8, r8)
     e6c:	00000dc9 	.word	0x00000dc9

00000e70 <usart_abort_job>:
	/* Sanity check arguments */
	Assert(module);
	Assert(module->hw);

	/* Get a pointer to the hardware module instance */
	SercomUsart *const usart_hw = &(module->hw->USART);
     e70:	6803      	ldr	r3, [r0, #0]

	switch(transceiver_type) {
     e72:	2900      	cmp	r1, #0
     e74:	d002      	beq.n	e7c <usart_abort_job+0xc>
     e76:	2901      	cmp	r1, #1
     e78:	d005      	beq.n	e86 <usart_abort_job+0x16>
     e7a:	e008      	b.n	e8e <usart_abort_job+0x1e>
		case USART_TRANSCEIVER_RX:
			/* Clear the interrupt flag in order to prevent the receive
			 * complete callback to fire */
			usart_hw->INTFLAG.reg = SERCOM_USART_INTFLAG_RXC;
     e7c:	2204      	movs	r2, #4
     e7e:	761a      	strb	r2, [r3, #24]

			/* Clear the software reception buffer */
			module->remaining_rx_buffer_length = 0;
     e80:	2300      	movs	r3, #0
     e82:	8583      	strh	r3, [r0, #44]	; 0x2c

			break;
     e84:	e003      	b.n	e8e <usart_abort_job+0x1e>

		case USART_TRANSCEIVER_TX:
			/* Clear the interrupt flag in order to prevent the receive
			 * complete callback to fire */
			usart_hw->INTFLAG.reg = SERCOM_USART_INTFLAG_TXC;
     e86:	2202      	movs	r2, #2
     e88:	761a      	strb	r2, [r3, #24]

			/* Clear the software reception buffer */
			module->remaining_tx_buffer_length = 0;
     e8a:	2300      	movs	r3, #0
     e8c:	85c3      	strh	r3, [r0, #46]	; 0x2e

			break;
	}
}
     e8e:	4770      	bx	lr

00000e90 <_usart_interrupt_handler>:
 * \param[in]  instance  ID of the SERCOM instance calling the interrupt
 *                       handler.
 */
void _usart_interrupt_handler(
		uint8_t instance)
{
     e90:	b5f8      	push	{r3, r4, r5, r6, r7, lr}
	uint16_t callback_status;
	uint8_t error_code;


	/* Get device instance from the look-up table */
	struct usart_module *module
     e92:	0080      	lsls	r0, r0, #2
     e94:	4b64      	ldr	r3, [pc, #400]	; (1028 <_usart_interrupt_handler+0x198>)
     e96:	58c5      	ldr	r5, [r0, r3]
		= (struct usart_module *)_sercom_instances[instance];

	/* Pointer to the hardware module instance */
	SercomUsart *const usart_hw
		= &(module->hw->USART);
     e98:	682c      	ldr	r4, [r5, #0]
	Assert(module->hw);

	SercomUsart *const usart_hw = &(module->hw->USART);

#ifdef FEATURE_USART_SYNC_SCHEME_V2
	return (usart_hw->SYNCBUSY.reg);
     e9a:	69e3      	ldr	r3, [r4, #28]
		const struct usart_module *const module)
{
	/* Sanity check */
	Assert(module);

	while (usart_is_syncing(module)) {
     e9c:	2b00      	cmp	r3, #0
     e9e:	d1fc      	bne.n	e9a <_usart_interrupt_handler+0xa>

	/* Wait for the synchronization to complete */
	_usart_wait_for_sync(module);

	/* Read and mask interrupt flag register */
	interrupt_status = usart_hw->INTFLAG.reg;
     ea0:	7e23      	ldrb	r3, [r4, #24]
	interrupt_status &= usart_hw->INTENSET.reg;
     ea2:	7da6      	ldrb	r6, [r4, #22]
     ea4:	401e      	ands	r6, r3
	callback_status = module->callback_reg_mask &
			module->callback_enable_mask;
     ea6:	2331      	movs	r3, #49	; 0x31
	_usart_wait_for_sync(module);

	/* Read and mask interrupt flag register */
	interrupt_status = usart_hw->INTFLAG.reg;
	interrupt_status &= usart_hw->INTENSET.reg;
	callback_status = module->callback_reg_mask &
     ea8:	5ceb      	ldrb	r3, [r5, r3]
     eaa:	2230      	movs	r2, #48	; 0x30
     eac:	5caf      	ldrb	r7, [r5, r2]
     eae:	401f      	ands	r7, r3
			module->callback_enable_mask;

	/* Check if a DATA READY interrupt has occurred,
	 * and if there is more to transfer */
	if (interrupt_status & SERCOM_USART_INTFLAG_DRE) {
     eb0:	07f1      	lsls	r1, r6, #31
     eb2:	d520      	bpl.n	ef6 <_usart_interrupt_handler+0x66>
		if (module->remaining_tx_buffer_length) {
     eb4:	8deb      	ldrh	r3, [r5, #46]	; 0x2e
     eb6:	b29b      	uxth	r3, r3
     eb8:	2b00      	cmp	r3, #0
     eba:	d01a      	beq.n	ef2 <_usart_interrupt_handler+0x62>
			/* Write value will be at least 8-bits long */
			uint16_t data_to_send = *(module->tx_buffer_ptr);
     ebc:	6aab      	ldr	r3, [r5, #40]	; 0x28
     ebe:	781a      	ldrb	r2, [r3, #0]
     ec0:	b2d2      	uxtb	r2, r2
			/* Increment 8-bit pointer */
			(module->tx_buffer_ptr)++;
     ec2:	1c59      	adds	r1, r3, #1
     ec4:	62a9      	str	r1, [r5, #40]	; 0x28

			if (module->character_size == USART_CHARACTER_SIZE_9BIT) {
     ec6:	7969      	ldrb	r1, [r5, #5]
     ec8:	2901      	cmp	r1, #1
     eca:	d104      	bne.n	ed6 <_usart_interrupt_handler+0x46>
				data_to_send |= (*(module->tx_buffer_ptr) << 8);
     ecc:	7859      	ldrb	r1, [r3, #1]
     ece:	0209      	lsls	r1, r1, #8
     ed0:	430a      	orrs	r2, r1
				/* Increment 8-bit pointer */
				(module->tx_buffer_ptr)++;
     ed2:	3302      	adds	r3, #2
     ed4:	62ab      	str	r3, [r5, #40]	; 0x28
			}
			/* Write the data to send */
			usart_hw->DATA.reg = (data_to_send & SERCOM_USART_DATA_MASK);
     ed6:	05d3      	lsls	r3, r2, #23
     ed8:	0ddb      	lsrs	r3, r3, #23
     eda:	8523      	strh	r3, [r4, #40]	; 0x28

			if (--(module->remaining_tx_buffer_length) == 0) {
     edc:	8deb      	ldrh	r3, [r5, #46]	; 0x2e
     ede:	3b01      	subs	r3, #1
     ee0:	b29b      	uxth	r3, r3
     ee2:	85eb      	strh	r3, [r5, #46]	; 0x2e
     ee4:	2b00      	cmp	r3, #0
     ee6:	d106      	bne.n	ef6 <_usart_interrupt_handler+0x66>
				/* Disable the Data Register Empty Interrupt */
				usart_hw->INTENCLR.reg = SERCOM_USART_INTFLAG_DRE;
     ee8:	2301      	movs	r3, #1
     eea:	7523      	strb	r3, [r4, #20]
				/* Enable Transmission Complete interrupt */
				usart_hw->INTENSET.reg = SERCOM_USART_INTFLAG_TXC;
     eec:	2302      	movs	r3, #2
     eee:	75a3      	strb	r3, [r4, #22]
     ef0:	e001      	b.n	ef6 <_usart_interrupt_handler+0x66>

			}
		} else {
			usart_hw->INTENCLR.reg = SERCOM_USART_INTFLAG_DRE;
     ef2:	2301      	movs	r3, #1
     ef4:	7523      	strb	r3, [r4, #20]

	/* Check if the Transmission Complete interrupt has occurred and
	 * that the transmit buffer is empty */
	}

	if (interrupt_status & SERCOM_USART_INTFLAG_TXC) {
     ef6:	07b2      	lsls	r2, r6, #30
     ef8:	d509      	bpl.n	f0e <_usart_interrupt_handler+0x7e>

		/* Disable TX Complete Interrupt, and set STATUS_OK */
		usart_hw->INTENCLR.reg = SERCOM_USART_INTFLAG_TXC;
     efa:	2302      	movs	r3, #2
     efc:	7523      	strb	r3, [r4, #20]
		module->tx_status = STATUS_OK;
     efe:	2200      	movs	r2, #0
     f00:	2333      	movs	r3, #51	; 0x33
     f02:	54ea      	strb	r2, [r5, r3]

		/* Run callback if registered and enabled */
		if (callback_status & (1 << USART_CALLBACK_BUFFER_TRANSMITTED)) {
     f04:	07fb      	lsls	r3, r7, #31
     f06:	d502      	bpl.n	f0e <_usart_interrupt_handler+0x7e>
			(*(module->callback[USART_CALLBACK_BUFFER_TRANSMITTED]))(module);
     f08:	1c28      	adds	r0, r5, #0
     f0a:	68e9      	ldr	r1, [r5, #12]
     f0c:	4788      	blx	r1

	/* Check if the Receive Complete interrupt has occurred, and that
	 * there's more data to receive */
	}

	if (interrupt_status & SERCOM_USART_INTFLAG_RXC) {
     f0e:	0772      	lsls	r2, r6, #29
     f10:	d56a      	bpl.n	fe8 <_usart_interrupt_handler+0x158>

		if (module->remaining_rx_buffer_length) {
     f12:	8dab      	ldrh	r3, [r5, #44]	; 0x2c
     f14:	b29b      	uxth	r3, r3
     f16:	2b00      	cmp	r3, #0
     f18:	d064      	beq.n	fe4 <_usart_interrupt_handler+0x154>
			/* Read out the status code and mask away all but the 4 LSBs*/
			error_code = (uint8_t)(usart_hw->STATUS.reg & SERCOM_USART_STATUS_MASK);
     f1a:	8b63      	ldrh	r3, [r4, #26]
     f1c:	b2db      	uxtb	r3, r3
#if !SAMD20
			/* CTS status should not be considered as an error */
			if(error_code & SERCOM_USART_STATUS_CTS) {
     f1e:	0719      	lsls	r1, r3, #28
     f20:	d402      	bmi.n	f28 <_usart_interrupt_handler+0x98>

	if (interrupt_status & SERCOM_USART_INTFLAG_RXC) {

		if (module->remaining_rx_buffer_length) {
			/* Read out the status code and mask away all but the 4 LSBs*/
			error_code = (uint8_t)(usart_hw->STATUS.reg & SERCOM_USART_STATUS_MASK);
     f22:	223f      	movs	r2, #63	; 0x3f
     f24:	4013      	ands	r3, r2
     f26:	e001      	b.n	f2c <_usart_interrupt_handler+0x9c>
#if !SAMD20
			/* CTS status should not be considered as an error */
			if(error_code & SERCOM_USART_STATUS_CTS) {
				error_code &= ~SERCOM_USART_STATUS_CTS;
     f28:	2237      	movs	r2, #55	; 0x37
     f2a:	4013      	ands	r3, r2
			if(error_code & SERCOM_USART_STATUS_TXE) {
				error_code &= ~SERCOM_USART_STATUS_TXE;
			}
#endif
			/* Check if an error has occurred during the receiving */
			if (error_code) {
     f2c:	2b00      	cmp	r3, #0
     f2e:	d037      	beq.n	fa0 <_usart_interrupt_handler+0x110>
				/* Check which error occurred */
				if (error_code & SERCOM_USART_STATUS_FERR) {
     f30:	079a      	lsls	r2, r3, #30
     f32:	d507      	bpl.n	f44 <_usart_interrupt_handler+0xb4>
					/* Store the error code and clear flag by writing 1 to it */
					module->rx_status = STATUS_ERR_BAD_FORMAT;
     f34:	221a      	movs	r2, #26
     f36:	2332      	movs	r3, #50	; 0x32
     f38:	54ea      	strb	r2, [r5, r3]
					usart_hw->STATUS.reg |= SERCOM_USART_STATUS_FERR;
     f3a:	8b62      	ldrh	r2, [r4, #26]
     f3c:	2302      	movs	r3, #2
     f3e:	4313      	orrs	r3, r2
     f40:	8363      	strh	r3, [r4, #26]
     f42:	e027      	b.n	f94 <_usart_interrupt_handler+0x104>
				} else if (error_code & SERCOM_USART_STATUS_BUFOVF) {
     f44:	0759      	lsls	r1, r3, #29
     f46:	d507      	bpl.n	f58 <_usart_interrupt_handler+0xc8>
					/* Store the error code and clear flag by writing 1 to it */
					module->rx_status = STATUS_ERR_OVERFLOW;
     f48:	221e      	movs	r2, #30
     f4a:	2332      	movs	r3, #50	; 0x32
     f4c:	54ea      	strb	r2, [r5, r3]
					usart_hw->STATUS.reg |= SERCOM_USART_STATUS_BUFOVF;
     f4e:	8b62      	ldrh	r2, [r4, #26]
     f50:	2304      	movs	r3, #4
     f52:	4313      	orrs	r3, r2
     f54:	8363      	strh	r3, [r4, #26]
     f56:	e01d      	b.n	f94 <_usart_interrupt_handler+0x104>
				} else if (error_code & SERCOM_USART_STATUS_PERR) {
     f58:	07da      	lsls	r2, r3, #31
     f5a:	d507      	bpl.n	f6c <_usart_interrupt_handler+0xdc>
					/* Store the error code and clear flag by writing 1 to it */
					module->rx_status = STATUS_ERR_BAD_DATA;
     f5c:	2213      	movs	r2, #19
     f5e:	2332      	movs	r3, #50	; 0x32
     f60:	54ea      	strb	r2, [r5, r3]
					usart_hw->STATUS.reg |= SERCOM_USART_STATUS_PERR;
     f62:	8b62      	ldrh	r2, [r4, #26]
     f64:	2301      	movs	r3, #1
     f66:	4313      	orrs	r3, r2
     f68:	8363      	strh	r3, [r4, #26]
     f6a:	e013      	b.n	f94 <_usart_interrupt_handler+0x104>
				}
#ifdef FEATURE_USART_LIN_SLAVE
				else if (error_code & SERCOM_USART_STATUS_ISF) {
     f6c:	06d9      	lsls	r1, r3, #27
     f6e:	d507      	bpl.n	f80 <_usart_interrupt_handler+0xf0>
					/* Store the error code and clear flag by writing 1 to it */
					module->rx_status = STATUS_ERR_PROTOCOL;
     f70:	2242      	movs	r2, #66	; 0x42
     f72:	2332      	movs	r3, #50	; 0x32
     f74:	54ea      	strb	r2, [r5, r3]
					usart_hw->STATUS.reg |= SERCOM_USART_STATUS_ISF;
     f76:	8b62      	ldrh	r2, [r4, #26]
     f78:	2310      	movs	r3, #16
     f7a:	4313      	orrs	r3, r2
     f7c:	8363      	strh	r3, [r4, #26]
     f7e:	e009      	b.n	f94 <_usart_interrupt_handler+0x104>
				}
#endif
#ifdef FEATURE_USART_COLLISION_DECTION
				else if (error_code & SERCOM_USART_STATUS_COLL) {
     f80:	2220      	movs	r2, #32
     f82:	421a      	tst	r2, r3
     f84:	d006      	beq.n	f94 <_usart_interrupt_handler+0x104>
					/* Store the error code and clear flag by writing 1 to it */
					module->rx_status = STATUS_ERR_PACKET_COLLISION;
     f86:	2241      	movs	r2, #65	; 0x41
     f88:	2332      	movs	r3, #50	; 0x32
     f8a:	54ea      	strb	r2, [r5, r3]
					usart_hw->STATUS.reg |= SERCOM_USART_STATUS_COLL;
     f8c:	8b62      	ldrh	r2, [r4, #26]
     f8e:	2320      	movs	r3, #32
     f90:	4313      	orrs	r3, r2
     f92:	8363      	strh	r3, [r4, #26]
				}
#endif

				/* Run callback if registered and enabled */
				if (callback_status
     f94:	077a      	lsls	r2, r7, #29
     f96:	d527      	bpl.n	fe8 <_usart_interrupt_handler+0x158>
						& (1 << USART_CALLBACK_ERROR)) {
					(*(module->callback[USART_CALLBACK_ERROR]))(module);
     f98:	1c28      	adds	r0, r5, #0
     f9a:	696b      	ldr	r3, [r5, #20]
     f9c:	4798      	blx	r3
     f9e:	e023      	b.n	fe8 <_usart_interrupt_handler+0x158>

			} else {

				/* Read current packet from DATA register,
				 * increment buffer pointer and decrement buffer length */
				uint16_t received_data = (usart_hw->DATA.reg & SERCOM_USART_DATA_MASK);
     fa0:	8d22      	ldrh	r2, [r4, #40]	; 0x28
     fa2:	05d2      	lsls	r2, r2, #23
     fa4:	0dd2      	lsrs	r2, r2, #23

				/* Read value will be at least 8-bits long */
				*(module->rx_buffer_ptr) = received_data;
     fa6:	b2d3      	uxtb	r3, r2
     fa8:	6a69      	ldr	r1, [r5, #36]	; 0x24
     faa:	700b      	strb	r3, [r1, #0]
				/* Increment 8-bit pointer */
				module->rx_buffer_ptr += 1;
     fac:	6a6b      	ldr	r3, [r5, #36]	; 0x24
     fae:	1c59      	adds	r1, r3, #1
     fb0:	6269      	str	r1, [r5, #36]	; 0x24

				if (module->character_size == USART_CHARACTER_SIZE_9BIT) {
     fb2:	7969      	ldrb	r1, [r5, #5]
     fb4:	2901      	cmp	r1, #1
     fb6:	d104      	bne.n	fc2 <_usart_interrupt_handler+0x132>
					/* 9-bit data, write next received byte to the buffer */
					*(module->rx_buffer_ptr) = (received_data >> 8);
     fb8:	0a12      	lsrs	r2, r2, #8
     fba:	705a      	strb	r2, [r3, #1]
					/* Increment 8-bit pointer */
					module->rx_buffer_ptr += 1;
     fbc:	6a6b      	ldr	r3, [r5, #36]	; 0x24
     fbe:	3301      	adds	r3, #1
     fc0:	626b      	str	r3, [r5, #36]	; 0x24
				}

				/* Check if the last character have been received */
				if(--(module->remaining_rx_buffer_length) == 0) {
     fc2:	8dab      	ldrh	r3, [r5, #44]	; 0x2c
     fc4:	3b01      	subs	r3, #1
     fc6:	b29b      	uxth	r3, r3
     fc8:	85ab      	strh	r3, [r5, #44]	; 0x2c
     fca:	2b00      	cmp	r3, #0
     fcc:	d10c      	bne.n	fe8 <_usart_interrupt_handler+0x158>
					/* Disable RX Complete Interrupt,
					 * and set STATUS_OK */
					usart_hw->INTENCLR.reg = SERCOM_USART_INTFLAG_RXC;
     fce:	2304      	movs	r3, #4
     fd0:	7523      	strb	r3, [r4, #20]
					module->rx_status = STATUS_OK;
     fd2:	2200      	movs	r2, #0
     fd4:	2332      	movs	r3, #50	; 0x32
     fd6:	54ea      	strb	r2, [r5, r3]

					/* Run callback if registered and enabled */
					if (callback_status
     fd8:	07ba      	lsls	r2, r7, #30
     fda:	d505      	bpl.n	fe8 <_usart_interrupt_handler+0x158>
							& (1 << USART_CALLBACK_BUFFER_RECEIVED)) {
						(*(module->callback[USART_CALLBACK_BUFFER_RECEIVED]))(module);
     fdc:	1c28      	adds	r0, r5, #0
     fde:	692b      	ldr	r3, [r5, #16]
     fe0:	4798      	blx	r3
     fe2:	e001      	b.n	fe8 <_usart_interrupt_handler+0x158>
					}
				}
			}
		} else {
			/* This should not happen. Disable Receive Complete interrupt. */
			usart_hw->INTENCLR.reg = SERCOM_USART_INTFLAG_RXC;
     fe4:	2304      	movs	r3, #4
     fe6:	7523      	strb	r3, [r4, #20]
		}
	}

#ifdef FEATURE_USART_HARDWARE_FLOW_CONTROL
	if (interrupt_status & SERCOM_USART_INTFLAG_CTSIC) {
     fe8:	06f1      	lsls	r1, r6, #27
     fea:	d507      	bpl.n	ffc <_usart_interrupt_handler+0x16c>
		/* Disable interrupts */
		usart_hw->INTENCLR.reg = SERCOM_USART_INTENCLR_CTSIC;
     fec:	2310      	movs	r3, #16
     fee:	7523      	strb	r3, [r4, #20]
		/* Clear interrupt flag */
		usart_hw->INTFLAG.reg = SERCOM_USART_INTFLAG_CTSIC;
     ff0:	7623      	strb	r3, [r4, #24]

		/* Run callback if registered and enabled */
		if (callback_status & (1 << USART_CALLBACK_CTS_INPUT_CHANGE)) {
     ff2:	06fa      	lsls	r2, r7, #27
     ff4:	d502      	bpl.n	ffc <_usart_interrupt_handler+0x16c>
			(*(module->callback[USART_CALLBACK_CTS_INPUT_CHANGE]))(module);
     ff6:	1c28      	adds	r0, r5, #0
     ff8:	69eb      	ldr	r3, [r5, #28]
     ffa:	4798      	blx	r3
		}
	}
#endif

#ifdef FEATURE_USART_LIN_SLAVE
	if (interrupt_status & SERCOM_USART_INTFLAG_RXBRK) {
     ffc:	06b1      	lsls	r1, r6, #26
     ffe:	d507      	bpl.n	1010 <_usart_interrupt_handler+0x180>
		/* Disable interrupts */
		usart_hw->INTENCLR.reg = SERCOM_USART_INTENCLR_RXBRK;
    1000:	2320      	movs	r3, #32
    1002:	7523      	strb	r3, [r4, #20]
		/* Clear interrupt flag */
		usart_hw->INTFLAG.reg = SERCOM_USART_INTFLAG_RXBRK;
    1004:	7623      	strb	r3, [r4, #24]

		/* Run callback if registered and enabled */
		if (callback_status & (1 << USART_CALLBACK_BREAK_RECEIVED)) {
    1006:	073a      	lsls	r2, r7, #28
    1008:	d502      	bpl.n	1010 <_usart_interrupt_handler+0x180>
			(*(module->callback[USART_CALLBACK_BREAK_RECEIVED]))(module);
    100a:	1c28      	adds	r0, r5, #0
    100c:	69ab      	ldr	r3, [r5, #24]
    100e:	4798      	blx	r3
		}
	}
#endif

#ifdef FEATURE_USART_START_FRAME_DECTION
	if (interrupt_status & SERCOM_USART_INTFLAG_RXS) {
    1010:	0731      	lsls	r1, r6, #28
    1012:	d507      	bpl.n	1024 <_usart_interrupt_handler+0x194>
		/* Disable interrupts */
		usart_hw->INTENCLR.reg = SERCOM_USART_INTENCLR_RXS;
    1014:	2308      	movs	r3, #8
    1016:	7523      	strb	r3, [r4, #20]
		/* Clear interrupt flag */
		usart_hw->INTFLAG.reg = SERCOM_USART_INTFLAG_RXS;
    1018:	7623      	strb	r3, [r4, #24]

		/* Run callback if registered and enabled */
		if (callback_status & (1 << USART_CALLBACK_START_RECEIVED)) {
    101a:	06ba      	lsls	r2, r7, #26
    101c:	d502      	bpl.n	1024 <_usart_interrupt_handler+0x194>
			(*(module->callback[USART_CALLBACK_START_RECEIVED]))(module);
    101e:	6a2b      	ldr	r3, [r5, #32]
    1020:	1c28      	adds	r0, r5, #0
    1022:	4798      	blx	r3
		}
	}
#endif
}
    1024:	bdf8      	pop	{r3, r4, r5, r6, r7, pc}
    1026:	46c0      	nop			; (mov r8, r8)
    1028:	20001708 	.word	0x20001708

0000102c <vTraceError>:
 * Note: If a recorder error is registered before vTraceStart is called, the
 * trace start will be aborted. This can occur if any of the Nxxxx constants
 * (e.g., NTask) in trcConfig.h is too small.
 ******************************************************************************/
void vTraceError(const char* msg)
{
    102c:	b510      	push	{r4, lr}
    102e:	1e01      	subs	r1, r0, #0
	TRACE_ASSERT(msg != NULL, "vTraceError: msg == NULL", );
    1030:	d103      	bne.n	103a <vTraceError+0xe>
    1032:	480f      	ldr	r0, [pc, #60]	; (1070 <vTraceError+0x44>)
    1034:	f7ff fffa 	bl	102c <vTraceError>
    1038:	e018      	b.n	106c <vTraceError+0x40>
	TRACE_ASSERT(RecorderDataPtr != NULL, "vTraceError: RecorderDataPtr == NULL", );
    103a:	4b0e      	ldr	r3, [pc, #56]	; (1074 <vTraceError+0x48>)
    103c:	681b      	ldr	r3, [r3, #0]
    103e:	2b00      	cmp	r3, #0
    1040:	d103      	bne.n	104a <vTraceError+0x1e>
    1042:	480d      	ldr	r0, [pc, #52]	; (1078 <vTraceError+0x4c>)
    1044:	f7ff fff2 	bl	102c <vTraceError>
    1048:	e010      	b.n	106c <vTraceError+0x40>

	/* Stop the recorder. Note: We do not call vTraceStop, since that adds a weird
	and unnecessary dependency to trcUser.c */

	RecorderDataPtr->recorderActive = 0;
    104a:	2200      	movs	r2, #0
    104c:	631a      	str	r2, [r3, #48]	; 0x30

	if (traceErrorMessage == NULL)
    104e:	4a09      	ldr	r2, [pc, #36]	; (1074 <vTraceError+0x48>)
    1050:	6852      	ldr	r2, [r2, #4]
    1052:	2a00      	cmp	r2, #0
    1054:	d10a      	bne.n	106c <vTraceError+0x40>
	{
		traceErrorMessage = (char*)msg;
    1056:	4c07      	ldr	r4, [pc, #28]	; (1074 <vTraceError+0x48>)
    1058:	6060      	str	r0, [r4, #4]
		(void)strncpy(RecorderDataPtr->systemInfo, traceErrorMessage, 80);
    105a:	4a08      	ldr	r2, [pc, #32]	; (107c <vTraceError+0x50>)
    105c:	1898      	adds	r0, r3, r2
    105e:	2250      	movs	r2, #80	; 0x50
    1060:	4b07      	ldr	r3, [pc, #28]	; (1080 <vTraceError+0x54>)
    1062:	4798      	blx	r3
		RecorderDataPtr->internalErrorOccured = 1;	 	 
    1064:	6822      	ldr	r2, [r4, #0]
    1066:	2101      	movs	r1, #1
    1068:	4b06      	ldr	r3, [pc, #24]	; (1084 <vTraceError+0x58>)
    106a:	50d1      	str	r1, [r2, r3]
	}
	
}
    106c:	bd10      	pop	{r4, pc}
    106e:	46c0      	nop			; (mov r8, r8)
    1070:	00005784 	.word	0x00005784
    1074:	200004ac 	.word	0x200004ac
    1078:	000057ac 	.word	0x000057ac
    107c:	000007dc 	.word	0x000007dc
    1080:	0000555d 	.word	0x0000555d
    1084:	000007d4 	.word	0x000007d4

00001088 <prvTraceInitTraceData>:

RecorderDataType* RecorderDataPtr = NULL;

/* This version of the function dynamically allocates the trace data */
void prvTraceInitTraceData()
{		
    1088:	b5f8      	push	{r3, r4, r5, r6, r7, lr}
    108a:	465f      	mov	r7, fp
    108c:	4656      	mov	r6, sl
    108e:	464d      	mov	r5, r9
    1090:	4644      	mov	r4, r8
    1092:	b4f0      	push	{r4, r5, r6, r7}
	init_hwtc_count = HWTC_COUNT;
    1094:	4b48      	ldr	r3, [pc, #288]	; (11b8 <prvTraceInitTraceData+0x130>)
    1096:	681a      	ldr	r2, [r3, #0]
    1098:	4b48      	ldr	r3, [pc, #288]	; (11bc <prvTraceInitTraceData+0x134>)
    109a:	601a      	str	r2, [r3, #0]
	
#if TRACE_DATA_ALLOCATION == TRACE_DATA_ALLOCATION_STATIC
	RecorderDataPtr = &RecorderData;
    109c:	4d48      	ldr	r5, [pc, #288]	; (11c0 <prvTraceInitTraceData+0x138>)
    109e:	4c49      	ldr	r4, [pc, #292]	; (11c4 <prvTraceInitTraceData+0x13c>)
    10a0:	602c      	str	r4, [r5, #0]
	{
		vTraceError("No recorder data structure allocated!");
		return;
	}
		
	(void)memset(RecorderDataPtr, 0, sizeof(RecorderDataType));
    10a2:	23bf      	movs	r3, #191	; 0xbf
    10a4:	015b      	lsls	r3, r3, #5
    10a6:	469b      	mov	fp, r3
    10a8:	1c20      	adds	r0, r4, #0
    10aa:	2100      	movs	r1, #0
    10ac:	1c1a      	adds	r2, r3, #0
    10ae:	4b46      	ldr	r3, [pc, #280]	; (11c8 <prvTraceInitTraceData+0x140>)
    10b0:	4798      	blx	r3

	RecorderDataPtr->startmarker0 = 0x00;
	RecorderDataPtr->startmarker1 = 0x01;
    10b2:	2101      	movs	r1, #1
    10b4:	468a      	mov	sl, r1
    10b6:	7061      	strb	r1, [r4, #1]
	RecorderDataPtr->startmarker2 = 0x02;
    10b8:	2302      	movs	r3, #2
    10ba:	70a3      	strb	r3, [r4, #2]
	RecorderDataPtr->startmarker3 = 0x03;
    10bc:	2303      	movs	r3, #3
    10be:	70e3      	strb	r3, [r4, #3]
	RecorderDataPtr->startmarker4 = 0x70;
    10c0:	2370      	movs	r3, #112	; 0x70
    10c2:	7123      	strb	r3, [r4, #4]
	RecorderDataPtr->startmarker5 = 0x71;
    10c4:	2371      	movs	r3, #113	; 0x71
    10c6:	4699      	mov	r9, r3
    10c8:	7163      	strb	r3, [r4, #5]
	RecorderDataPtr->startmarker6 = 0x72;
    10ca:	2272      	movs	r2, #114	; 0x72
    10cc:	4690      	mov	r8, r2
    10ce:	71a2      	strb	r2, [r4, #6]
	RecorderDataPtr->startmarker7 = 0x73;
    10d0:	2773      	movs	r7, #115	; 0x73
    10d2:	71e7      	strb	r7, [r4, #7]
	RecorderDataPtr->startmarker8 = 0xF0;
    10d4:	23f0      	movs	r3, #240	; 0xf0
    10d6:	7223      	strb	r3, [r4, #8]
	RecorderDataPtr->startmarker9 = 0xF1;
    10d8:	26f1      	movs	r6, #241	; 0xf1
    10da:	7266      	strb	r6, [r4, #9]
	RecorderDataPtr->startmarker10 = 0xF2;
    10dc:	210e      	movs	r1, #14
    10de:	4249      	negs	r1, r1
    10e0:	72a1      	strb	r1, [r4, #10]
	RecorderDataPtr->startmarker11 = 0xF3;
    10e2:	220d      	movs	r2, #13
    10e4:	4252      	negs	r2, r2
    10e6:	72e2      	strb	r2, [r4, #11]

	RecorderDataPtr->version = TRACE_KERNEL_VERSION;
    10e8:	4b38      	ldr	r3, [pc, #224]	; (11cc <prvTraceInitTraceData+0x144>)
    10ea:	81a3      	strh	r3, [r4, #12]
	RecorderDataPtr->minor_version = TRACE_MINOR_VERSION;
    10ec:	2304      	movs	r3, #4
    10ee:	73a3      	strb	r3, [r4, #14]
	RecorderDataPtr->irq_priority_order = IRQ_PRIORITY_ORDER;
	RecorderDataPtr->filesize = sizeof(RecorderDataType);
    10f0:	465b      	mov	r3, fp
    10f2:	6123      	str	r3, [r4, #16]

	RecorderDataPtr->maxEvents = EVENT_BUFFER_SIZE;
    10f4:	23fa      	movs	r3, #250	; 0xfa
    10f6:	009b      	lsls	r3, r3, #2
    10f8:	61a3      	str	r3, [r4, #24]

	RecorderDataPtr->debugMarker0 = 0xF0F0F0F0;
    10fa:	4b35      	ldr	r3, [pc, #212]	; (11d0 <prvTraceInitTraceData+0x148>)
    10fc:	6563      	str	r3, [r4, #84]	; 0x54

	RecorderDataPtr->isUsing16bitHandles = USE_16BIT_OBJECT_HANDLES;

	/* This function is kernel specific */
	vTraceInitObjectPropertyTable();
    10fe:	4b35      	ldr	r3, [pc, #212]	; (11d4 <prvTraceInitTraceData+0x14c>)
    1100:	4798      	blx	r3

	RecorderDataPtr->debugMarker1 = 0xF1F1F1F1;
    1102:	6828      	ldr	r0, [r5, #0]
    1104:	4a34      	ldr	r2, [pc, #208]	; (11d8 <prvTraceInitTraceData+0x150>)
    1106:	4b35      	ldr	r3, [pc, #212]	; (11dc <prvTraceInitTraceData+0x154>)
    1108:	50c2      	str	r2, [r0, r3]
	RecorderDataPtr->SymbolTable.symTableSize = SYMBOL_TABLE_SIZE;
    110a:	22c8      	movs	r2, #200	; 0xc8
    110c:	0092      	lsls	r2, r2, #2
    110e:	2385      	movs	r3, #133	; 0x85
    1110:	00db      	lsls	r3, r3, #3
    1112:	50c2      	str	r2, [r0, r3]
	RecorderDataPtr->SymbolTable.nextFreeSymbolIndex = 1;
    1114:	4b32      	ldr	r3, [pc, #200]	; (11e0 <prvTraceInitTraceData+0x158>)
    1116:	4651      	mov	r1, sl
    1118:	50c1      	str	r1, [r0, r3]
#if (INCLUDE_FLOAT_SUPPORT == 1)
	RecorderDataPtr->exampleFloatEncoding = 1.0f; /* otherwise already zero */
    111a:	22fe      	movs	r2, #254	; 0xfe
    111c:	0592      	lsls	r2, r2, #22
    111e:	23fa      	movs	r3, #250	; 0xfa
    1120:	00db      	lsls	r3, r3, #3
    1122:	50c2      	str	r2, [r0, r3]
#endif
	RecorderDataPtr->debugMarker2 = 0xF2F2F2F2;
    1124:	4a2f      	ldr	r2, [pc, #188]	; (11e4 <prvTraceInitTraceData+0x15c>)
    1126:	23fb      	movs	r3, #251	; 0xfb
    1128:	00db      	lsls	r3, r3, #3
    112a:	50c2      	str	r2, [r0, r3]
	(void)strncpy(RecorderDataPtr->systemInfo, "Trace Recorder Demo", 80);
    112c:	4a2e      	ldr	r2, [pc, #184]	; (11e8 <prvTraceInitTraceData+0x160>)
    112e:	1880      	adds	r0, r0, r2
    1130:	492e      	ldr	r1, [pc, #184]	; (11ec <prvTraceInitTraceData+0x164>)
    1132:	2250      	movs	r2, #80	; 0x50
    1134:	4b2e      	ldr	r3, [pc, #184]	; (11f0 <prvTraceInitTraceData+0x168>)
    1136:	4798      	blx	r3
	RecorderDataPtr->debugMarker3 = 0xF3F3F3F3;
    1138:	682b      	ldr	r3, [r5, #0]
    113a:	492e      	ldr	r1, [pc, #184]	; (11f4 <prvTraceInitTraceData+0x16c>)
    113c:	4a2e      	ldr	r2, [pc, #184]	; (11f8 <prvTraceInitTraceData+0x170>)
    113e:	5099      	str	r1, [r3, r2]
	RecorderDataPtr->endmarker0 = 0x0A;
    1140:	210a      	movs	r1, #10
    1142:	4a2e      	ldr	r2, [pc, #184]	; (11fc <prvTraceInitTraceData+0x174>)
    1144:	5499      	strb	r1, [r3, r2]
	RecorderDataPtr->endmarker1 = 0x0B;
    1146:	210b      	movs	r1, #11
    1148:	4a2d      	ldr	r2, [pc, #180]	; (1200 <prvTraceInitTraceData+0x178>)
    114a:	5499      	strb	r1, [r3, r2]
	RecorderDataPtr->endmarker2 = 0x0C;
    114c:	210c      	movs	r1, #12
    114e:	4a2d      	ldr	r2, [pc, #180]	; (1204 <prvTraceInitTraceData+0x17c>)
    1150:	5499      	strb	r1, [r3, r2]
	RecorderDataPtr->endmarker3 = 0x0D;
    1152:	210d      	movs	r1, #13
    1154:	4a2c      	ldr	r2, [pc, #176]	; (1208 <prvTraceInitTraceData+0x180>)
    1156:	5499      	strb	r1, [r3, r2]
	RecorderDataPtr->endmarker4 = 0x71;
    1158:	4a2c      	ldr	r2, [pc, #176]	; (120c <prvTraceInitTraceData+0x184>)
    115a:	4649      	mov	r1, r9
    115c:	5499      	strb	r1, [r3, r2]
	RecorderDataPtr->endmarker5 = 0x72;
    115e:	4a2c      	ldr	r2, [pc, #176]	; (1210 <prvTraceInitTraceData+0x188>)
    1160:	4641      	mov	r1, r8
    1162:	5499      	strb	r1, [r3, r2]
	RecorderDataPtr->endmarker6 = 0x73;
    1164:	4a2b      	ldr	r2, [pc, #172]	; (1214 <prvTraceInitTraceData+0x18c>)
    1166:	549f      	strb	r7, [r3, r2]
	RecorderDataPtr->endmarker7 = 0x74;
    1168:	2174      	movs	r1, #116	; 0x74
    116a:	4a2b      	ldr	r2, [pc, #172]	; (1218 <prvTraceInitTraceData+0x190>)
    116c:	5499      	strb	r1, [r3, r2]
	RecorderDataPtr->endmarker8 = 0xF1;
    116e:	4a2b      	ldr	r2, [pc, #172]	; (121c <prvTraceInitTraceData+0x194>)
    1170:	549e      	strb	r6, [r3, r2]
	RecorderDataPtr->endmarker9 = 0xF2;
    1172:	4a2b      	ldr	r2, [pc, #172]	; (1220 <prvTraceInitTraceData+0x198>)
    1174:	210e      	movs	r1, #14
    1176:	4249      	negs	r1, r1
    1178:	5499      	strb	r1, [r3, r2]
	RecorderDataPtr->endmarker10 = 0xF3;
    117a:	4a2a      	ldr	r2, [pc, #168]	; (1224 <prvTraceInitTraceData+0x19c>)
    117c:	210d      	movs	r1, #13
    117e:	4249      	negs	r1, r1
    1180:	5499      	strb	r1, [r3, r2]
	RecorderDataPtr->endmarker11 = 0xF4;
    1182:	21f4      	movs	r1, #244	; 0xf4
    1184:	4a28      	ldr	r2, [pc, #160]	; (1228 <prvTraceInitTraceData+0x1a0>)
    1186:	5499      	strb	r1, [r3, r2]
	RecorderDataPtr->userEventBuffer.numberOfSlots = USER_EVENT_BUFFER_SIZE;
	RecorderDataPtr->userEventBuffer.numberOfChannels = CHANNEL_FORMAT_PAIRS + 1;
#endif

	/* Kernel specific initialization of the objectHandleStacks variable */
	vTraceInitObjectHandleStack();
    1188:	4b28      	ldr	r3, [pc, #160]	; (122c <prvTraceInitTraceData+0x1a4>)
    118a:	4798      	blx	r3
}

static void vInitStartMarkers()
{
	uint32_t i;
	uint8_t *ptr = (uint8_t*)&(RecorderDataPtr->startmarker0);
    118c:	6829      	ldr	r1, [r5, #0]
	if ((*ptr) == 0)
    118e:	780b      	ldrb	r3, [r1, #0]
    1190:	2b00      	cmp	r3, #0
    1192:	d108      	bne.n	11a6 <prvTraceInitTraceData+0x11e>
    1194:	1c0b      	adds	r3, r1, #0
    1196:	310c      	adds	r1, #12
	{
		for (i = 0; i < 12; i++)
		{
			ptr[i] += 1;
    1198:	781a      	ldrb	r2, [r3, #0]
    119a:	3201      	adds	r2, #1
    119c:	701a      	strb	r2, [r3, #0]
    119e:	3301      	adds	r3, #1
{
	uint32_t i;
	uint8_t *ptr = (uint8_t*)&(RecorderDataPtr->startmarker0);
	if ((*ptr) == 0)
	{
		for (i = 0; i < 12; i++)
    11a0:	428b      	cmp	r3, r1
    11a2:	d1f9      	bne.n	1198 <prvTraceInitTraceData+0x110>
    11a4:	e002      	b.n	11ac <prvTraceInitTraceData+0x124>
			ptr[i] += 1;
		}
	}
	else
	{
		vTraceError("Trace start markers already initialized!");
    11a6:	4822      	ldr	r0, [pc, #136]	; (1230 <prvTraceInitTraceData+0x1a8>)
    11a8:	4b22      	ldr	r3, [pc, #136]	; (1234 <prvTraceInitTraceData+0x1ac>)
    11aa:	4798      	blx	r3
	vInitStartMarkers();
	
	#ifdef PORT_SPECIFIC_INIT
	PORT_SPECIFIC_INIT();
	#endif
}
    11ac:	bc3c      	pop	{r2, r3, r4, r5}
    11ae:	4690      	mov	r8, r2
    11b0:	4699      	mov	r9, r3
    11b2:	46a2      	mov	sl, r4
    11b4:	46ab      	mov	fp, r5
    11b6:	bdf8      	pop	{r3, r4, r5, r6, r7, pc}
    11b8:	e000e018 	.word	0xe000e018
    11bc:	20002ef8 	.word	0x20002ef8
    11c0:	200004ac 	.word	0x200004ac
    11c4:	20001718 	.word	0x20001718
    11c8:	00005409 	.word	0x00005409
    11cc:	00001aa1 	.word	0x00001aa1
    11d0:	f0f0f0f0 	.word	0xf0f0f0f0
    11d4:	000021fd 	.word	0x000021fd
    11d8:	f1f1f1f1 	.word	0xf1f1f1f1
    11dc:	00000424 	.word	0x00000424
    11e0:	0000042c 	.word	0x0000042c
    11e4:	f2f2f2f2 	.word	0xf2f2f2f2
    11e8:	000007dc 	.word	0x000007dc
    11ec:	000057e0 	.word	0x000057e0
    11f0:	0000555d 	.word	0x0000555d
    11f4:	f3f3f3f3 	.word	0xf3f3f3f3
    11f8:	0000082c 	.word	0x0000082c
    11fc:	000017d4 	.word	0x000017d4
    1200:	000017d5 	.word	0x000017d5
    1204:	000017d6 	.word	0x000017d6
    1208:	000017d7 	.word	0x000017d7
    120c:	000017d8 	.word	0x000017d8
    1210:	000017d9 	.word	0x000017d9
    1214:	000017da 	.word	0x000017da
    1218:	000017db 	.word	0x000017db
    121c:	000017dc 	.word	0x000017dc
    1220:	000017dd 	.word	0x000017dd
    1224:	000017de 	.word	0x000017de
    1228:	000017df 	.word	0x000017df
    122c:	000022ad 	.word	0x000022ad
    1230:	000057f4 	.word	0x000057f4
    1234:	0000102d 	.word	0x0000102d

00001238 <xTraceNextFreeEventBufferSlot>:

/* Gives the last error message of the recorder. NULL if no error message. */
char* traceErrorMessage = NULL;

void* xTraceNextFreeEventBufferSlot(void)
{
    1238:	b508      	push	{r3, lr}
	if (! RecorderDataPtr->recorderActive)
    123a:	4b0b      	ldr	r3, [pc, #44]	; (1268 <xTraceNextFreeEventBufferSlot+0x30>)
    123c:	681b      	ldr	r3, [r3, #0]
    123e:	6b1a      	ldr	r2, [r3, #48]	; 0x30
    1240:	2a00      	cmp	r2, #0
    1242:	d00e      	beq.n	1262 <xTraceNextFreeEventBufferSlot+0x2a>
	{
		// If the associated XTS or XPS event prio to the main event has filled the buffer and store mode "stop when full".
		return NULL;
	}

	if (RecorderDataPtr->nextFreeIndex >= EVENT_BUFFER_SIZE)
    1244:	69da      	ldr	r2, [r3, #28]
    1246:	4909      	ldr	r1, [pc, #36]	; (126c <xTraceNextFreeEventBufferSlot+0x34>)
    1248:	428a      	cmp	r2, r1
    124a:	d904      	bls.n	1256 <xTraceNextFreeEventBufferSlot+0x1e>
	{
		vTraceError("Attempt to index outside event buffer!");
    124c:	4808      	ldr	r0, [pc, #32]	; (1270 <xTraceNextFreeEventBufferSlot+0x38>)
    124e:	4b09      	ldr	r3, [pc, #36]	; (1274 <xTraceNextFreeEventBufferSlot+0x3c>)
    1250:	4798      	blx	r3
		return NULL;
    1252:	2000      	movs	r0, #0
    1254:	e006      	b.n	1264 <xTraceNextFreeEventBufferSlot+0x2c>
	}
	return (void*)(&RecorderDataPtr->eventData[RecorderDataPtr->nextFreeIndex*4]);
    1256:	0090      	lsls	r0, r2, #2
    1258:	2283      	movs	r2, #131	; 0x83
    125a:	0112      	lsls	r2, r2, #4
    125c:	1880      	adds	r0, r0, r2
    125e:	1818      	adds	r0, r3, r0
    1260:	e000      	b.n	1264 <xTraceNextFreeEventBufferSlot+0x2c>
void* xTraceNextFreeEventBufferSlot(void)
{
	if (! RecorderDataPtr->recorderActive)
	{
		// If the associated XTS or XPS event prio to the main event has filled the buffer and store mode "stop when full".
		return NULL;
    1262:	2000      	movs	r0, #0
	{
		vTraceError("Attempt to index outside event buffer!");
		return NULL;
	}
	return (void*)(&RecorderDataPtr->eventData[RecorderDataPtr->nextFreeIndex*4]);
}
    1264:	bd08      	pop	{r3, pc}
    1266:	46c0      	nop			; (mov r8, r8)
    1268:	200004ac 	.word	0x200004ac
    126c:	000003e7 	.word	0x000003e7
    1270:	00005820 	.word	0x00005820
    1274:	0000102d 	.word	0x0000102d

00001278 <uiIndexOfObject>:

uint16_t uiIndexOfObject(objectHandleType objecthandle, uint8_t objectclass)
{
    1278:	b508      	push	{r3, lr}
	TRACE_ASSERT(objectclass < TRACE_NCLASSES, 
    127a:	2906      	cmp	r1, #6
    127c:	d904      	bls.n	1288 <uiIndexOfObject+0x10>
    127e:	480f      	ldr	r0, [pc, #60]	; (12bc <uiIndexOfObject+0x44>)
    1280:	4b0f      	ldr	r3, [pc, #60]	; (12c0 <uiIndexOfObject+0x48>)
    1282:	4798      	blx	r3
    1284:	2000      	movs	r0, #0
    1286:	e018      	b.n	12ba <uiIndexOfObject+0x42>
		"uiIndexOfObject: Invalid value for objectclass", 0);
	TRACE_ASSERT(objecthandle > 0 && objecthandle <= RecorderDataPtr->ObjectPropertyTable.NumberOfObjectsPerClass[objectclass], 
    1288:	2800      	cmp	r0, #0
    128a:	d006      	beq.n	129a <uiIndexOfObject+0x22>
    128c:	4b0d      	ldr	r3, [pc, #52]	; (12c4 <uiIndexOfObject+0x4c>)
    128e:	681b      	ldr	r3, [r3, #0]
    1290:	185a      	adds	r2, r3, r1
    1292:	3260      	adds	r2, #96	; 0x60
    1294:	7912      	ldrb	r2, [r2, #4]
    1296:	4282      	cmp	r2, r0
    1298:	d204      	bcs.n	12a4 <uiIndexOfObject+0x2c>
    129a:	480b      	ldr	r0, [pc, #44]	; (12c8 <uiIndexOfObject+0x50>)
    129c:	4b08      	ldr	r3, [pc, #32]	; (12c0 <uiIndexOfObject+0x48>)
    129e:	4798      	blx	r3
    12a0:	2000      	movs	r0, #0
    12a2:	e00a      	b.n	12ba <uiIndexOfObject+0x42>

	if ((objectclass < TRACE_NCLASSES) && (objecthandle > 0) && 
		(objecthandle <= RecorderDataPtr->ObjectPropertyTable.NumberOfObjectsPerClass[objectclass]))
	{
		return (uint16_t)(RecorderDataPtr->ObjectPropertyTable.StartIndexOfClass[objectclass] + 
			(RecorderDataPtr->ObjectPropertyTable.TotalPropertyBytesPerClass[objectclass] * (objecthandle-1)));
    12a4:	185a      	adds	r2, r3, r1
    12a6:	3270      	adds	r2, #112	; 0x70
		"uiIndexOfObject: Invalid value for objecthandle", 0);

	if ((objectclass < TRACE_NCLASSES) && (objecthandle > 0) && 
		(objecthandle <= RecorderDataPtr->ObjectPropertyTable.NumberOfObjectsPerClass[objectclass]))
	{
		return (uint16_t)(RecorderDataPtr->ObjectPropertyTable.StartIndexOfClass[objectclass] + 
    12a8:	7912      	ldrb	r2, [r2, #4]
			(RecorderDataPtr->ObjectPropertyTable.TotalPropertyBytesPerClass[objectclass] * (objecthandle-1)));
    12aa:	3801      	subs	r0, #1
		"uiIndexOfObject: Invalid value for objecthandle", 0);

	if ((objectclass < TRACE_NCLASSES) && (objecthandle > 0) && 
		(objecthandle <= RecorderDataPtr->ObjectPropertyTable.NumberOfObjectsPerClass[objectclass]))
	{
		return (uint16_t)(RecorderDataPtr->ObjectPropertyTable.StartIndexOfClass[objectclass] + 
    12ac:	4350      	muls	r0, r2
    12ae:	313c      	adds	r1, #60	; 0x3c
    12b0:	0049      	lsls	r1, r1, #1
    12b2:	185b      	adds	r3, r3, r1
    12b4:	889b      	ldrh	r3, [r3, #4]
    12b6:	18c0      	adds	r0, r0, r3
    12b8:	b280      	uxth	r0, r0
			(RecorderDataPtr->ObjectPropertyTable.TotalPropertyBytesPerClass[objectclass] * (objecthandle-1)));
	}

	vTraceError("Object table lookup with invalid object handle or object class!");
	return 0;
}
    12ba:	bd08      	pop	{r3, pc}
    12bc:	00005848 	.word	0x00005848
    12c0:	0000102d 	.word	0x0000102d
    12c4:	200004ac 	.word	0x200004ac
    12c8:	00005888 	.word	0x00005888

000012cc <xTraceGetObjectHandle>:
 * contains the mapping between object handle and object name which was valid up
 * to this point in time. The object name is stored as a symbol table entry.
 ******************************************************************************/

objectHandleType xTraceGetObjectHandle(traceObjectClass objectclass)
{
    12cc:	b538      	push	{r3, r4, r5, lr}
	objectHandleType handle;
	static int indexOfHandle;

	TRACE_ASSERT(objectclass < TRACE_NCLASSES, 
    12ce:	2806      	cmp	r0, #6
    12d0:	d904      	bls.n	12dc <xTraceGetObjectHandle+0x10>
    12d2:	484e      	ldr	r0, [pc, #312]	; (140c <xTraceGetObjectHandle+0x140>)
    12d4:	4b4e      	ldr	r3, [pc, #312]	; (1410 <xTraceGetObjectHandle+0x144>)
    12d6:	4798      	blx	r3
    12d8:	2000      	movs	r0, #0
    12da:	e095      	b.n	1408 <xTraceGetObjectHandle+0x13c>
		"xTraceGetObjectHandle: Invalid value for objectclass", (objectHandleType)0);

	indexOfHandle = objectHandleStacks.indexOfNextAvailableHandle[objectclass];
    12dc:	4a4d      	ldr	r2, [pc, #308]	; (1414 <xTraceGetObjectHandle+0x148>)
    12de:	0043      	lsls	r3, r0, #1
    12e0:	18d3      	adds	r3, r2, r3
    12e2:	891b      	ldrh	r3, [r3, #8]
    12e4:	6793      	str	r3, [r2, #120]	; 0x78
	if (objectHandleStacks.objectHandles[indexOfHandle] == 0)
    12e6:	18d2      	adds	r2, r2, r3
    12e8:	3240      	adds	r2, #64	; 0x40
    12ea:	7812      	ldrb	r2, [r2, #0]
    12ec:	2a00      	cmp	r2, #0
    12ee:	d109      	bne.n	1304 <xTraceGetObjectHandle+0x38>
	{
		/* Zero is used to indicate a never before used handle, i.e.,
			new slots in the handle stack. The handle slot needs to
			be initialized here (starts at 1). */
		objectHandleStacks.objectHandles[indexOfHandle] =
    12f0:	4a48      	ldr	r2, [pc, #288]	; (1414 <xTraceGetObjectHandle+0x148>)
    12f2:	18d4      	adds	r4, r2, r3
    12f4:	3440      	adds	r4, #64	; 0x40
			(objectHandleType)(1 + indexOfHandle -
    12f6:	1c59      	adds	r1, r3, #1
			objectHandleStacks.lowestIndexOfClass[objectclass]);
    12f8:	1d05      	adds	r5, r0, #4
    12fa:	006d      	lsls	r5, r5, #1
    12fc:	1952      	adds	r2, r2, r5
	{
		/* Zero is used to indicate a never before used handle, i.e.,
			new slots in the handle stack. The handle slot needs to
			be initialized here (starts at 1). */
		objectHandleStacks.objectHandles[indexOfHandle] =
			(objectHandleType)(1 + indexOfHandle -
    12fe:	89d2      	ldrh	r2, [r2, #14]
    1300:	1a89      	subs	r1, r1, r2
	if (objectHandleStacks.objectHandles[indexOfHandle] == 0)
	{
		/* Zero is used to indicate a never before used handle, i.e.,
			new slots in the handle stack. The handle slot needs to
			be initialized here (starts at 1). */
		objectHandleStacks.objectHandles[indexOfHandle] =
    1302:	7021      	strb	r1, [r4, #0]
			(objectHandleType)(1 + indexOfHandle -
			objectHandleStacks.lowestIndexOfClass[objectclass]);
	}

	handle = objectHandleStacks.objectHandles[indexOfHandle];
    1304:	4a43      	ldr	r2, [pc, #268]	; (1414 <xTraceGetObjectHandle+0x148>)
    1306:	18d1      	adds	r1, r2, r3
    1308:	3140      	adds	r1, #64	; 0x40
    130a:	7809      	ldrb	r1, [r1, #0]

	if (objectHandleStacks.indexOfNextAvailableHandle[objectclass]
		> objectHandleStacks.highestIndexOfClass[objectclass])
    130c:	1c04      	adds	r4, r0, #0
    130e:	340c      	adds	r4, #12
    1310:	0064      	lsls	r4, r4, #1
    1312:	1912      	adds	r2, r2, r4
			objectHandleStacks.lowestIndexOfClass[objectclass]);
	}

	handle = objectHandleStacks.objectHandles[indexOfHandle];

	if (objectHandleStacks.indexOfNextAvailableHandle[objectclass]
    1314:	8992      	ldrh	r2, [r2, #12]
    1316:	429a      	cmp	r2, r3
    1318:	d205      	bcs.n	1326 <xTraceGetObjectHandle+0x5a>
		> objectHandleStacks.highestIndexOfClass[objectclass])
	{
		/* ERROR */
		vTraceError(pszTraceGetErrorNotEnoughHandles(objectclass));
    131a:	4b3f      	ldr	r3, [pc, #252]	; (1418 <xTraceGetObjectHandle+0x14c>)
    131c:	4798      	blx	r3
    131e:	4b3c      	ldr	r3, [pc, #240]	; (1410 <xTraceGetObjectHandle+0x144>)
    1320:	4798      	blx	r3

		handle = 0; /* an invalid/anonymous handle - but the recorder is stopped now... */
    1322:	2000      	movs	r0, #0
    1324:	e070      	b.n	1408 <xTraceGetObjectHandle+0x13c>
	}
	else
	{
		int hndCount;
		objectHandleStacks.indexOfNextAvailableHandle[objectclass]++;
    1326:	3301      	adds	r3, #1
    1328:	b29b      	uxth	r3, r3
    132a:	4a3a      	ldr	r2, [pc, #232]	; (1414 <xTraceGetObjectHandle+0x148>)
    132c:	0044      	lsls	r4, r0, #1
    132e:	1914      	adds	r4, r2, r4
    1330:	8123      	strh	r3, [r4, #8]

		hndCount = objectHandleStacks.indexOfNextAvailableHandle[objectclass] -
			objectHandleStacks.lowestIndexOfClass[objectclass];
    1332:	1d04      	adds	r4, r0, #4
    1334:	0064      	lsls	r4, r4, #1
    1336:	1914      	adds	r4, r2, r4
	else
	{
		int hndCount;
		objectHandleStacks.indexOfNextAvailableHandle[objectclass]++;

		hndCount = objectHandleStacks.indexOfNextAvailableHandle[objectclass] -
    1338:	89e4      	ldrh	r4, [r4, #14]
    133a:	1b1b      	subs	r3, r3, r4
			objectHandleStacks.lowestIndexOfClass[objectclass];

		if (hndCount >
			objectHandleStacks.handleCountWaterMarksOfClass[objectclass])
    133c:	1c04      	adds	r4, r0, #0
    133e:	3414      	adds	r4, #20
    1340:	0064      	lsls	r4, r4, #1
    1342:	1912      	adds	r2, r2, r4
		objectHandleStacks.indexOfNextAvailableHandle[objectclass]++;

		hndCount = objectHandleStacks.indexOfNextAvailableHandle[objectclass] -
			objectHandleStacks.lowestIndexOfClass[objectclass];

		if (hndCount >
    1344:	8952      	ldrh	r2, [r2, #10]
    1346:	4293      	cmp	r3, r2
    1348:	dd04      	ble.n	1354 <xTraceGetObjectHandle+0x88>
			objectHandleStacks.handleCountWaterMarksOfClass[objectclass])
		{
			objectHandleStacks.handleCountWaterMarksOfClass[objectclass] =
    134a:	1c22      	adds	r2, r4, #0
    134c:	4c31      	ldr	r4, [pc, #196]	; (1414 <xTraceGetObjectHandle+0x148>)
    134e:	18a2      	adds	r2, r4, r2
    1350:	b2db      	uxtb	r3, r3
    1352:	8153      	strh	r3, [r2, #10]
				(objectHandleType)hndCount;
		}

		TRACE_CLEAR_OBJECT_FLAG_ISEXCLUDED(objectclass, handle);
    1354:	2806      	cmp	r0, #6
    1356:	d856      	bhi.n	1406 <xTraceGetObjectHandle+0x13a>
    1358:	0080      	lsls	r0, r0, #2
    135a:	4b30      	ldr	r3, [pc, #192]	; (141c <xTraceGetObjectHandle+0x150>)
    135c:	581b      	ldr	r3, [r3, r0]
    135e:	469f      	mov	pc, r3
    1360:	08cb      	lsrs	r3, r1, #3
    1362:	4a2c      	ldr	r2, [pc, #176]	; (1414 <xTraceGetObjectHandle+0x148>)
    1364:	327c      	adds	r2, #124	; 0x7c
    1366:	2407      	movs	r4, #7
    1368:	400c      	ands	r4, r1
    136a:	2001      	movs	r0, #1
    136c:	40a0      	lsls	r0, r4
    136e:	1c04      	adds	r4, r0, #0
    1370:	5cd0      	ldrb	r0, [r2, r3]
    1372:	43a0      	bics	r0, r4
    1374:	54d0      	strb	r0, [r2, r3]
		objectHandleStacks.objectHandles[indexOfHandle] =
			(objectHandleType)(1 + indexOfHandle -
			objectHandleStacks.lowestIndexOfClass[objectclass]);
	}

	handle = objectHandleStacks.objectHandles[indexOfHandle];
    1376:	1c08      	adds	r0, r1, #0
		{
			objectHandleStacks.handleCountWaterMarksOfClass[objectclass] =
				(objectHandleType)hndCount;
		}

		TRACE_CLEAR_OBJECT_FLAG_ISEXCLUDED(objectclass, handle);
    1378:	e046      	b.n	1408 <xTraceGetObjectHandle+0x13c>
    137a:	1c08      	adds	r0, r1, #0
    137c:	300b      	adds	r0, #11
    137e:	10c3      	asrs	r3, r0, #3
    1380:	4a24      	ldr	r2, [pc, #144]	; (1414 <xTraceGetObjectHandle+0x148>)
    1382:	327c      	adds	r2, #124	; 0x7c
    1384:	2407      	movs	r4, #7
    1386:	4020      	ands	r0, r4
    1388:	2401      	movs	r4, #1
    138a:	4084      	lsls	r4, r0
    138c:	5cd0      	ldrb	r0, [r2, r3]
    138e:	43a0      	bics	r0, r4
    1390:	54d0      	strb	r0, [r2, r3]
		objectHandleStacks.objectHandles[indexOfHandle] =
			(objectHandleType)(1 + indexOfHandle -
			objectHandleStacks.lowestIndexOfClass[objectclass]);
	}

	handle = objectHandleStacks.objectHandles[indexOfHandle];
    1392:	1c08      	adds	r0, r1, #0
		{
			objectHandleStacks.handleCountWaterMarksOfClass[objectclass] =
				(objectHandleType)hndCount;
		}

		TRACE_CLEAR_OBJECT_FLAG_ISEXCLUDED(objectclass, handle);
    1394:	e038      	b.n	1408 <xTraceGetObjectHandle+0x13c>
    1396:	1c08      	adds	r0, r1, #0
    1398:	3016      	adds	r0, #22
    139a:	10c3      	asrs	r3, r0, #3
    139c:	4a1d      	ldr	r2, [pc, #116]	; (1414 <xTraceGetObjectHandle+0x148>)
    139e:	327c      	adds	r2, #124	; 0x7c
    13a0:	2407      	movs	r4, #7
    13a2:	4020      	ands	r0, r4
    13a4:	2401      	movs	r4, #1
    13a6:	4084      	lsls	r4, r0
    13a8:	5cd0      	ldrb	r0, [r2, r3]
    13aa:	43a0      	bics	r0, r4
    13ac:	54d0      	strb	r0, [r2, r3]
		objectHandleStacks.objectHandles[indexOfHandle] =
			(objectHandleType)(1 + indexOfHandle -
			objectHandleStacks.lowestIndexOfClass[objectclass]);
	}

	handle = objectHandleStacks.objectHandles[indexOfHandle];
    13ae:	1c08      	adds	r0, r1, #0
		{
			objectHandleStacks.handleCountWaterMarksOfClass[objectclass] =
				(objectHandleType)hndCount;
		}

		TRACE_CLEAR_OBJECT_FLAG_ISEXCLUDED(objectclass, handle);
    13b0:	e02a      	b.n	1408 <xTraceGetObjectHandle+0x13c>
    13b2:	1c08      	adds	r0, r1, #0
    13b4:	3021      	adds	r0, #33	; 0x21
    13b6:	10c3      	asrs	r3, r0, #3
    13b8:	4a16      	ldr	r2, [pc, #88]	; (1414 <xTraceGetObjectHandle+0x148>)
    13ba:	327c      	adds	r2, #124	; 0x7c
    13bc:	2407      	movs	r4, #7
    13be:	4020      	ands	r0, r4
    13c0:	2401      	movs	r4, #1
    13c2:	4084      	lsls	r4, r0
    13c4:	5cd0      	ldrb	r0, [r2, r3]
    13c6:	43a0      	bics	r0, r4
    13c8:	54d0      	strb	r0, [r2, r3]
		objectHandleStacks.objectHandles[indexOfHandle] =
			(objectHandleType)(1 + indexOfHandle -
			objectHandleStacks.lowestIndexOfClass[objectclass]);
	}

	handle = objectHandleStacks.objectHandles[indexOfHandle];
    13ca:	1c08      	adds	r0, r1, #0
		{
			objectHandleStacks.handleCountWaterMarksOfClass[objectclass] =
				(objectHandleType)hndCount;
		}

		TRACE_CLEAR_OBJECT_FLAG_ISEXCLUDED(objectclass, handle);
    13cc:	e01c      	b.n	1408 <xTraceGetObjectHandle+0x13c>
    13ce:	1c08      	adds	r0, r1, #0
    13d0:	3031      	adds	r0, #49	; 0x31
    13d2:	10c3      	asrs	r3, r0, #3
    13d4:	4a0f      	ldr	r2, [pc, #60]	; (1414 <xTraceGetObjectHandle+0x148>)
    13d6:	327c      	adds	r2, #124	; 0x7c
    13d8:	2407      	movs	r4, #7
    13da:	4020      	ands	r0, r4
    13dc:	2401      	movs	r4, #1
    13de:	4084      	lsls	r4, r0
    13e0:	5cd0      	ldrb	r0, [r2, r3]
    13e2:	43a0      	bics	r0, r4
    13e4:	54d0      	strb	r0, [r2, r3]
		objectHandleStacks.objectHandles[indexOfHandle] =
			(objectHandleType)(1 + indexOfHandle -
			objectHandleStacks.lowestIndexOfClass[objectclass]);
	}

	handle = objectHandleStacks.objectHandles[indexOfHandle];
    13e6:	1c08      	adds	r0, r1, #0
		{
			objectHandleStacks.handleCountWaterMarksOfClass[objectclass] =
				(objectHandleType)hndCount;
		}

		TRACE_CLEAR_OBJECT_FLAG_ISEXCLUDED(objectclass, handle);
    13e8:	e00e      	b.n	1408 <xTraceGetObjectHandle+0x13c>
    13ea:	1c08      	adds	r0, r1, #0
    13ec:	3034      	adds	r0, #52	; 0x34
    13ee:	10c3      	asrs	r3, r0, #3
    13f0:	4a08      	ldr	r2, [pc, #32]	; (1414 <xTraceGetObjectHandle+0x148>)
    13f2:	327c      	adds	r2, #124	; 0x7c
    13f4:	2407      	movs	r4, #7
    13f6:	4020      	ands	r0, r4
    13f8:	2401      	movs	r4, #1
    13fa:	4084      	lsls	r4, r0
    13fc:	5cd0      	ldrb	r0, [r2, r3]
    13fe:	43a0      	bics	r0, r4
    1400:	54d0      	strb	r0, [r2, r3]
		objectHandleStacks.objectHandles[indexOfHandle] =
			(objectHandleType)(1 + indexOfHandle -
			objectHandleStacks.lowestIndexOfClass[objectclass]);
	}

	handle = objectHandleStacks.objectHandles[indexOfHandle];
    1402:	1c08      	adds	r0, r1, #0
		{
			objectHandleStacks.handleCountWaterMarksOfClass[objectclass] =
				(objectHandleType)hndCount;
		}

		TRACE_CLEAR_OBJECT_FLAG_ISEXCLUDED(objectclass, handle);
    1404:	e000      	b.n	1408 <xTraceGetObjectHandle+0x13c>
		objectHandleStacks.objectHandles[indexOfHandle] =
			(objectHandleType)(1 + indexOfHandle -
			objectHandleStacks.lowestIndexOfClass[objectclass]);
	}

	handle = objectHandleStacks.objectHandles[indexOfHandle];
    1406:	1c08      	adds	r0, r1, #0

		TRACE_CLEAR_OBJECT_FLAG_ISEXCLUDED(objectclass, handle);
	}

	return handle;
}
    1408:	bd38      	pop	{r3, r4, r5, pc}
    140a:	46c0      	nop			; (mov r8, r8)
    140c:	000058c8 	.word	0x000058c8
    1410:	0000102d 	.word	0x0000102d
    1414:	200004ac 	.word	0x200004ac
    1418:	000022fd 	.word	0x000022fd
    141c:	00005768 	.word	0x00005768

00001420 <vTraceFreeObjectHandle>:

void vTraceFreeObjectHandle(traceObjectClass objectclass, objectHandleType handle)
{
    1420:	b538      	push	{r3, r4, r5, lr}
	int indexOfHandle;

	TRACE_ASSERT(objectclass < TRACE_NCLASSES, 
    1422:	2806      	cmp	r0, #6
    1424:	d903      	bls.n	142e <vTraceFreeObjectHandle+0xe>
    1426:	4815      	ldr	r0, [pc, #84]	; (147c <vTraceFreeObjectHandle+0x5c>)
    1428:	4b15      	ldr	r3, [pc, #84]	; (1480 <vTraceFreeObjectHandle+0x60>)
    142a:	4798      	blx	r3
    142c:	e024      	b.n	1478 <vTraceFreeObjectHandle+0x58>
		"vTraceFreeObjectHandle: Invalid value for objectclass", );
	TRACE_ASSERT(handle > 0 && handle <= RecorderDataPtr->ObjectPropertyTable.NumberOfObjectsPerClass[objectclass], 
    142e:	2900      	cmp	r1, #0
    1430:	d006      	beq.n	1440 <vTraceFreeObjectHandle+0x20>
    1432:	4b14      	ldr	r3, [pc, #80]	; (1484 <vTraceFreeObjectHandle+0x64>)
    1434:	681b      	ldr	r3, [r3, #0]
    1436:	181b      	adds	r3, r3, r0
    1438:	3360      	adds	r3, #96	; 0x60
    143a:	791b      	ldrb	r3, [r3, #4]
    143c:	428b      	cmp	r3, r1
    143e:	d203      	bcs.n	1448 <vTraceFreeObjectHandle+0x28>
    1440:	4811      	ldr	r0, [pc, #68]	; (1488 <vTraceFreeObjectHandle+0x68>)
    1442:	4b0f      	ldr	r3, [pc, #60]	; (1480 <vTraceFreeObjectHandle+0x60>)
    1444:	4798      	blx	r3
    1446:	e017      	b.n	1478 <vTraceFreeObjectHandle+0x58>
		"vTraceFreeObjectHandle: Invalid value for handle", );

	/* Check that there is room to push the handle on the stack */
	if ((objectHandleStacks.indexOfNextAvailableHandle[objectclass] - 1) <
    1448:	4b0e      	ldr	r3, [pc, #56]	; (1484 <vTraceFreeObjectHandle+0x64>)
    144a:	0042      	lsls	r2, r0, #1
    144c:	189a      	adds	r2, r3, r2
    144e:	8912      	ldrh	r2, [r2, #8]
    1450:	1e54      	subs	r4, r2, #1
		objectHandleStacks.lowestIndexOfClass[objectclass])
    1452:	1d05      	adds	r5, r0, #4
    1454:	006d      	lsls	r5, r5, #1
    1456:	195b      	adds	r3, r3, r5
		"vTraceFreeObjectHandle: Invalid value for objectclass", );
	TRACE_ASSERT(handle > 0 && handle <= RecorderDataPtr->ObjectPropertyTable.NumberOfObjectsPerClass[objectclass], 
		"vTraceFreeObjectHandle: Invalid value for handle", );

	/* Check that there is room to push the handle on the stack */
	if ((objectHandleStacks.indexOfNextAvailableHandle[objectclass] - 1) <
    1458:	89db      	ldrh	r3, [r3, #14]
    145a:	429c      	cmp	r4, r3
    145c:	da03      	bge.n	1466 <vTraceFreeObjectHandle+0x46>
		objectHandleStacks.lowestIndexOfClass[objectclass])
	{
		/* Error */
		vTraceError("Attempt to free more handles than allocated!");
    145e:	480b      	ldr	r0, [pc, #44]	; (148c <vTraceFreeObjectHandle+0x6c>)
    1460:	4b07      	ldr	r3, [pc, #28]	; (1480 <vTraceFreeObjectHandle+0x60>)
    1462:	4798      	blx	r3
    1464:	e008      	b.n	1478 <vTraceFreeObjectHandle+0x58>
	}
	else
	{
		objectHandleStacks.indexOfNextAvailableHandle[objectclass]--;
    1466:	3a01      	subs	r2, #1
    1468:	b292      	uxth	r2, r2
    146a:	4b06      	ldr	r3, [pc, #24]	; (1484 <vTraceFreeObjectHandle+0x64>)
    146c:	0040      	lsls	r0, r0, #1
    146e:	1818      	adds	r0, r3, r0
    1470:	8102      	strh	r2, [r0, #8]
		indexOfHandle = objectHandleStacks.indexOfNextAvailableHandle[objectclass];
		objectHandleStacks.objectHandles[indexOfHandle] = handle;
    1472:	189a      	adds	r2, r3, r2
    1474:	3240      	adds	r2, #64	; 0x40
    1476:	7011      	strb	r1, [r2, #0]
	}

}
    1478:	bd38      	pop	{r3, r4, r5, pc}
    147a:	46c0      	nop			; (mov r8, r8)
    147c:	0000590c 	.word	0x0000590c
    1480:	0000102d 	.word	0x0000102d
    1484:	200004ac 	.word	0x200004ac
    1488:	00005950 	.word	0x00005950
    148c:	00005990 	.word	0x00005990

00001490 <vTraceSetObjectName>:
 * recorder's Object Property Table, at the given handle and object class.
 ******************************************************************************/
void vTraceSetObjectName(traceObjectClass objectclass,
						 objectHandleType handle,
						 const char* name)
{
    1490:	b538      	push	{r3, r4, r5, lr}
    1492:	1c04      	adds	r4, r0, #0
    1494:	1e15      	subs	r5, r2, #0
	static uint16_t idx;

	TRACE_ASSERT(name != NULL, "vTraceSetObjectName: name == NULL", );
    1496:	d103      	bne.n	14a0 <vTraceSetObjectName+0x10>
    1498:	4818      	ldr	r0, [pc, #96]	; (14fc <vTraceSetObjectName+0x6c>)
    149a:	4b19      	ldr	r3, [pc, #100]	; (1500 <vTraceSetObjectName+0x70>)
    149c:	4798      	blx	r3
    149e:	e02b      	b.n	14f8 <vTraceSetObjectName+0x68>

	if (objectclass >= TRACE_NCLASSES)
    14a0:	2806      	cmp	r0, #6
    14a2:	d903      	bls.n	14ac <vTraceSetObjectName+0x1c>
	{
		vTraceError("Illegal object class in vTraceSetObjectName");
    14a4:	4817      	ldr	r0, [pc, #92]	; (1504 <vTraceSetObjectName+0x74>)
    14a6:	4b16      	ldr	r3, [pc, #88]	; (1500 <vTraceSetObjectName+0x70>)
    14a8:	4798      	blx	r3
		return;
    14aa:	e025      	b.n	14f8 <vTraceSetObjectName+0x68>
	}

	if (handle == 0)
    14ac:	2900      	cmp	r1, #0
    14ae:	d103      	bne.n	14b8 <vTraceSetObjectName+0x28>
	{
		vTraceError("Illegal handle (0) in vTraceSetObjectName.");
    14b0:	4815      	ldr	r0, [pc, #84]	; (1508 <vTraceSetObjectName+0x78>)
    14b2:	4b13      	ldr	r3, [pc, #76]	; (1500 <vTraceSetObjectName+0x70>)
    14b4:	4798      	blx	r3
		return;
    14b6:	e01f      	b.n	14f8 <vTraceSetObjectName+0x68>
	}

	if (handle > RecorderDataPtr->ObjectPropertyTable.NumberOfObjectsPerClass[objectclass])
    14b8:	4b14      	ldr	r3, [pc, #80]	; (150c <vTraceSetObjectName+0x7c>)
    14ba:	681b      	ldr	r3, [r3, #0]
    14bc:	181b      	adds	r3, r3, r0
    14be:	3360      	adds	r3, #96	; 0x60
    14c0:	791b      	ldrb	r3, [r3, #4]
    14c2:	428b      	cmp	r3, r1
    14c4:	d204      	bcs.n	14d0 <vTraceSetObjectName+0x40>
	{
		/* ERROR */
		vTraceError(pszTraceGetErrorNotEnoughHandles(objectclass));
    14c6:	4b12      	ldr	r3, [pc, #72]	; (1510 <vTraceSetObjectName+0x80>)
    14c8:	4798      	blx	r3
    14ca:	4b0d      	ldr	r3, [pc, #52]	; (1500 <vTraceSetObjectName+0x70>)
    14cc:	4798      	blx	r3
    14ce:	e013      	b.n	14f8 <vTraceSetObjectName+0x68>
	}
	else
	{
		idx = uiIndexOfObject(handle, objectclass);
    14d0:	1c08      	adds	r0, r1, #0
    14d2:	1c21      	adds	r1, r4, #0
    14d4:	4b0f      	ldr	r3, [pc, #60]	; (1514 <vTraceSetObjectName+0x84>)
    14d6:	4798      	blx	r3
    14d8:	4b0f      	ldr	r3, [pc, #60]	; (1518 <vTraceSetObjectName+0x88>)
    14da:	8098      	strh	r0, [r3, #4]

		if (traceErrorMessage == NULL)
    14dc:	4b0b      	ldr	r3, [pc, #44]	; (150c <vTraceSetObjectName+0x7c>)
    14de:	685b      	ldr	r3, [r3, #4]
    14e0:	2b00      	cmp	r3, #0
    14e2:	d109      	bne.n	14f8 <vTraceSetObjectName+0x68>
		{
			(void)strncpy((char*)&(RecorderDataPtr->ObjectPropertyTable.objbytes[idx]),
    14e4:	4b09      	ldr	r3, [pc, #36]	; (150c <vTraceSetObjectName+0x7c>)
    14e6:	681b      	ldr	r3, [r3, #0]
    14e8:	1818      	adds	r0, r3, r0
    14ea:	308c      	adds	r0, #140	; 0x8c
				name,
				RecorderDataPtr->ObjectPropertyTable.NameLengthPerClass[ objectclass ]);
    14ec:	191b      	adds	r3, r3, r4
    14ee:	3368      	adds	r3, #104	; 0x68
	{
		idx = uiIndexOfObject(handle, objectclass);

		if (traceErrorMessage == NULL)
		{
			(void)strncpy((char*)&(RecorderDataPtr->ObjectPropertyTable.objbytes[idx]),
    14f0:	791a      	ldrb	r2, [r3, #4]
    14f2:	1c29      	adds	r1, r5, #0
    14f4:	4b09      	ldr	r3, [pc, #36]	; (151c <vTraceSetObjectName+0x8c>)
    14f6:	4798      	blx	r3
				name,
				RecorderDataPtr->ObjectPropertyTable.NameLengthPerClass[ objectclass ]);
		}
	}
}
    14f8:	bd38      	pop	{r3, r4, r5, pc}
    14fa:	46c0      	nop			; (mov r8, r8)
    14fc:	000059c0 	.word	0x000059c0
    1500:	0000102d 	.word	0x0000102d
    1504:	000059f0 	.word	0x000059f0
    1508:	00005a1c 	.word	0x00005a1c
    150c:	200004ac 	.word	0x200004ac
    1510:	000022fd 	.word	0x000022fd
    1514:	00001279 	.word	0x00001279
    1518:	2000052c 	.word	0x2000052c
    151c:	0000555d 	.word	0x0000555d

00001520 <prvCheckDataToBeOverwrittenForMultiEntryEvents>:
 *
 * This is assumed to execute within a critical section...
 *****************************************************************************/

void prvCheckDataToBeOverwrittenForMultiEntryEvents(uint8_t nofEntriesToCheck)
{
    1520:	b5f0      	push	{r4, r5, r6, r7, lr}
    1522:	b083      	sub	sp, #12
	/* Generic "int" type is desired - should be 16 bit variable on 16 bit HW */
	unsigned int i = 0;
	unsigned int e = 0;

	TRACE_ASSERT(nofEntriesToCheck != 0, 
    1524:	2800      	cmp	r0, #0
    1526:	d004      	beq.n	1532 <prvCheckDataToBeOverwrittenForMultiEntryEvents+0x12>
		"prvCheckDataToBeOverwrittenForMultiEntryEvents: nofEntriesToCheck == 0", );

	while (i < nofEntriesToCheck)
    1528:	1c07      	adds	r7, r0, #0
    152a:	2400      	movs	r4, #0
    152c:	2800      	cmp	r0, #0
    152e:	d104      	bne.n	153a <prvCheckDataToBeOverwrittenForMultiEntryEvents+0x1a>
    1530:	e04b      	b.n	15ca <prvCheckDataToBeOverwrittenForMultiEntryEvents+0xaa>
{
	/* Generic "int" type is desired - should be 16 bit variable on 16 bit HW */
	unsigned int i = 0;
	unsigned int e = 0;

	TRACE_ASSERT(nofEntriesToCheck != 0, 
    1532:	4827      	ldr	r0, [pc, #156]	; (15d0 <prvCheckDataToBeOverwrittenForMultiEntryEvents+0xb0>)
    1534:	4b27      	ldr	r3, [pc, #156]	; (15d4 <prvCheckDataToBeOverwrittenForMultiEntryEvents+0xb4>)
    1536:	4798      	blx	r3
    1538:	e047      	b.n	15ca <prvCheckDataToBeOverwrittenForMultiEntryEvents+0xaa>
		"prvCheckDataToBeOverwrittenForMultiEntryEvents: nofEntriesToCheck == 0", );

	while (i < nofEntriesToCheck)
	{
		e = RecorderDataPtr->nextFreeIndex + i;
    153a:	4d27      	ldr	r5, [pc, #156]	; (15d8 <prvCheckDataToBeOverwrittenForMultiEntryEvents+0xb8>)
    153c:	682b      	ldr	r3, [r5, #0]
    153e:	69d8      	ldr	r0, [r3, #28]
    1540:	1821      	adds	r1, r4, r0
		if ((RecorderDataPtr->eventData[e*4] > USER_EVENT) &&
    1542:	008e      	lsls	r6, r1, #2
    1544:	199a      	adds	r2, r3, r6
    1546:	2083      	movs	r0, #131	; 0x83
    1548:	0100      	lsls	r0, r0, #4
    154a:	1812      	adds	r2, r2, r0
    154c:	7812      	ldrb	r2, [r2, #0]
    154e:	1c10      	adds	r0, r2, #0
    1550:	3067      	adds	r0, #103	; 0x67
    1552:	b2c0      	uxtb	r0, r0
    1554:	280e      	cmp	r0, #14
    1556:	d80f      	bhi.n	1578 <prvCheckDataToBeOverwrittenForMultiEntryEvents+0x58>
			(RecorderDataPtr->eventData[e*4] < USER_EVENT + 16))
		{
			uint8_t nDataEvents = (uint8_t)(RecorderDataPtr->eventData[e*4] - USER_EVENT);
    1558:	3268      	adds	r2, #104	; 0x68
    155a:	b2d2      	uxtb	r2, r2
			if ((e + nDataEvents) < RecorderDataPtr->maxEvents)
    155c:	1851      	adds	r1, r2, r1
    155e:	6998      	ldr	r0, [r3, #24]
    1560:	4281      	cmp	r1, r0
    1562:	d22f      	bcs.n	15c4 <prvCheckDataToBeOverwrittenForMultiEntryEvents+0xa4>
			{
				(void)memset(& RecorderDataPtr->eventData[e*4], 0, 4 + 4 * nDataEvents);
    1564:	3201      	adds	r2, #1
    1566:	0092      	lsls	r2, r2, #2
    1568:	2183      	movs	r1, #131	; 0x83
    156a:	0109      	lsls	r1, r1, #4
    156c:	1876      	adds	r6, r6, r1
    156e:	1998      	adds	r0, r3, r6
    1570:	2100      	movs	r1, #0
    1572:	4b1a      	ldr	r3, [pc, #104]	; (15dc <prvCheckDataToBeOverwrittenForMultiEntryEvents+0xbc>)
    1574:	4798      	blx	r3
    1576:	e025      	b.n	15c4 <prvCheckDataToBeOverwrittenForMultiEntryEvents+0xa4>
			}
		}
		else if (RecorderDataPtr->eventData[e*4] == DIV_XPS)
    1578:	2a01      	cmp	r2, #1
    157a:	d123      	bne.n	15c4 <prvCheckDataToBeOverwrittenForMultiEntryEvents+0xa4>
		{
			if ((e + 1) < RecorderDataPtr->maxEvents)
    157c:	3101      	adds	r1, #1
    157e:	6998      	ldr	r0, [r3, #24]
    1580:	4281      	cmp	r1, r0
    1582:	d20d      	bcs.n	15a0 <prvCheckDataToBeOverwrittenForMultiEntryEvents+0x80>
			{
				/* Clear 8 bytes */
				(void)memset(& RecorderDataPtr->eventData[e*4], 0, 4 + 4);
    1584:	2183      	movs	r1, #131	; 0x83
    1586:	0109      	lsls	r1, r1, #4
    1588:	1876      	adds	r6, r6, r1
    158a:	199b      	adds	r3, r3, r6
    158c:	2200      	movs	r2, #0
    158e:	701a      	strb	r2, [r3, #0]
    1590:	705a      	strb	r2, [r3, #1]
    1592:	709a      	strb	r2, [r3, #2]
    1594:	70da      	strb	r2, [r3, #3]
    1596:	711a      	strb	r2, [r3, #4]
    1598:	715a      	strb	r2, [r3, #5]
    159a:	719a      	strb	r2, [r3, #6]
    159c:	71da      	strb	r2, [r3, #7]
    159e:	e011      	b.n	15c4 <prvCheckDataToBeOverwrittenForMultiEntryEvents+0xa4>
			}
			else
			{
				/* Clear 8 bytes, 4 first and 4 last */
				(void)memset(& RecorderDataPtr->eventData[0], 0, 4);
    15a0:	2283      	movs	r2, #131	; 0x83
    15a2:	0112      	lsls	r2, r2, #4
    15a4:	189b      	adds	r3, r3, r2
    15a6:	2200      	movs	r2, #0
    15a8:	701a      	strb	r2, [r3, #0]
    15aa:	705a      	strb	r2, [r3, #1]
    15ac:	709a      	strb	r2, [r3, #2]
    15ae:	70da      	strb	r2, [r3, #3]
				(void)memset(& RecorderDataPtr->eventData[e*4], 0, 4);
    15b0:	2383      	movs	r3, #131	; 0x83
    15b2:	011b      	lsls	r3, r3, #4
    15b4:	18f6      	adds	r6, r6, r3
    15b6:	4808      	ldr	r0, [pc, #32]	; (15d8 <prvCheckDataToBeOverwrittenForMultiEntryEvents+0xb8>)
    15b8:	6800      	ldr	r0, [r0, #0]
    15ba:	1986      	adds	r6, r0, r6
    15bc:	7032      	strb	r2, [r6, #0]
    15be:	7072      	strb	r2, [r6, #1]
    15c0:	70b2      	strb	r2, [r6, #2]
    15c2:	70f2      	strb	r2, [r6, #3]
			}
		}
		i++;
    15c4:	3401      	adds	r4, #1
	unsigned int e = 0;

	TRACE_ASSERT(nofEntriesToCheck != 0, 
		"prvCheckDataToBeOverwrittenForMultiEntryEvents: nofEntriesToCheck == 0", );

	while (i < nofEntriesToCheck)
    15c6:	42bc      	cmp	r4, r7
    15c8:	d3b8      	bcc.n	153c <prvCheckDataToBeOverwrittenForMultiEntryEvents+0x1c>
				(void)memset(& RecorderDataPtr->eventData[e*4], 0, 4);
			}
		}
		i++;
	}
}
    15ca:	b003      	add	sp, #12
    15cc:	bdf0      	pop	{r4, r5, r6, r7, pc}
    15ce:	46c0      	nop			; (mov r8, r8)
    15d0:	00005a48 	.word	0x00005a48
    15d4:	0000102d 	.word	0x0000102d
    15d8:	200004ac 	.word	0x200004ac
    15dc:	00005409 	.word	0x00005409

000015e0 <prvTraceUpdateCounters>:
 * prvTraceUpdateCounters
 *
 * Updates the index of the event buffer.
 ******************************************************************************/
void prvTraceUpdateCounters(void)
{	
    15e0:	b508      	push	{r3, lr}
	if (RecorderDataPtr->recorderActive == 0)
    15e2:	4b0b      	ldr	r3, [pc, #44]	; (1610 <prvTraceUpdateCounters+0x30>)
    15e4:	681b      	ldr	r3, [r3, #0]
    15e6:	6b1a      	ldr	r2, [r3, #48]	; 0x30
    15e8:	2a00      	cmp	r2, #0
    15ea:	d00f      	beq.n	160c <prvTraceUpdateCounters+0x2c>
	{
		return;
	}
	
	RecorderDataPtr->numEvents++;
    15ec:	695a      	ldr	r2, [r3, #20]
    15ee:	3201      	adds	r2, #1
    15f0:	615a      	str	r2, [r3, #20]

	RecorderDataPtr->nextFreeIndex++;
    15f2:	69da      	ldr	r2, [r3, #28]
    15f4:	3201      	adds	r2, #1
    15f6:	61da      	str	r2, [r3, #28]

	if (RecorderDataPtr->nextFreeIndex >= EVENT_BUFFER_SIZE)
    15f8:	4906      	ldr	r1, [pc, #24]	; (1614 <prvTraceUpdateCounters+0x34>)
    15fa:	428a      	cmp	r2, r1
    15fc:	d903      	bls.n	1606 <prvTraceUpdateCounters+0x26>
	{
#if (TRACE_RECORDER_STORE_MODE == TRACE_STORE_MODE_RING_BUFFER)
		RecorderDataPtr->bufferIsFull = 1;
    15fe:	2201      	movs	r2, #1
    1600:	621a      	str	r2, [r3, #32]
		RecorderDataPtr->nextFreeIndex = 0;
    1602:	2200      	movs	r2, #0
    1604:	61da      	str	r2, [r3, #28]
		vTraceStop();
#endif
	}

#if (TRACE_RECORDER_STORE_MODE == TRACE_STORE_MODE_RING_BUFFER)
	prvCheckDataToBeOverwrittenForMultiEntryEvents(1);
    1606:	2001      	movs	r0, #1
    1608:	4b03      	ldr	r3, [pc, #12]	; (1618 <prvTraceUpdateCounters+0x38>)
    160a:	4798      	blx	r3
#endif
}
    160c:	bd08      	pop	{r3, pc}
    160e:	46c0      	nop			; (mov r8, r8)
    1610:	200004ac 	.word	0x200004ac
    1614:	000003e7 	.word	0x000003e7
    1618:	00001521 	.word	0x00001521

0000161c <prvTraceGetDTS>:
 *
 * The parameter param_maxDTS should be 0xFF for 8-bit dts or 0xFFFF for
 * events with 16-bit dts fields.
 *****************************************************************************/
uint16_t prvTraceGetDTS(uint16_t param_maxDTS)
{
    161c:	b5f0      	push	{r4, r5, r6, r7, lr}
    161e:	b083      	sub	sp, #12
    1620:	1c04      	adds	r4, r0, #0
	static uint32_t old_timestamp = 0;
	XTSEvent* xts = 0;
	uint32_t dts = 0;
	uint32_t timestamp = 0;
    1622:	2300      	movs	r3, #0
    1624:	9301      	str	r3, [sp, #4]

	TRACE_ASSERT(param_maxDTS == 0xFF || param_maxDTS == 0xFFFF, "prvTraceGetDTS: Invalid value for param_maxDTS", 0);
    1626:	28ff      	cmp	r0, #255	; 0xff
    1628:	d007      	beq.n	163a <prvTraceGetDTS+0x1e>
    162a:	4b35      	ldr	r3, [pc, #212]	; (1700 <prvTraceGetDTS+0xe4>)
    162c:	4298      	cmp	r0, r3
    162e:	d004      	beq.n	163a <prvTraceGetDTS+0x1e>
    1630:	4834      	ldr	r0, [pc, #208]	; (1704 <prvTraceGetDTS+0xe8>)
    1632:	4b35      	ldr	r3, [pc, #212]	; (1708 <prvTraceGetDTS+0xec>)
    1634:	4798      	blx	r3
    1636:	2000      	movs	r0, #0
    1638:	e060      	b.n	16fc <prvTraceGetDTS+0xe0>

#if (SELECTED_PORT != PORT_ARM_CortexM)

	if (RecorderDataPtr->frequency == 0 && init_hwtc_count != HWTC_COUNT)
    163a:	4b34      	ldr	r3, [pc, #208]	; (170c <prvTraceGetDTS+0xf0>)
    163c:	681b      	ldr	r3, [r3, #0]
    163e:	6a58      	ldr	r0, [r3, #36]	; 0x24
    1640:	2800      	cmp	r0, #0
    1642:	d10d      	bne.n	1660 <prvTraceGetDTS+0x44>
    1644:	4a32      	ldr	r2, [pc, #200]	; (1710 <prvTraceGetDTS+0xf4>)
    1646:	6811      	ldr	r1, [r2, #0]
    1648:	4a32      	ldr	r2, [pc, #200]	; (1714 <prvTraceGetDTS+0xf8>)
    164a:	6812      	ldr	r2, [r2, #0]
    164c:	4291      	cmp	r1, r2
    164e:	d007      	beq.n	1660 <prvTraceGetDTS+0x44>
#if (SELECTED_PORT == PORT_Win32)
		RecorderDataPtr->frequency = 100000;
#elif (SELECTED_PORT == PORT_HWIndependent)
		RecorderDataPtr->frequency = TRACE_TICK_RATE_HZ;
#else
		RecorderDataPtr->frequency = (HWTC_PERIOD * TRACE_TICK_RATE_HZ) / (uint32_t)HWTC_DIVISOR;
    1650:	4a31      	ldr	r2, [pc, #196]	; (1718 <prvTraceGetDTS+0xfc>)
    1652:	6811      	ldr	r1, [r2, #0]
    1654:	3101      	adds	r1, #1
    1656:	22fa      	movs	r2, #250	; 0xfa
    1658:	0092      	lsls	r2, r2, #2
    165a:	434a      	muls	r2, r1
    165c:	0852      	lsrs	r2, r2, #1
    165e:	625a      	str	r2, [r3, #36]	; 0x24
	* The below statements read the timestamp from the timer port module.
	* If necessary, whole seconds are extracted using division while the rest
	* comes from the modulo operation.
	**************************************************************************/
	
	vTracePortGetTimeStamp(&timestamp);	
    1660:	a801      	add	r0, sp, #4
    1662:	4b2e      	ldr	r3, [pc, #184]	; (171c <prvTraceGetDTS+0x100>)
    1664:	4798      	blx	r3
	
	/***************************************************************************
	* Since dts is unsigned the result will be correct even if timestamp has
	* wrapped around.
	***************************************************************************/
	dts = timestamp - old_timestamp;
    1666:	9b01      	ldr	r3, [sp, #4]
    1668:	4a2d      	ldr	r2, [pc, #180]	; (1720 <prvTraceGetDTS+0x104>)
    166a:	6891      	ldr	r1, [r2, #8]
    166c:	1a5d      	subs	r5, r3, r1
	old_timestamp = timestamp;
    166e:	6093      	str	r3, [r2, #8]

	if (RecorderDataPtr->frequency > 0)
    1670:	4a26      	ldr	r2, [pc, #152]	; (170c <prvTraceGetDTS+0xf0>)
    1672:	6816      	ldr	r6, [r2, #0]
    1674:	6a77      	ldr	r7, [r6, #36]	; 0x24
    1676:	2f00      	cmp	r7, #0
    1678:	d01f      	beq.n	16ba <prvTraceGetDTS+0x9e>
	{
		/* Check if dts > 1 second */
		if (dts > RecorderDataPtr->frequency)
    167a:	42bd      	cmp	r5, r7
    167c:	d90e      	bls.n	169c <prvTraceGetDTS+0x80>
		{
			/* More than 1 second has passed */
			RecorderDataPtr->absTimeLastEventSecond += dts / RecorderDataPtr->frequency;
    167e:	1c28      	adds	r0, r5, #0
    1680:	1c39      	adds	r1, r7, #0
    1682:	4b28      	ldr	r3, [pc, #160]	; (1724 <prvTraceGetDTS+0x108>)
    1684:	4798      	blx	r3
    1686:	6af2      	ldr	r2, [r6, #44]	; 0x2c
    1688:	1810      	adds	r0, r2, r0
    168a:	62f0      	str	r0, [r6, #44]	; 0x2c
			/* The part that is not an entire second is added to absTimeLastEvent */
			RecorderDataPtr->absTimeLastEvent += dts % RecorderDataPtr->frequency;
    168c:	1c28      	adds	r0, r5, #0
    168e:	1c39      	adds	r1, r7, #0
    1690:	4b25      	ldr	r3, [pc, #148]	; (1728 <prvTraceGetDTS+0x10c>)
    1692:	4798      	blx	r3
    1694:	6ab3      	ldr	r3, [r6, #40]	; 0x28
    1696:	1859      	adds	r1, r3, r1
    1698:	62b1      	str	r1, [r6, #40]	; 0x28
    169a:	e002      	b.n	16a2 <prvTraceGetDTS+0x86>
		}
		else
		{
			RecorderDataPtr->absTimeLastEvent += dts;
    169c:	6ab0      	ldr	r0, [r6, #40]	; 0x28
    169e:	1943      	adds	r3, r0, r5
    16a0:	62b3      	str	r3, [r6, #40]	; 0x28
		}

		/* Check if absTimeLastEvent >= 1 second */
		if (RecorderDataPtr->absTimeLastEvent >= RecorderDataPtr->frequency)
    16a2:	4b1a      	ldr	r3, [pc, #104]	; (170c <prvTraceGetDTS+0xf0>)
    16a4:	681b      	ldr	r3, [r3, #0]
    16a6:	6a99      	ldr	r1, [r3, #40]	; 0x28
    16a8:	6a5a      	ldr	r2, [r3, #36]	; 0x24
    16aa:	4291      	cmp	r1, r2
    16ac:	d306      	bcc.n	16bc <prvTraceGetDTS+0xa0>
		{
			/* RecorderDataPtr->absTimeLastEvent is more than or equal to 1 second, but always less than 2 seconds */
			RecorderDataPtr->absTimeLastEventSecond++;
    16ae:	6ad8      	ldr	r0, [r3, #44]	; 0x2c
    16b0:	3001      	adds	r0, #1
    16b2:	62d8      	str	r0, [r3, #44]	; 0x2c
			RecorderDataPtr->absTimeLastEvent -= RecorderDataPtr->frequency;
    16b4:	1a8a      	subs	r2, r1, r2
    16b6:	629a      	str	r2, [r3, #40]	; 0x28
    16b8:	e000      	b.n	16bc <prvTraceGetDTS+0xa0>
		}
	}
	else
	{
		/* Special case if the recorder has not yet started (frequency may be uninitialized, i.e., zero) */
		RecorderDataPtr->absTimeLastEvent = timestamp;
    16ba:	62b3      	str	r3, [r6, #40]	; 0x28
	}

	/* If the dts (time since last event) does not fit in event->dts (only 8 or 16 bits) */
	if (dts > param_maxDTS)
    16bc:	42a5      	cmp	r5, r4
    16be:	d91b      	bls.n	16f8 <prvTraceGetDTS+0xdc>
	{
		/* Create an XTS event (eXtended TimeStamp) containing the higher dts bits*/
		xts = (XTSEvent*) xTraceNextFreeEventBufferSlot();
    16c0:	4b1a      	ldr	r3, [pc, #104]	; (172c <prvTraceGetDTS+0x110>)
    16c2:	4798      	blx	r3

		if (xts != NULL)
    16c4:	2800      	cmp	r0, #0
    16c6:	d017      	beq.n	16f8 <prvTraceGetDTS+0xdc>
		{
			if (param_maxDTS == 0xFFFF)
    16c8:	4b0d      	ldr	r3, [pc, #52]	; (1700 <prvTraceGetDTS+0xe4>)
    16ca:	429c      	cmp	r4, r3
    16cc:	d106      	bne.n	16dc <prvTraceGetDTS+0xc0>
			{
				xts->type = XTS16;
    16ce:	23a9      	movs	r3, #169	; 0xa9
    16d0:	7003      	strb	r3, [r0, #0]
				xts->xts_16 = (uint16_t)((dts / 0x10000) & 0xFFFF);
    16d2:	0c2b      	lsrs	r3, r5, #16
    16d4:	8043      	strh	r3, [r0, #2]
				xts->xts_8 = 0;
    16d6:	2300      	movs	r3, #0
    16d8:	7043      	strb	r3, [r0, #1]
    16da:	e00b      	b.n	16f4 <prvTraceGetDTS+0xd8>
			}
			else if (param_maxDTS == 0xFF)
    16dc:	2cff      	cmp	r4, #255	; 0xff
    16de:	d106      	bne.n	16ee <prvTraceGetDTS+0xd2>
			{
				xts->type = XTS8;
    16e0:	23a8      	movs	r3, #168	; 0xa8
    16e2:	7003      	strb	r3, [r0, #0]
				xts->xts_16 = (uint16_t)((dts / 0x100) & 0xFFFF);
    16e4:	0a2b      	lsrs	r3, r5, #8
    16e6:	8043      	strh	r3, [r0, #2]
				xts->xts_8 = (uint8_t)((dts / 0x1000000) & 0xFF);
    16e8:	0e2b      	lsrs	r3, r5, #24
    16ea:	7043      	strb	r3, [r0, #1]
    16ec:	e002      	b.n	16f4 <prvTraceGetDTS+0xd8>
			}
			else
			{
				vTraceError("Bad param_maxDTS in prvTraceGetDTS");
    16ee:	4810      	ldr	r0, [pc, #64]	; (1730 <prvTraceGetDTS+0x114>)
    16f0:	4b05      	ldr	r3, [pc, #20]	; (1708 <prvTraceGetDTS+0xec>)
    16f2:	4798      	blx	r3
			}
			prvTraceUpdateCounters();
    16f4:	4b0f      	ldr	r3, [pc, #60]	; (1734 <prvTraceGetDTS+0x118>)
    16f6:	4798      	blx	r3
		}
	}

	return (uint16_t)dts & param_maxDTS;
    16f8:	1c28      	adds	r0, r5, #0
    16fa:	4020      	ands	r0, r4
}
    16fc:	b003      	add	sp, #12
    16fe:	bdf0      	pop	{r4, r5, r6, r7, pc}
    1700:	0000ffff 	.word	0x0000ffff
    1704:	00005aa0 	.word	0x00005aa0
    1708:	0000102d 	.word	0x0000102d
    170c:	200004ac 	.word	0x200004ac
    1710:	e000e018 	.word	0xe000e018
    1714:	20002ef8 	.word	0x20002ef8
    1718:	e000e014 	.word	0xe000e014
    171c:	000019e1 	.word	0x000019e1
    1720:	2000052c 	.word	0x2000052c
    1724:	00005141 	.word	0x00005141
    1728:	000051c9 	.word	0x000051c9
    172c:	00001239 	.word	0x00001239
    1730:	00005ae0 	.word	0x00005ae0
    1734:	000015e1 	.word	0x000015e1

00001738 <prvTraceLookupSymbolTableEntry>:
 ******************************************************************************/
traceLabel prvTraceLookupSymbolTableEntry(const char* name,
										 uint8_t crc6,
										 uint8_t len,
										 traceLabel chn)
{
    1738:	b5f0      	push	{r4, r5, r6, r7, lr}
    173a:	4657      	mov	r7, sl
    173c:	464e      	mov	r6, r9
    173e:	4645      	mov	r5, r8
    1740:	b4e0      	push	{r5, r6, r7}
    1742:	4682      	mov	sl, r0
    1744:	4691      	mov	r9, r2
	uint16_t i = RecorderDataPtr->SymbolTable.latestEntryOfChecksum[ crc6 ];
    1746:	4a28      	ldr	r2, [pc, #160]	; (17e8 <prvTraceLookupSymbolTableEntry+0xb0>)
    1748:	6816      	ldr	r6, [r2, #0]
    174a:	22ea      	movs	r2, #234	; 0xea
    174c:	0092      	lsls	r2, r2, #2
    174e:	1889      	adds	r1, r1, r2
    1750:	0049      	lsls	r1, r1, #1
    1752:	5b8c      	ldrh	r4, [r1, r6]

	TRACE_ASSERT(name != NULL, "prvTraceLookupSymbolTableEntry: name == NULL", (traceLabel)0);
    1754:	2800      	cmp	r0, #0
    1756:	d104      	bne.n	1762 <prvTraceLookupSymbolTableEntry+0x2a>
    1758:	4824      	ldr	r0, [pc, #144]	; (17ec <prvTraceLookupSymbolTableEntry+0xb4>)
    175a:	4b25      	ldr	r3, [pc, #148]	; (17f0 <prvTraceLookupSymbolTableEntry+0xb8>)
    175c:	4798      	blx	r3
    175e:	2000      	movs	r0, #0
    1760:	e03d      	b.n	17de <prvTraceLookupSymbolTableEntry+0xa6>
	TRACE_ASSERT(len != 0, "prvTraceLookupSymbolTableEntry: len == 0", (traceLabel)0);
    1762:	464a      	mov	r2, r9
    1764:	2a00      	cmp	r2, #0
    1766:	d002      	beq.n	176e <prvTraceLookupSymbolTableEntry+0x36>

	while (i != 0)
    1768:	1e20      	subs	r0, r4, #0
    176a:	d038      	beq.n	17de <prvTraceLookupSymbolTableEntry+0xa6>
    176c:	e004      	b.n	1778 <prvTraceLookupSymbolTableEntry+0x40>
										 traceLabel chn)
{
	uint16_t i = RecorderDataPtr->SymbolTable.latestEntryOfChecksum[ crc6 ];

	TRACE_ASSERT(name != NULL, "prvTraceLookupSymbolTableEntry: name == NULL", (traceLabel)0);
	TRACE_ASSERT(len != 0, "prvTraceLookupSymbolTableEntry: len == 0", (traceLabel)0);
    176e:	4821      	ldr	r0, [pc, #132]	; (17f4 <prvTraceLookupSymbolTableEntry+0xbc>)
    1770:	4b1f      	ldr	r3, [pc, #124]	; (17f0 <prvTraceLookupSymbolTableEntry+0xb8>)
    1772:	4798      	blx	r3
    1774:	2000      	movs	r0, #0
    1776:	e032      	b.n	17de <prvTraceLookupSymbolTableEntry+0xa6>

	while (i != 0)
	{
		if (RecorderDataPtr->SymbolTable.symbytes[i + 2] == (chn & 0x00FF))
		{
			if (RecorderDataPtr->SymbolTable.symbytes[i + 3] == (chn / 0x100))
    1778:	0a1a      	lsrs	r2, r3, #8
    177a:	4690      	mov	r8, r2
	TRACE_ASSERT(name != NULL, "prvTraceLookupSymbolTableEntry: name == NULL", (traceLabel)0);
	TRACE_ASSERT(len != 0, "prvTraceLookupSymbolTableEntry: len == 0", (traceLabel)0);

	while (i != 0)
	{
		if (RecorderDataPtr->SymbolTable.symbytes[i + 2] == (chn & 0x00FF))
    177c:	27ff      	movs	r7, #255	; 0xff
    177e:	401f      	ands	r7, r3
    1780:	1c25      	adds	r5, r4, #0
    1782:	1933      	adds	r3, r6, r4
    1784:	4a1c      	ldr	r2, [pc, #112]	; (17f8 <prvTraceLookupSymbolTableEntry+0xc0>)
    1786:	189b      	adds	r3, r3, r2
    1788:	781b      	ldrb	r3, [r3, #0]
    178a:	42bb      	cmp	r3, r7
    178c:	d116      	bne.n	17bc <prvTraceLookupSymbolTableEntry+0x84>
		{
			if (RecorderDataPtr->SymbolTable.symbytes[i + 3] == (chn / 0x100))
    178e:	1933      	adds	r3, r6, r4
    1790:	4a1a      	ldr	r2, [pc, #104]	; (17fc <prvTraceLookupSymbolTableEntry+0xc4>)
    1792:	189b      	adds	r3, r3, r2
    1794:	781b      	ldrb	r3, [r3, #0]
    1796:	4543      	cmp	r3, r8
    1798:	d110      	bne.n	17bc <prvTraceLookupSymbolTableEntry+0x84>
			{
				if (RecorderDataPtr->SymbolTable.symbytes[i + 4 + len] == '\0')
    179a:	1d20      	adds	r0, r4, #4
    179c:	1833      	adds	r3, r6, r0
    179e:	444b      	add	r3, r9
    17a0:	2286      	movs	r2, #134	; 0x86
    17a2:	00d2      	lsls	r2, r2, #3
    17a4:	189b      	adds	r3, r3, r2
    17a6:	781b      	ldrb	r3, [r3, #0]
    17a8:	2b00      	cmp	r3, #0
    17aa:	d107      	bne.n	17bc <prvTraceLookupSymbolTableEntry+0x84>
				{
					if (strncmp((char*)(& RecorderDataPtr->SymbolTable.symbytes[i + 4]), name, len) == 0)
    17ac:	1880      	adds	r0, r0, r2
    17ae:	1830      	adds	r0, r6, r0
    17b0:	4651      	mov	r1, sl
    17b2:	464a      	mov	r2, r9
    17b4:	4b12      	ldr	r3, [pc, #72]	; (1800 <prvTraceLookupSymbolTableEntry+0xc8>)
    17b6:	4798      	blx	r3
    17b8:	2800      	cmp	r0, #0
    17ba:	d00d      	beq.n	17d8 <prvTraceLookupSymbolTableEntry+0xa0>
						break; /* found */
					}
				}
			}
		}
		i = (uint16_t)(RecorderDataPtr->SymbolTable.symbytes[i] + (RecorderDataPtr->SymbolTable.symbytes[i + 1] * 0x100));
    17bc:	1975      	adds	r5, r6, r5
    17be:	4a11      	ldr	r2, [pc, #68]	; (1804 <prvTraceLookupSymbolTableEntry+0xcc>)
    17c0:	18ab      	adds	r3, r5, r2
    17c2:	781c      	ldrb	r4, [r3, #0]
    17c4:	0224      	lsls	r4, r4, #8
    17c6:	2386      	movs	r3, #134	; 0x86
    17c8:	00db      	lsls	r3, r3, #3
    17ca:	18ed      	adds	r5, r5, r3
    17cc:	782b      	ldrb	r3, [r5, #0]
    17ce:	191c      	adds	r4, r3, r4
    17d0:	b2a4      	uxth	r4, r4
	uint16_t i = RecorderDataPtr->SymbolTable.latestEntryOfChecksum[ crc6 ];

	TRACE_ASSERT(name != NULL, "prvTraceLookupSymbolTableEntry: name == NULL", (traceLabel)0);
	TRACE_ASSERT(len != 0, "prvTraceLookupSymbolTableEntry: len == 0", (traceLabel)0);

	while (i != 0)
    17d2:	2c00      	cmp	r4, #0
    17d4:	d1d4      	bne.n	1780 <prvTraceLookupSymbolTableEntry+0x48>
    17d6:	e001      	b.n	17dc <prvTraceLookupSymbolTableEntry+0xa4>
    17d8:	1c20      	adds	r0, r4, #0
    17da:	e000      	b.n	17de <prvTraceLookupSymbolTableEntry+0xa6>
						break; /* found */
					}
				}
			}
		}
		i = (uint16_t)(RecorderDataPtr->SymbolTable.symbytes[i] + (RecorderDataPtr->SymbolTable.symbytes[i + 1] * 0x100));
    17dc:	1c20      	adds	r0, r4, #0
	}
	return i;
}
    17de:	bc1c      	pop	{r2, r3, r4}
    17e0:	4690      	mov	r8, r2
    17e2:	4699      	mov	r9, r3
    17e4:	46a2      	mov	sl, r4
    17e6:	bdf0      	pop	{r4, r5, r6, r7, pc}
    17e8:	200004ac 	.word	0x200004ac
    17ec:	00005b04 	.word	0x00005b04
    17f0:	0000102d 	.word	0x0000102d
    17f4:	00005b40 	.word	0x00005b40
    17f8:	00000432 	.word	0x00000432
    17fc:	00000433 	.word	0x00000433
    1800:	000054a5 	.word	0x000054a5
    1804:	00000431 	.word	0x00000431

00001808 <prvTraceCreateSymbolTableEntry>:
 ******************************************************************************/
uint16_t prvTraceCreateSymbolTableEntry(const char* name,
										uint8_t crc6,
										uint8_t len,
										traceLabel channel)
{
    1808:	b5f8      	push	{r3, r4, r5, r6, r7, lr}
    180a:	464f      	mov	r7, r9
    180c:	4646      	mov	r6, r8
    180e:	b4c0      	push	{r6, r7}
    1810:	1c05      	adds	r5, r0, #0
    1812:	1c14      	adds	r4, r2, #0
	uint16_t ret = 0;

	TRACE_ASSERT(name != NULL, "prvTraceCreateSymbolTableEntry: name == NULL", 0);
    1814:	2800      	cmp	r0, #0
    1816:	d104      	bne.n	1822 <prvTraceCreateSymbolTableEntry+0x1a>
    1818:	4826      	ldr	r0, [pc, #152]	; (18b4 <prvTraceCreateSymbolTableEntry+0xac>)
    181a:	4b27      	ldr	r3, [pc, #156]	; (18b8 <prvTraceCreateSymbolTableEntry+0xb0>)
    181c:	4798      	blx	r3
    181e:	2000      	movs	r0, #0
    1820:	e043      	b.n	18aa <prvTraceCreateSymbolTableEntry+0xa2>
	TRACE_ASSERT(len != 0, "prvTraceCreateSymbolTableEntry: len == 0", 0);
    1822:	2a00      	cmp	r2, #0
    1824:	d104      	bne.n	1830 <prvTraceCreateSymbolTableEntry+0x28>
    1826:	4825      	ldr	r0, [pc, #148]	; (18bc <prvTraceCreateSymbolTableEntry+0xb4>)
    1828:	4b23      	ldr	r3, [pc, #140]	; (18b8 <prvTraceCreateSymbolTableEntry+0xb0>)
    182a:	4798      	blx	r3
    182c:	2000      	movs	r0, #0
    182e:	e03c      	b.n	18aa <prvTraceCreateSymbolTableEntry+0xa2>

	if (RecorderDataPtr->SymbolTable.nextFreeSymbolIndex + len + 4 >= SYMBOL_TABLE_SIZE)
    1830:	4a23      	ldr	r2, [pc, #140]	; (18c0 <prvTraceCreateSymbolTableEntry+0xb8>)
    1832:	6812      	ldr	r2, [r2, #0]
    1834:	4823      	ldr	r0, [pc, #140]	; (18c4 <prvTraceCreateSymbolTableEntry+0xbc>)
    1836:	5810      	ldr	r0, [r2, r0]
    1838:	1d06      	adds	r6, r0, #4
    183a:	1937      	adds	r7, r6, r4
    183c:	46bc      	mov	ip, r7
    183e:	4f22      	ldr	r7, [pc, #136]	; (18c8 <prvTraceCreateSymbolTableEntry+0xc0>)
    1840:	45bc      	cmp	ip, r7
    1842:	d904      	bls.n	184e <prvTraceCreateSymbolTableEntry+0x46>
	{
		vTraceError("Symbol table full. Increase SYMBOL_TABLE_SIZE in trcConfig.h");
    1844:	4821      	ldr	r0, [pc, #132]	; (18cc <prvTraceCreateSymbolTableEntry+0xc4>)
    1846:	4b1c      	ldr	r3, [pc, #112]	; (18b8 <prvTraceCreateSymbolTableEntry+0xb0>)
    1848:	4798      	blx	r3
		ret = 0;
    184a:	2000      	movs	r0, #0
    184c:	e02d      	b.n	18aa <prvTraceCreateSymbolTableEntry+0xa2>
	else
	{

		RecorderDataPtr->SymbolTable.symbytes
			[ RecorderDataPtr->SymbolTable.nextFreeSymbolIndex] =
			(uint8_t)(RecorderDataPtr->SymbolTable.latestEntryOfChecksum[ crc6 ] & 0x00FF);
    184e:	27ea      	movs	r7, #234	; 0xea
    1850:	00bf      	lsls	r7, r7, #2
    1852:	19c9      	adds	r1, r1, r7
    1854:	0049      	lsls	r1, r1, #1
    1856:	4689      	mov	r9, r1
    1858:	5a89      	ldrh	r1, [r1, r2]
    185a:	4688      	mov	r8, r1
	}
	else
	{

		RecorderDataPtr->SymbolTable.symbytes
			[ RecorderDataPtr->SymbolTable.nextFreeSymbolIndex] =
    185c:	1810      	adds	r0, r2, r0
    185e:	2786      	movs	r7, #134	; 0x86
    1860:	00ff      	lsls	r7, r7, #3
    1862:	5439      	strb	r1, [r7, r0]
			(uint8_t)(RecorderDataPtr->SymbolTable.latestEntryOfChecksum[ crc6 ] & 0x00FF);

		RecorderDataPtr->SymbolTable.symbytes
			[ RecorderDataPtr->SymbolTable.nextFreeSymbolIndex + 1] =
    1864:	491a      	ldr	r1, [pc, #104]	; (18d0 <prvTraceCreateSymbolTableEntry+0xc8>)
			(uint8_t)(RecorderDataPtr->SymbolTable.latestEntryOfChecksum[ crc6 ] / 0x100);
    1866:	4647      	mov	r7, r8
    1868:	0a3f      	lsrs	r7, r7, #8
		RecorderDataPtr->SymbolTable.symbytes
			[ RecorderDataPtr->SymbolTable.nextFreeSymbolIndex] =
			(uint8_t)(RecorderDataPtr->SymbolTable.latestEntryOfChecksum[ crc6 ] & 0x00FF);

		RecorderDataPtr->SymbolTable.symbytes
			[ RecorderDataPtr->SymbolTable.nextFreeSymbolIndex + 1] =
    186a:	540f      	strb	r7, [r1, r0]
			(uint8_t)(RecorderDataPtr->SymbolTable.latestEntryOfChecksum[ crc6 ] / 0x100);

		RecorderDataPtr->SymbolTable.symbytes
			[ RecorderDataPtr->SymbolTable.nextFreeSymbolIndex + 2] =
    186c:	4919      	ldr	r1, [pc, #100]	; (18d4 <prvTraceCreateSymbolTableEntry+0xcc>)
    186e:	540b      	strb	r3, [r1, r0]
			(uint8_t)(channel & 0x00FF);

		RecorderDataPtr->SymbolTable.symbytes
			[ RecorderDataPtr->SymbolTable.nextFreeSymbolIndex + 3] =
    1870:	4f19      	ldr	r7, [pc, #100]	; (18d8 <prvTraceCreateSymbolTableEntry+0xd0>)
    1872:	19c0      	adds	r0, r0, r7
			(uint8_t)(channel / 0x100);
    1874:	0a1b      	lsrs	r3, r3, #8
		RecorderDataPtr->SymbolTable.symbytes
			[ RecorderDataPtr->SymbolTable.nextFreeSymbolIndex + 2] =
			(uint8_t)(channel & 0x00FF);

		RecorderDataPtr->SymbolTable.symbytes
			[ RecorderDataPtr->SymbolTable.nextFreeSymbolIndex + 3] =
    1876:	7003      	strb	r3, [r0, #0]
			(uint8_t)(channel / 0x100);

		/* set name (bytes 4...4+len-1) */
		(void)strncpy((char*)&(RecorderDataPtr->SymbolTable.symbytes
    1878:	2186      	movs	r1, #134	; 0x86
    187a:	00c9      	lsls	r1, r1, #3
    187c:	1876      	adds	r6, r6, r1
    187e:	1990      	adds	r0, r2, r6
    1880:	1c29      	adds	r1, r5, #0
    1882:	1c22      	adds	r2, r4, #0
    1884:	4b15      	ldr	r3, [pc, #84]	; (18dc <prvTraceCreateSymbolTableEntry+0xd4>)
    1886:	4798      	blx	r3
			[ RecorderDataPtr->SymbolTable.nextFreeSymbolIndex + 4]), name, len);

		/* Set zero termination (at offset 4+len) */
		RecorderDataPtr->SymbolTable.symbytes
			[RecorderDataPtr->SymbolTable.nextFreeSymbolIndex + 4 + len] = '\0';
    1888:	4b0d      	ldr	r3, [pc, #52]	; (18c0 <prvTraceCreateSymbolTableEntry+0xb8>)
    188a:	681b      	ldr	r3, [r3, #0]
    188c:	4a0d      	ldr	r2, [pc, #52]	; (18c4 <prvTraceCreateSymbolTableEntry+0xbc>)
    188e:	5899      	ldr	r1, [r3, r2]
    1890:	1860      	adds	r0, r4, r1
    1892:	181d      	adds	r5, r3, r0
    1894:	4e12      	ldr	r6, [pc, #72]	; (18e0 <prvTraceCreateSymbolTableEntry+0xd8>)
    1896:	19ad      	adds	r5, r5, r6
    1898:	2600      	movs	r6, #0
    189a:	702e      	strb	r6, [r5, #0]

		/* store index of entry (for return value, and as head of LL[crc6]) */
		RecorderDataPtr->SymbolTable.latestEntryOfChecksum
			[ crc6 ] = (uint16_t)RecorderDataPtr->SymbolTable.nextFreeSymbolIndex;
    189c:	464f      	mov	r7, r9
    189e:	52f9      	strh	r1, [r7, r3]

		RecorderDataPtr->SymbolTable.nextFreeSymbolIndex += (len + 5);
    18a0:	3005      	adds	r0, #5
    18a2:	5098      	str	r0, [r3, r2]

		ret = (uint16_t)(RecorderDataPtr->SymbolTable.nextFreeSymbolIndex -
    18a4:	1b00      	subs	r0, r0, r4
    18a6:	3805      	subs	r0, #5
    18a8:	b280      	uxth	r0, r0
			(len + 5));
	}

	return ret;
}
    18aa:	bc0c      	pop	{r2, r3}
    18ac:	4690      	mov	r8, r2
    18ae:	4699      	mov	r9, r3
    18b0:	bdf8      	pop	{r3, r4, r5, r6, r7, pc}
    18b2:	46c0      	nop			; (mov r8, r8)
    18b4:	00005b78 	.word	0x00005b78
    18b8:	0000102d 	.word	0x0000102d
    18bc:	00005bb4 	.word	0x00005bb4
    18c0:	200004ac 	.word	0x200004ac
    18c4:	0000042c 	.word	0x0000042c
    18c8:	0000031f 	.word	0x0000031f
    18cc:	00005bec 	.word	0x00005bec
    18d0:	00000431 	.word	0x00000431
    18d4:	00000432 	.word	0x00000432
    18d8:	00000433 	.word	0x00000433
    18dc:	0000555d 	.word	0x0000555d
    18e0:	00000434 	.word	0x00000434

000018e4 <prvTraceGetChecksum>:
 *
 * Calculates a simple 6-bit checksum from a string, used to index the string
 * for fast symbol table lookup.
 ******************************************************************************/
void prvTraceGetChecksum(const char *pname, uint8_t* pcrc, uint8_t* plength)
{
    18e4:	b538      	push	{r3, r4, r5, lr}
	unsigned char c;
	int length = 1;		/* Should be 1 to account for '\0' */
	int crc = 0;

	TRACE_ASSERT(pname != NULL, "prvTraceGetChecksum: pname == NULL", );
    18e6:	2800      	cmp	r0, #0
    18e8:	d103      	bne.n	18f2 <prvTraceGetChecksum+0xe>
    18ea:	4812      	ldr	r0, [pc, #72]	; (1934 <prvTraceGetChecksum+0x50>)
    18ec:	4b12      	ldr	r3, [pc, #72]	; (1938 <prvTraceGetChecksum+0x54>)
    18ee:	4798      	blx	r3
    18f0:	e01e      	b.n	1930 <prvTraceGetChecksum+0x4c>
	TRACE_ASSERT(pcrc != NULL, "prvTraceGetChecksum: pcrc == NULL", );
    18f2:	2900      	cmp	r1, #0
    18f4:	d103      	bne.n	18fe <prvTraceGetChecksum+0x1a>
    18f6:	4811      	ldr	r0, [pc, #68]	; (193c <prvTraceGetChecksum+0x58>)
    18f8:	4b0f      	ldr	r3, [pc, #60]	; (1938 <prvTraceGetChecksum+0x54>)
    18fa:	4798      	blx	r3
    18fc:	e018      	b.n	1930 <prvTraceGetChecksum+0x4c>
	TRACE_ASSERT(plength != NULL, "prvTraceGetChecksum: plength == NULL", );
    18fe:	2a00      	cmp	r2, #0
    1900:	d103      	bne.n	190a <prvTraceGetChecksum+0x26>
    1902:	480f      	ldr	r0, [pc, #60]	; (1940 <prvTraceGetChecksum+0x5c>)
    1904:	4b0c      	ldr	r3, [pc, #48]	; (1938 <prvTraceGetChecksum+0x54>)
    1906:	4798      	blx	r3
    1908:	e012      	b.n	1930 <prvTraceGetChecksum+0x4c>

	if (pname != (const char *) 0)
	{
		for (; (c = *pname++) != '\0';)
    190a:	7804      	ldrb	r4, [r0, #0]
    190c:	2c00      	cmp	r4, #0
    190e:	d009      	beq.n	1924 <prvTraceGetChecksum+0x40>
    1910:	2500      	movs	r5, #0
    1912:	2301      	movs	r3, #1
		{
			crc += c;
    1914:	192d      	adds	r5, r5, r4
			length++;
    1916:	3301      	adds	r3, #1
    1918:	18c4      	adds	r4, r0, r3
    191a:	3c01      	subs	r4, #1
	TRACE_ASSERT(pcrc != NULL, "prvTraceGetChecksum: pcrc == NULL", );
	TRACE_ASSERT(plength != NULL, "prvTraceGetChecksum: plength == NULL", );

	if (pname != (const char *) 0)
	{
		for (; (c = *pname++) != '\0';)
    191c:	7824      	ldrb	r4, [r4, #0]
    191e:	2c00      	cmp	r4, #0
    1920:	d1f8      	bne.n	1914 <prvTraceGetChecksum+0x30>
    1922:	e001      	b.n	1928 <prvTraceGetChecksum+0x44>
    1924:	2500      	movs	r5, #0
    1926:	2301      	movs	r3, #1
		{
			crc += c;
			length++;
		}
	}
	*pcrc = (uint8_t)(crc & 0x3F);
    1928:	203f      	movs	r0, #63	; 0x3f
    192a:	4005      	ands	r5, r0
    192c:	700d      	strb	r5, [r1, #0]
	*plength = (uint8_t)length;
    192e:	7013      	strb	r3, [r2, #0]
}
    1930:	bd38      	pop	{r3, r4, r5, pc}
    1932:	46c0      	nop			; (mov r8, r8)
    1934:	00005c2c 	.word	0x00005c2c
    1938:	0000102d 	.word	0x0000102d
    193c:	00005c60 	.word	0x00005c60
    1940:	00005c90 	.word	0x00005c90

00001944 <prvTraceOpenSymbol>:
		}
	}
}

traceLabel prvTraceOpenSymbol(const char* name, traceLabel userEventChannel)
{
    1944:	b5f0      	push	{r4, r5, r6, r7, lr}
    1946:	4647      	mov	r7, r8
    1948:	b480      	push	{r7}
    194a:	b082      	sub	sp, #8
    194c:	1c04      	adds	r4, r0, #0
    194e:	1c0f      	adds	r7, r1, #0
	uint16_t result;
	uint8_t len;
	uint8_t crc;
	TRACE_SR_ALLOC_CRITICAL_SECTION();
	
	len = 0;
    1950:	2200      	movs	r2, #0
    1952:	466b      	mov	r3, sp
    1954:	71da      	strb	r2, [r3, #7]
	crc = 0;
    1956:	466b      	mov	r3, sp
    1958:	719a      	strb	r2, [r3, #6]
	
	TRACE_ASSERT(name != NULL, "prvTraceOpenSymbol: name == NULL", (traceLabel)0);
    195a:	2800      	cmp	r0, #0
    195c:	d104      	bne.n	1968 <prvTraceOpenSymbol+0x24>
    195e:	4818      	ldr	r0, [pc, #96]	; (19c0 <prvTraceOpenSymbol+0x7c>)
    1960:	4b18      	ldr	r3, [pc, #96]	; (19c4 <prvTraceOpenSymbol+0x80>)
    1962:	4798      	blx	r3
    1964:	2000      	movs	r0, #0
    1966:	e027      	b.n	19b8 <prvTraceOpenSymbol+0x74>

	prvTraceGetChecksum(name, &crc, &len);
    1968:	466e      	mov	r6, sp
    196a:	3606      	adds	r6, #6
    196c:	466d      	mov	r5, sp
    196e:	3507      	adds	r5, #7
    1970:	1c31      	adds	r1, r6, #0
    1972:	1c2a      	adds	r2, r5, #0
    1974:	4b14      	ldr	r3, [pc, #80]	; (19c8 <prvTraceOpenSymbol+0x84>)
    1976:	4798      	blx	r3

	trcCRITICAL_SECTION_BEGIN();
    1978:	4b14      	ldr	r3, [pc, #80]	; (19cc <prvTraceOpenSymbol+0x88>)
    197a:	4798      	blx	r3
    197c:	4680      	mov	r8, r0
    197e:	4a14      	ldr	r2, [pc, #80]	; (19d0 <prvTraceOpenSymbol+0x8c>)
    1980:	68d3      	ldr	r3, [r2, #12]
    1982:	3301      	adds	r3, #1
    1984:	60d3      	str	r3, [r2, #12]
	result = prvTraceLookupSymbolTableEntry(name, crc, len, userEventChannel);
    1986:	7831      	ldrb	r1, [r6, #0]
    1988:	782a      	ldrb	r2, [r5, #0]
    198a:	1c20      	adds	r0, r4, #0
    198c:	1c3b      	adds	r3, r7, #0
    198e:	4d11      	ldr	r5, [pc, #68]	; (19d4 <prvTraceOpenSymbol+0x90>)
    1990:	47a8      	blx	r5
    1992:	1e05      	subs	r5, r0, #0
	if (!result)
    1994:	d108      	bne.n	19a8 <prvTraceOpenSymbol+0x64>
	{
		result = prvTraceCreateSymbolTableEntry(name, crc, len, userEventChannel);
    1996:	466b      	mov	r3, sp
    1998:	7999      	ldrb	r1, [r3, #6]
    199a:	466b      	mov	r3, sp
    199c:	79da      	ldrb	r2, [r3, #7]
    199e:	1c20      	adds	r0, r4, #0
    19a0:	1c3b      	adds	r3, r7, #0
    19a2:	4c0d      	ldr	r4, [pc, #52]	; (19d8 <prvTraceOpenSymbol+0x94>)
    19a4:	47a0      	blx	r4
    19a6:	1c05      	adds	r5, r0, #0
	}
	trcCRITICAL_SECTION_END();
    19a8:	4b09      	ldr	r3, [pc, #36]	; (19d0 <prvTraceOpenSymbol+0x8c>)
    19aa:	68da      	ldr	r2, [r3, #12]
    19ac:	3a01      	subs	r2, #1
    19ae:	60da      	str	r2, [r3, #12]
    19b0:	4640      	mov	r0, r8
    19b2:	4b0a      	ldr	r3, [pc, #40]	; (19dc <prvTraceOpenSymbol+0x98>)
    19b4:	4798      	blx	r3

	return result;
    19b6:	1c28      	adds	r0, r5, #0
}
    19b8:	b002      	add	sp, #8
    19ba:	bc04      	pop	{r2}
    19bc:	4690      	mov	r8, r2
    19be:	bdf0      	pop	{r4, r5, r6, r7, pc}
    19c0:	00005cc4 	.word	0x00005cc4
    19c4:	0000102d 	.word	0x0000102d
    19c8:	000018e5 	.word	0x000018e5
    19cc:	00002ab5 	.word	0x00002ab5
    19d0:	2000052c 	.word	0x2000052c
    19d4:	00001739 	.word	0x00001739
    19d8:	00001809 	.word	0x00001809
    19dc:	00002ac1 	.word	0x00002ac1

000019e0 <vTracePortGetTimeStamp>:
 * or the trace recorder library. Typically you should not need to change
 * the code of vTracePortGetTimeStamp if using the HWTC macros.
 *
 ******************************************************************************/
void vTracePortGetTimeStamp(uint32_t *pTimestamp)
{
    19e0:	b530      	push	{r4, r5, lr}
	static uint32_t last_traceTickCount = 0;
	static uint32_t last_hwtc_count = 0;
	uint32_t traceTickCount = 0;
	uint32_t hwtc_count = 0;

	if (trace_disable_timestamp == 1)
    19e2:	4b1a      	ldr	r3, [pc, #104]	; (1a4c <vTracePortGetTimeStamp+0x6c>)
    19e4:	681b      	ldr	r3, [r3, #0]
    19e6:	2b01      	cmp	r3, #1
    19e8:	d105      	bne.n	19f6 <vTracePortGetTimeStamp+0x16>
	{
		if (pTimestamp)
    19ea:	2800      	cmp	r0, #0
    19ec:	d02d      	beq.n	1a4a <vTracePortGetTimeStamp+0x6a>
			*pTimestamp = last_timestamp;
    19ee:	4b17      	ldr	r3, [pc, #92]	; (1a4c <vTracePortGetTimeStamp+0x6c>)
    19f0:	685b      	ldr	r3, [r3, #4]
    19f2:	6003      	str	r3, [r0, #0]
    19f4:	e029      	b.n	1a4a <vTracePortGetTimeStamp+0x6a>

	/* Retrieve HWTC_COUNT only once since the same value should be used all throughout this function. */
#if (HWTC_COUNT_DIRECTION == DIRECTION_INCREMENTING)
	hwtc_count = HWTC_COUNT;
#elif (HWTC_COUNT_DIRECTION == DIRECTION_DECREMENTING)
	hwtc_count = HWTC_PERIOD - HWTC_COUNT;
    19f6:	4b16      	ldr	r3, [pc, #88]	; (1a50 <vTracePortGetTimeStamp+0x70>)
    19f8:	6819      	ldr	r1, [r3, #0]
    19fa:	3101      	adds	r1, #1
    19fc:	4b15      	ldr	r3, [pc, #84]	; (1a54 <vTracePortGetTimeStamp+0x74>)
    19fe:	681a      	ldr	r2, [r3, #0]
    1a00:	1a8a      	subs	r2, r1, r2
	{
		hwtc_count = last_hwtc_count;
	}
#endif

	if (last_traceTickCount - uiTraceTickCount - 1 < 0x80000000)
    1a02:	4b12      	ldr	r3, [pc, #72]	; (1a4c <vTracePortGetTimeStamp+0x6c>)
    1a04:	689c      	ldr	r4, [r3, #8]
    1a06:	68db      	ldr	r3, [r3, #12]
    1a08:	43dd      	mvns	r5, r3
    1a0a:	42e5      	cmn	r5, r4
    1a0c:	d502      	bpl.n	1a14 <vTracePortGetTimeStamp+0x34>
		traceTickCount = uiTraceTickCount;
	}

	/* Check for overflow. May occur if the update of uiTraceTickCount has been
	delayed due to disabled interrupts. */
	if (traceTickCount == last_traceTickCount && hwtc_count < last_hwtc_count)
    1a0e:	429c      	cmp	r4, r3
    1a10:	d106      	bne.n	1a20 <vTracePortGetTimeStamp+0x40>
		traceTickCount = last_traceTickCount;
	}
	else
	{
		/* Business as usual */
		traceTickCount = uiTraceTickCount;
    1a12:	1c1c      	adds	r4, r3, #0
	}

	/* Check for overflow. May occur if the update of uiTraceTickCount has been
	delayed due to disabled interrupts. */
	if (traceTickCount == last_traceTickCount && hwtc_count < last_hwtc_count)
    1a14:	4b0d      	ldr	r3, [pc, #52]	; (1a4c <vTracePortGetTimeStamp+0x6c>)
    1a16:	691b      	ldr	r3, [r3, #16]
	{
		/* A trace tick has occurred but not been executed by the kernel, so we compensate manually. */
		traceTickCount++;
    1a18:	429a      	cmp	r2, r3
    1a1a:	419b      	sbcs	r3, r3
    1a1c:	425b      	negs	r3, r3
    1a1e:	18e3      	adds	r3, r4, r3
	}

	/* Check if the return address is OK, then we perform the calculation. */
	if (pTimestamp)
    1a20:	2800      	cmp	r0, #0
    1a22:	d00f      	beq.n	1a44 <vTracePortGetTimeStamp+0x64>
	{
		/* Get timestamp from trace ticks. Scale down the period to avoid unwanted overflows. */
		*pTimestamp = traceTickCount * (HWTC_PERIOD / HWTC_DIVISOR);
    1a24:	0849      	lsrs	r1, r1, #1
    1a26:	1c0c      	adds	r4, r1, #0
    1a28:	435c      	muls	r4, r3
    1a2a:	6004      	str	r4, [r0, #0]
		/* Increase timestamp by (hwtc_count + "lost hardware ticks from scaling down period") / HWTC_DIVISOR. */
		*pTimestamp += (hwtc_count + traceTickCount * (HWTC_PERIOD % HWTC_DIVISOR)) / HWTC_DIVISOR;
    1a2c:	4908      	ldr	r1, [pc, #32]	; (1a50 <vTracePortGetTimeStamp+0x70>)
    1a2e:	6809      	ldr	r1, [r1, #0]
    1a30:	3101      	adds	r1, #1
    1a32:	2501      	movs	r5, #1
    1a34:	4029      	ands	r1, r5
    1a36:	4359      	muls	r1, r3
    1a38:	1889      	adds	r1, r1, r2
    1a3a:	0849      	lsrs	r1, r1, #1
    1a3c:	1909      	adds	r1, r1, r4
    1a3e:	6001      	str	r1, [r0, #0]

		last_timestamp = *pTimestamp;
    1a40:	4802      	ldr	r0, [pc, #8]	; (1a4c <vTracePortGetTimeStamp+0x6c>)
    1a42:	6041      	str	r1, [r0, #4]
	}

	/* Store the previous values. */
	last_traceTickCount = traceTickCount;
    1a44:	4901      	ldr	r1, [pc, #4]	; (1a4c <vTracePortGetTimeStamp+0x6c>)
    1a46:	608b      	str	r3, [r1, #8]
	last_hwtc_count = hwtc_count;
    1a48:	610a      	str	r2, [r1, #16]
}
    1a4a:	bd30      	pop	{r4, r5, pc}
    1a4c:	20000560 	.word	0x20000560
    1a50:	e000e014 	.word	0xe000e014
    1a54:	e000e018 	.word	0xe000e018

00001a58 <vTraceStoreTaskReady>:
 * vTraceStoreTaskReady
 *
 * This function stores a ready state for the task handle sent in as parameter.
 ******************************************************************************/
void vTraceStoreTaskReady(objectHandleType handle)
{
    1a58:	b570      	push	{r4, r5, r6, lr}
    1a5a:	1e04      	subs	r4, r0, #0
	TREvent* tr;
	uint8_t hnd8;

	TRACE_SR_ALLOC_CRITICAL_SECTION();

	if (handle == 0)
    1a5c:	d03d      	beq.n	1ada <vTraceStoreTaskReady+0x82>
		/*  On FreeRTOS v7.3.0, this occurs when creating tasks due to a bad
		placement of the trace macro. In that case, the events are ignored. */
		return;
	}
	
	if (! readyEventsEnabled)
    1a5e:	4b1f      	ldr	r3, [pc, #124]	; (1adc <vTraceStoreTaskReady+0x84>)
    1a60:	681b      	ldr	r3, [r3, #0]
    1a62:	2b00      	cmp	r3, #0
    1a64:	d039      	beq.n	1ada <vTraceStoreTaskReady+0x82>
		a "hidden" (not traced) task, we must therefore disable recording 
		of ready events to avoid an undesired ready event... */
		return;
	}

	TRACE_ASSERT(handle <= NTask, "vTraceStoreTaskReady: Invalid value for handle", );
    1a66:	280f      	cmp	r0, #15
    1a68:	d903      	bls.n	1a72 <vTraceStoreTaskReady+0x1a>
    1a6a:	481d      	ldr	r0, [pc, #116]	; (1ae0 <vTraceStoreTaskReady+0x88>)
    1a6c:	4b1d      	ldr	r3, [pc, #116]	; (1ae4 <vTraceStoreTaskReady+0x8c>)
    1a6e:	4798      	blx	r3
    1a70:	e033      	b.n	1ada <vTraceStoreTaskReady+0x82>

	if (recorder_busy)
    1a72:	4b1d      	ldr	r3, [pc, #116]	; (1ae8 <vTraceStoreTaskReady+0x90>)
    1a74:	681b      	ldr	r3, [r3, #0]
    1a76:	2b00      	cmp	r3, #0
    1a78:	d003      	beq.n	1a82 <vTraceStoreTaskReady+0x2a>
	 * This should never occur, as the tick- and kernel call ISR is on lowest
	 * interrupt priority and always are disabled during the critical sections
	 * of the recorder.
	 ***********************************************************************/

	 vTraceError("Recorder busy - high priority ISR using syscall? (1)");
    1a7a:	481c      	ldr	r0, [pc, #112]	; (1aec <vTraceStoreTaskReady+0x94>)
    1a7c:	4b19      	ldr	r3, [pc, #100]	; (1ae4 <vTraceStoreTaskReady+0x8c>)
    1a7e:	4798      	blx	r3
	 return;
    1a80:	e02b      	b.n	1ada <vTraceStoreTaskReady+0x82>
	}

	trcCRITICAL_SECTION_BEGIN();
    1a82:	4b1b      	ldr	r3, [pc, #108]	; (1af0 <vTraceStoreTaskReady+0x98>)
    1a84:	4798      	blx	r3
    1a86:	1c05      	adds	r5, r0, #0
    1a88:	4b17      	ldr	r3, [pc, #92]	; (1ae8 <vTraceStoreTaskReady+0x90>)
    1a8a:	681a      	ldr	r2, [r3, #0]
    1a8c:	3201      	adds	r2, #1
    1a8e:	601a      	str	r2, [r3, #0]
	if (RecorderDataPtr->recorderActive) /* Need to repeat this check! */
    1a90:	4b18      	ldr	r3, [pc, #96]	; (1af4 <vTraceStoreTaskReady+0x9c>)
    1a92:	681b      	ldr	r3, [r3, #0]
    1a94:	6b1b      	ldr	r3, [r3, #48]	; 0x30
    1a96:	2b00      	cmp	r3, #0
    1a98:	d018      	beq.n	1acc <vTraceStoreTaskReady+0x74>
	{
		if (!TRACE_GET_TASK_FLAG_ISEXCLUDED(handle))
    1a9a:	1c23      	adds	r3, r4, #0
    1a9c:	3321      	adds	r3, #33	; 0x21
    1a9e:	10da      	asrs	r2, r3, #3
    1aa0:	4915      	ldr	r1, [pc, #84]	; (1af8 <vTraceStoreTaskReady+0xa0>)
    1aa2:	5c8a      	ldrb	r2, [r1, r2]
    1aa4:	2107      	movs	r1, #7
    1aa6:	400b      	ands	r3, r1
    1aa8:	411a      	asrs	r2, r3
    1aaa:	1c13      	adds	r3, r2, #0
    1aac:	07da      	lsls	r2, r3, #31
    1aae:	d40d      	bmi.n	1acc <vTraceStoreTaskReady+0x74>
		{
			dts3 = (uint16_t)prvTraceGetDTS(0xFFFF);
    1ab0:	4812      	ldr	r0, [pc, #72]	; (1afc <vTraceStoreTaskReady+0xa4>)
    1ab2:	4b13      	ldr	r3, [pc, #76]	; (1b00 <vTraceStoreTaskReady+0xa8>)
    1ab4:	4798      	blx	r3
    1ab6:	1c06      	adds	r6, r0, #0
			hnd8 = prvTraceGet8BitHandle(handle);
			tr = (TREvent*)xTraceNextFreeEventBufferSlot();
    1ab8:	4b12      	ldr	r3, [pc, #72]	; (1b04 <vTraceStoreTaskReady+0xac>)
    1aba:	4798      	blx	r3
			if (tr != NULL)
    1abc:	2800      	cmp	r0, #0
    1abe:	d005      	beq.n	1acc <vTraceStoreTaskReady+0x74>
			{
				tr->type = DIV_TASK_READY;
    1ac0:	2202      	movs	r2, #2
    1ac2:	7002      	strb	r2, [r0, #0]
				tr->dts = dts3;
    1ac4:	8046      	strh	r6, [r0, #2]
				tr->objHandle = hnd8;
    1ac6:	7044      	strb	r4, [r0, #1]
				prvTraceUpdateCounters();
    1ac8:	4b0f      	ldr	r3, [pc, #60]	; (1b08 <vTraceStoreTaskReady+0xb0>)
    1aca:	4798      	blx	r3
			}
		}
	}
	trcCRITICAL_SECTION_END();
    1acc:	4b06      	ldr	r3, [pc, #24]	; (1ae8 <vTraceStoreTaskReady+0x90>)
    1ace:	681a      	ldr	r2, [r3, #0]
    1ad0:	3a01      	subs	r2, #1
    1ad2:	601a      	str	r2, [r3, #0]
    1ad4:	1c28      	adds	r0, r5, #0
    1ad6:	4b0d      	ldr	r3, [pc, #52]	; (1b0c <vTraceStoreTaskReady+0xb4>)
    1ad8:	4798      	blx	r3
}
    1ada:	bd70      	pop	{r4, r5, r6, pc}
    1adc:	20000004 	.word	0x20000004
    1ae0:	00005cf4 	.word	0x00005cf4
    1ae4:	0000102d 	.word	0x0000102d
    1ae8:	20000538 	.word	0x20000538
    1aec:	00005d34 	.word	0x00005d34
    1af0:	00002ab5 	.word	0x00002ab5
    1af4:	200004ac 	.word	0x200004ac
    1af8:	20000528 	.word	0x20000528
    1afc:	0000ffff 	.word	0x0000ffff
    1b00:	0000161d 	.word	0x0000161d
    1b04:	00001239 	.word	0x00001239
    1b08:	000015e1 	.word	0x000015e1
    1b0c:	00002ac1 	.word	0x00002ac1

00001b10 <vTraceStoreKernelCall>:
 *
 * This is the main integration point for storing kernel calls, and
 * is called by the hooks in trcKernelHooks.h (see trcKernelPort.h for event codes).
 ******************************************************************************/
void vTraceStoreKernelCall(uint32_t ecode, traceObjectClass objectClass, uint32_t objectNumber)
{
    1b10:	b5f8      	push	{r3, r4, r5, r6, r7, lr}
    1b12:	1c05      	adds	r5, r0, #0
    1b14:	1c0c      	adds	r4, r1, #0
    1b16:	1c16      	adds	r6, r2, #0
	KernelCall * kse;
	uint16_t dts1;
	uint8_t hnd8;
	TRACE_SR_ALLOC_CRITICAL_SECTION();

	TRACE_ASSERT(ecode < 0xFF, "vTraceStoreKernelCall: ecode >= 0xFF", );
    1b18:	28fe      	cmp	r0, #254	; 0xfe
    1b1a:	d903      	bls.n	1b24 <vTraceStoreKernelCall+0x14>
    1b1c:	482d      	ldr	r0, [pc, #180]	; (1bd4 <vTraceStoreKernelCall+0xc4>)
    1b1e:	4b2e      	ldr	r3, [pc, #184]	; (1bd8 <vTraceStoreKernelCall+0xc8>)
    1b20:	4798      	blx	r3
    1b22:	e055      	b.n	1bd0 <vTraceStoreKernelCall+0xc0>
	TRACE_ASSERT(objectClass < TRACE_NCLASSES, "vTraceStoreKernelCall: objectClass >= TRACE_NCLASSES", );
    1b24:	2906      	cmp	r1, #6
    1b26:	d903      	bls.n	1b30 <vTraceStoreKernelCall+0x20>
    1b28:	482c      	ldr	r0, [pc, #176]	; (1bdc <vTraceStoreKernelCall+0xcc>)
    1b2a:	4b2b      	ldr	r3, [pc, #172]	; (1bd8 <vTraceStoreKernelCall+0xc8>)
    1b2c:	4798      	blx	r3
    1b2e:	e04f      	b.n	1bd0 <vTraceStoreKernelCall+0xc0>
	TRACE_ASSERT(objectNumber <= RecorderDataPtr->ObjectPropertyTable.NumberOfObjectsPerClass[objectClass], "vTraceStoreKernelCall: Invalid value for objectNumber", );
    1b30:	4b2b      	ldr	r3, [pc, #172]	; (1be0 <vTraceStoreKernelCall+0xd0>)
    1b32:	681b      	ldr	r3, [r3, #0]
    1b34:	185b      	adds	r3, r3, r1
    1b36:	3360      	adds	r3, #96	; 0x60
    1b38:	791b      	ldrb	r3, [r3, #4]
    1b3a:	4293      	cmp	r3, r2
    1b3c:	d203      	bcs.n	1b46 <vTraceStoreKernelCall+0x36>
    1b3e:	4829      	ldr	r0, [pc, #164]	; (1be4 <vTraceStoreKernelCall+0xd4>)
    1b40:	4b25      	ldr	r3, [pc, #148]	; (1bd8 <vTraceStoreKernelCall+0xc8>)
    1b42:	4798      	blx	r3
    1b44:	e044      	b.n	1bd0 <vTraceStoreKernelCall+0xc0>

	if (recorder_busy)
    1b46:	4b28      	ldr	r3, [pc, #160]	; (1be8 <vTraceStoreKernelCall+0xd8>)
    1b48:	681b      	ldr	r3, [r3, #0]
    1b4a:	2b00      	cmp	r3, #0
    1b4c:	d003      	beq.n	1b56 <vTraceStoreKernelCall+0x46>
		* or creates a user event.
		* Only ISRs that are disabled by TRACE_ENTER_CRITICAL_SECTION may use system calls
		* or user events (see TRACE_MAX_SYSCALL_INTERRUPT_PRIORITY).
		*************************************************************************/

		vTraceError("Recorder busy - high priority ISR using syscall? (2)");
    1b4e:	4827      	ldr	r0, [pc, #156]	; (1bec <vTraceStoreKernelCall+0xdc>)
    1b50:	4b21      	ldr	r3, [pc, #132]	; (1bd8 <vTraceStoreKernelCall+0xc8>)
    1b52:	4798      	blx	r3
		return;
    1b54:	e03c      	b.n	1bd0 <vTraceStoreKernelCall+0xc0>
	}

	if (handle_of_last_logged_task == 0)
    1b56:	4b26      	ldr	r3, [pc, #152]	; (1bf0 <vTraceStoreKernelCall+0xe0>)
    1b58:	781b      	ldrb	r3, [r3, #0]
    1b5a:	2b00      	cmp	r3, #0
    1b5c:	d038      	beq.n	1bd0 <vTraceStoreKernelCall+0xc0>
	{
		return;
	}

	trcCRITICAL_SECTION_BEGIN();
    1b5e:	4b25      	ldr	r3, [pc, #148]	; (1bf4 <vTraceStoreKernelCall+0xe4>)
    1b60:	4798      	blx	r3
    1b62:	1c07      	adds	r7, r0, #0
    1b64:	4b20      	ldr	r3, [pc, #128]	; (1be8 <vTraceStoreKernelCall+0xd8>)
    1b66:	681a      	ldr	r2, [r3, #0]
    1b68:	3201      	adds	r2, #1
    1b6a:	601a      	str	r2, [r3, #0]
	if (RecorderDataPtr->recorderActive)
    1b6c:	4b1c      	ldr	r3, [pc, #112]	; (1be0 <vTraceStoreKernelCall+0xd0>)
    1b6e:	681b      	ldr	r3, [r3, #0]
    1b70:	6b1b      	ldr	r3, [r3, #48]	; 0x30
    1b72:	2b00      	cmp	r3, #0
    1b74:	d025      	beq.n	1bc2 <vTraceStoreKernelCall+0xb2>
	{
		/* If it is an ISR or NOT an excluded task, this kernel call will be stored in the trace */
		if (nISRactive || !inExcludedTask)
    1b76:	4b1e      	ldr	r3, [pc, #120]	; (1bf0 <vTraceStoreKernelCall+0xe0>)
    1b78:	785b      	ldrb	r3, [r3, #1]
    1b7a:	b25b      	sxtb	r3, r3
    1b7c:	2b00      	cmp	r3, #0
    1b7e:	d103      	bne.n	1b88 <vTraceStoreKernelCall+0x78>
    1b80:	4b1b      	ldr	r3, [pc, #108]	; (1bf0 <vTraceStoreKernelCall+0xe0>)
    1b82:	789b      	ldrb	r3, [r3, #2]
    1b84:	2b00      	cmp	r3, #0
    1b86:	d11c      	bne.n	1bc2 <vTraceStoreKernelCall+0xb2>
		{
			/* Check if the referenced object or the event code is excluded */
			if (!uiTraceIsObjectExcluded(objectClass, (objectHandleType)objectNumber) && !TRACE_GET_EVENT_CODE_FLAG_ISEXCLUDED(ecode))
    1b88:	b2f6      	uxtb	r6, r6
    1b8a:	1c20      	adds	r0, r4, #0
    1b8c:	1c31      	adds	r1, r6, #0
    1b8e:	4b1a      	ldr	r3, [pc, #104]	; (1bf8 <vTraceStoreKernelCall+0xe8>)
    1b90:	4798      	blx	r3
    1b92:	2800      	cmp	r0, #0
    1b94:	d115      	bne.n	1bc2 <vTraceStoreKernelCall+0xb2>
    1b96:	08eb      	lsrs	r3, r5, #3
    1b98:	4a18      	ldr	r2, [pc, #96]	; (1bfc <vTraceStoreKernelCall+0xec>)
    1b9a:	5cd2      	ldrb	r2, [r2, r3]
    1b9c:	2307      	movs	r3, #7
    1b9e:	402b      	ands	r3, r5
    1ba0:	411a      	asrs	r2, r3
    1ba2:	1c13      	adds	r3, r2, #0
    1ba4:	07da      	lsls	r2, r3, #31
    1ba6:	d40c      	bmi.n	1bc2 <vTraceStoreKernelCall+0xb2>
			{
				dts1 = (uint16_t)prvTraceGetDTS(0xFFFF);
    1ba8:	4815      	ldr	r0, [pc, #84]	; (1c00 <vTraceStoreKernelCall+0xf0>)
    1baa:	4b16      	ldr	r3, [pc, #88]	; (1c04 <vTraceStoreKernelCall+0xf4>)
    1bac:	4798      	blx	r3
    1bae:	1c04      	adds	r4, r0, #0
				hnd8 = prvTraceGet8BitHandle(objectNumber);
				kse = (KernelCall*) xTraceNextFreeEventBufferSlot();
    1bb0:	4b15      	ldr	r3, [pc, #84]	; (1c08 <vTraceStoreKernelCall+0xf8>)
    1bb2:	4798      	blx	r3
				if (kse != NULL)
    1bb4:	2800      	cmp	r0, #0
    1bb6:	d004      	beq.n	1bc2 <vTraceStoreKernelCall+0xb2>
				{
					kse->dts = dts1;
    1bb8:	8044      	strh	r4, [r0, #2]
					kse->type = (uint8_t)ecode;
    1bba:	7005      	strb	r5, [r0, #0]
					kse->objHandle = hnd8;
    1bbc:	7046      	strb	r6, [r0, #1]
					prvTraceUpdateCounters();
    1bbe:	4b13      	ldr	r3, [pc, #76]	; (1c0c <vTraceStoreKernelCall+0xfc>)
    1bc0:	4798      	blx	r3
				}
			}
		}
	}
	trcCRITICAL_SECTION_END();
    1bc2:	4b09      	ldr	r3, [pc, #36]	; (1be8 <vTraceStoreKernelCall+0xd8>)
    1bc4:	681a      	ldr	r2, [r3, #0]
    1bc6:	3a01      	subs	r2, #1
    1bc8:	601a      	str	r2, [r3, #0]
    1bca:	1c38      	adds	r0, r7, #0
    1bcc:	4b10      	ldr	r3, [pc, #64]	; (1c10 <vTraceStoreKernelCall+0x100>)
    1bce:	4798      	blx	r3
#endif /* TRACE_SCHEDULING_ONLY */
}
    1bd0:	bdf8      	pop	{r3, r4, r5, r6, r7, pc}
    1bd2:	46c0      	nop			; (mov r8, r8)
    1bd4:	00005da4 	.word	0x00005da4
    1bd8:	0000102d 	.word	0x0000102d
    1bdc:	00005dd8 	.word	0x00005dd8
    1be0:	200004ac 	.word	0x200004ac
    1be4:	00005e1c 	.word	0x00005e1c
    1be8:	20000538 	.word	0x20000538
    1bec:	00005e60 	.word	0x00005e60
    1bf0:	20000578 	.word	0x20000578
    1bf4:	00002ab5 	.word	0x00002ab5
    1bf8:	0000234d 	.word	0x0000234d
    1bfc:	2000053c 	.word	0x2000053c
    1c00:	0000ffff 	.word	0x0000ffff
    1c04:	0000161d 	.word	0x0000161d
    1c08:	00001239 	.word	0x00001239
    1c0c:	000015e1 	.word	0x000015e1
    1c10:	00002ac1 	.word	0x00002ac1

00001c14 <vTraceStoreKernelCallWithParam>:
 ******************************************************************************/
void vTraceStoreKernelCallWithParam(uint32_t evtcode,
									traceObjectClass objectClass,
									uint32_t objectNumber,
									uint32_t param)
{
    1c14:	b5f8      	push	{r3, r4, r5, r6, r7, lr}
    1c16:	464f      	mov	r7, r9
    1c18:	4646      	mov	r6, r8
    1c1a:	b4c0      	push	{r6, r7}
    1c1c:	1c05      	adds	r5, r0, #0
    1c1e:	1c0c      	adds	r4, r1, #0
    1c20:	1c16      	adds	r6, r2, #0
    1c22:	1c1f      	adds	r7, r3, #0
	uint8_t dts2;
	uint8_t hnd8;
	uint8_t p8;
	TRACE_SR_ALLOC_CRITICAL_SECTION();

	TRACE_ASSERT(evtcode < 0xFF, "vTraceStoreKernelCall: evtcode >= 0xFF", );
    1c24:	28fe      	cmp	r0, #254	; 0xfe
    1c26:	d903      	bls.n	1c30 <vTraceStoreKernelCallWithParam+0x1c>
    1c28:	4838      	ldr	r0, [pc, #224]	; (1d0c <vTraceStoreKernelCallWithParam+0xf8>)
    1c2a:	4b39      	ldr	r3, [pc, #228]	; (1d10 <vTraceStoreKernelCallWithParam+0xfc>)
    1c2c:	4798      	blx	r3
    1c2e:	e068      	b.n	1d02 <vTraceStoreKernelCallWithParam+0xee>
	TRACE_ASSERT(objectClass < TRACE_NCLASSES, "vTraceStoreKernelCallWithParam: objectClass >= TRACE_NCLASSES", );
    1c30:	2906      	cmp	r1, #6
    1c32:	d903      	bls.n	1c3c <vTraceStoreKernelCallWithParam+0x28>
    1c34:	4837      	ldr	r0, [pc, #220]	; (1d14 <vTraceStoreKernelCallWithParam+0x100>)
    1c36:	4b36      	ldr	r3, [pc, #216]	; (1d10 <vTraceStoreKernelCallWithParam+0xfc>)
    1c38:	4798      	blx	r3
    1c3a:	e062      	b.n	1d02 <vTraceStoreKernelCallWithParam+0xee>
	TRACE_ASSERT(objectNumber <= RecorderDataPtr->ObjectPropertyTable.NumberOfObjectsPerClass[objectClass], "vTraceStoreKernelCallWithParam: Invalid value for objectNumber", );
    1c3c:	4b36      	ldr	r3, [pc, #216]	; (1d18 <vTraceStoreKernelCallWithParam+0x104>)
    1c3e:	681a      	ldr	r2, [r3, #0]
    1c40:	1852      	adds	r2, r2, r1
    1c42:	3260      	adds	r2, #96	; 0x60
    1c44:	7912      	ldrb	r2, [r2, #4]
    1c46:	42b2      	cmp	r2, r6
    1c48:	d203      	bcs.n	1c52 <vTraceStoreKernelCallWithParam+0x3e>
    1c4a:	4834      	ldr	r0, [pc, #208]	; (1d1c <vTraceStoreKernelCallWithParam+0x108>)
    1c4c:	4b30      	ldr	r3, [pc, #192]	; (1d10 <vTraceStoreKernelCallWithParam+0xfc>)
    1c4e:	4798      	blx	r3
    1c50:	e057      	b.n	1d02 <vTraceStoreKernelCallWithParam+0xee>

	if (recorder_busy)
    1c52:	4b33      	ldr	r3, [pc, #204]	; (1d20 <vTraceStoreKernelCallWithParam+0x10c>)
    1c54:	681b      	ldr	r3, [r3, #0]
    1c56:	2b00      	cmp	r3, #0
    1c58:	d003      	beq.n	1c62 <vTraceStoreKernelCallWithParam+0x4e>
		* or creates a user event.
		* Only ISRs that are disabled by TRACE_ENTER_CRITICAL_SECTION may use system calls
		* or user events (see TRACE_MAX_SYSCALL_INTERRUPT_PRIORITY).
		*************************************************************************/

		vTraceError("Recorder busy - high priority ISR using syscall? (3)");
    1c5a:	4832      	ldr	r0, [pc, #200]	; (1d24 <vTraceStoreKernelCallWithParam+0x110>)
    1c5c:	4b2c      	ldr	r3, [pc, #176]	; (1d10 <vTraceStoreKernelCallWithParam+0xfc>)
    1c5e:	4798      	blx	r3
		return;
    1c60:	e04f      	b.n	1d02 <vTraceStoreKernelCallWithParam+0xee>
	}

	trcCRITICAL_SECTION_BEGIN();
    1c62:	4b31      	ldr	r3, [pc, #196]	; (1d28 <vTraceStoreKernelCallWithParam+0x114>)
    1c64:	4798      	blx	r3
    1c66:	4680      	mov	r8, r0
    1c68:	4b2d      	ldr	r3, [pc, #180]	; (1d20 <vTraceStoreKernelCallWithParam+0x10c>)
    1c6a:	681a      	ldr	r2, [r3, #0]
    1c6c:	3201      	adds	r2, #1
    1c6e:	601a      	str	r2, [r3, #0]
	if (RecorderDataPtr->recorderActive && handle_of_last_logged_task && (! inExcludedTask || nISRactive))
    1c70:	4b29      	ldr	r3, [pc, #164]	; (1d18 <vTraceStoreKernelCallWithParam+0x104>)
    1c72:	681b      	ldr	r3, [r3, #0]
    1c74:	6b1b      	ldr	r3, [r3, #48]	; 0x30
    1c76:	2b00      	cmp	r3, #0
    1c78:	d03c      	beq.n	1cf4 <vTraceStoreKernelCallWithParam+0xe0>
    1c7a:	4b2c      	ldr	r3, [pc, #176]	; (1d2c <vTraceStoreKernelCallWithParam+0x118>)
    1c7c:	781b      	ldrb	r3, [r3, #0]
    1c7e:	2b00      	cmp	r3, #0
    1c80:	d038      	beq.n	1cf4 <vTraceStoreKernelCallWithParam+0xe0>
    1c82:	4b2a      	ldr	r3, [pc, #168]	; (1d2c <vTraceStoreKernelCallWithParam+0x118>)
    1c84:	789b      	ldrb	r3, [r3, #2]
    1c86:	2b00      	cmp	r3, #0
    1c88:	d004      	beq.n	1c94 <vTraceStoreKernelCallWithParam+0x80>
    1c8a:	4b28      	ldr	r3, [pc, #160]	; (1d2c <vTraceStoreKernelCallWithParam+0x118>)
    1c8c:	785b      	ldrb	r3, [r3, #1]
    1c8e:	b25b      	sxtb	r3, r3
    1c90:	2b00      	cmp	r3, #0
    1c92:	d02f      	beq.n	1cf4 <vTraceStoreKernelCallWithParam+0xe0>
	{
		/* Check if the referenced object or the event code is excluded */
		if (!uiTraceIsObjectExcluded(objectClass, (objectHandleType)objectNumber) &&
    1c94:	b2f6      	uxtb	r6, r6
    1c96:	1c20      	adds	r0, r4, #0
    1c98:	1c31      	adds	r1, r6, #0
    1c9a:	4b25      	ldr	r3, [pc, #148]	; (1d30 <vTraceStoreKernelCallWithParam+0x11c>)
    1c9c:	4798      	blx	r3
    1c9e:	2800      	cmp	r0, #0
    1ca0:	d128      	bne.n	1cf4 <vTraceStoreKernelCallWithParam+0xe0>
			!TRACE_GET_EVENT_CODE_FLAG_ISEXCLUDED(evtcode))
    1ca2:	08eb      	lsrs	r3, r5, #3
    1ca4:	4a23      	ldr	r2, [pc, #140]	; (1d34 <vTraceStoreKernelCallWithParam+0x120>)
    1ca6:	5cd2      	ldrb	r2, [r2, r3]
    1ca8:	2307      	movs	r3, #7
    1caa:	402b      	ands	r3, r5
    1cac:	411a      	asrs	r2, r3
    1cae:	1c13      	adds	r3, r2, #0

	trcCRITICAL_SECTION_BEGIN();
	if (RecorderDataPtr->recorderActive && handle_of_last_logged_task && (! inExcludedTask || nISRactive))
	{
		/* Check if the referenced object or the event code is excluded */
		if (!uiTraceIsObjectExcluded(objectClass, (objectHandleType)objectNumber) &&
    1cb0:	07da      	lsls	r2, r3, #31
    1cb2:	d41f      	bmi.n	1cf4 <vTraceStoreKernelCallWithParam+0xe0>
			!TRACE_GET_EVENT_CODE_FLAG_ISEXCLUDED(evtcode))
		{
			dts2 = (uint8_t)prvTraceGetDTS(0xFF);
    1cb4:	20ff      	movs	r0, #255	; 0xff
    1cb6:	4b20      	ldr	r3, [pc, #128]	; (1d38 <vTraceStoreKernelCallWithParam+0x124>)
    1cb8:	4798      	blx	r3
    1cba:	4681      	mov	r9, r0
	TRACE_ASSERT(param_max == 0xFF || param_max == 0xFFFF,
		"prvTraceGetParam: Invalid value for param_max", param);

	if (param <= param_max)
	{
		return param;
    1cbc:	1e3c      	subs	r4, r7, #0
	XPSEvent* xps;

	TRACE_ASSERT(param_max == 0xFF || param_max == 0xFFFF,
		"prvTraceGetParam: Invalid value for param_max", param);

	if (param <= param_max)
    1cbe:	2cff      	cmp	r4, #255	; 0xff
    1cc0:	d90d      	bls.n	1cde <vTraceStoreKernelCallWithParam+0xca>
	{
		return param;
	}
	else
	{
		xps = (XPSEvent*) xTraceNextFreeEventBufferSlot();
    1cc2:	4b1e      	ldr	r3, [pc, #120]	; (1d3c <vTraceStoreKernelCallWithParam+0x128>)
    1cc4:	4798      	blx	r3
		if (xps != NULL)
    1cc6:	2800      	cmp	r0, #0
    1cc8:	d007      	beq.n	1cda <vTraceStoreKernelCallWithParam+0xc6>
		{
			xps->type = DIV_XPS;
    1cca:	2301      	movs	r3, #1
    1ccc:	7003      	strb	r3, [r0, #0]
			xps->xps_8 = (param & (0xFF00 & ~param_max)) >> 8;
    1cce:	0a3b      	lsrs	r3, r7, #8
    1cd0:	7043      	strb	r3, [r0, #1]
			xps->xps_16 = (param & (0xFFFF0000 & ~param_max)) >> 16;
    1cd2:	0c3b      	lsrs	r3, r7, #16
    1cd4:	8043      	strh	r3, [r0, #2]
			prvTraceUpdateCounters();
    1cd6:	4b1a      	ldr	r3, [pc, #104]	; (1d40 <vTraceStoreKernelCallWithParam+0x12c>)
    1cd8:	4798      	blx	r3
		}

		return param & param_max;
    1cda:	24ff      	movs	r4, #255	; 0xff
    1cdc:	403c      	ands	r4, r7
			!TRACE_GET_EVENT_CODE_FLAG_ISEXCLUDED(evtcode))
		{
			dts2 = (uint8_t)prvTraceGetDTS(0xFF);
			p8 = (uint8_t) prvTraceGetParam(0xFF, param);
			hnd8 = prvTraceGet8BitHandle((objectHandleType)objectNumber);
			kse = (KernelCallWithParamAndHandle*) xTraceNextFreeEventBufferSlot();
    1cde:	4b17      	ldr	r3, [pc, #92]	; (1d3c <vTraceStoreKernelCallWithParam+0x128>)
    1ce0:	4798      	blx	r3
			if (kse != NULL)
    1ce2:	2800      	cmp	r0, #0
    1ce4:	d006      	beq.n	1cf4 <vTraceStoreKernelCallWithParam+0xe0>
			{
				kse->dts = dts2;
    1ce6:	464b      	mov	r3, r9
    1ce8:	70c3      	strb	r3, [r0, #3]
				kse->type = (uint8_t)evtcode;
    1cea:	7005      	strb	r5, [r0, #0]
				kse->objHandle = hnd8;
    1cec:	7046      	strb	r6, [r0, #1]
				kse->param = p8;
    1cee:	7084      	strb	r4, [r0, #2]
				prvTraceUpdateCounters();
    1cf0:	4b13      	ldr	r3, [pc, #76]	; (1d40 <vTraceStoreKernelCallWithParam+0x12c>)
    1cf2:	4798      	blx	r3
			}
		}
	}
	trcCRITICAL_SECTION_END();
    1cf4:	4b0a      	ldr	r3, [pc, #40]	; (1d20 <vTraceStoreKernelCallWithParam+0x10c>)
    1cf6:	681a      	ldr	r2, [r3, #0]
    1cf8:	3a01      	subs	r2, #1
    1cfa:	601a      	str	r2, [r3, #0]
    1cfc:	4640      	mov	r0, r8
    1cfe:	4b11      	ldr	r3, [pc, #68]	; (1d44 <vTraceStoreKernelCallWithParam+0x130>)
    1d00:	4798      	blx	r3
#endif /* TRACE_SCHEDULING_ONLY */
}
    1d02:	bc0c      	pop	{r2, r3}
    1d04:	4690      	mov	r8, r2
    1d06:	4699      	mov	r9, r3
    1d08:	bdf8      	pop	{r3, r4, r5, r6, r7, pc}
    1d0a:	46c0      	nop			; (mov r8, r8)
    1d0c:	00005e98 	.word	0x00005e98
    1d10:	0000102d 	.word	0x0000102d
    1d14:	00005ed0 	.word	0x00005ed0
    1d18:	200004ac 	.word	0x200004ac
    1d1c:	00005f1c 	.word	0x00005f1c
    1d20:	20000538 	.word	0x20000538
    1d24:	00005f6c 	.word	0x00005f6c
    1d28:	00002ab5 	.word	0x00002ab5
    1d2c:	20000578 	.word	0x20000578
    1d30:	0000234d 	.word	0x0000234d
    1d34:	2000053c 	.word	0x2000053c
    1d38:	0000161d 	.word	0x0000161d
    1d3c:	00001239 	.word	0x00001239
    1d40:	000015e1 	.word	0x000015e1
    1d44:	00002ac1 	.word	0x00002ac1

00001d48 <vTraceStoreKernelCallWithNumericParamOnly>:
 *
 * Used for storing kernel calls with numeric parameters only. This is
 * only used for traceTASK_DELAY and traceDELAY_UNTIL at the moment.
 ******************************************************************************/
void vTraceStoreKernelCallWithNumericParamOnly(uint32_t evtcode, uint32_t param)
{
    1d48:	b5f0      	push	{r4, r5, r6, r7, lr}
    1d4a:	4647      	mov	r7, r8
    1d4c:	b480      	push	{r7}
    1d4e:	1c04      	adds	r4, r0, #0
    1d50:	1c0d      	adds	r5, r1, #0
	uint16_t restParam;
	TRACE_SR_ALLOC_CRITICAL_SECTION();

	restParam = 0;

	TRACE_ASSERT(evtcode < 0xFF,
    1d52:	28fe      	cmp	r0, #254	; 0xfe
    1d54:	d903      	bls.n	1d5e <vTraceStoreKernelCallWithNumericParamOnly+0x16>
    1d56:	482c      	ldr	r0, [pc, #176]	; (1e08 <vTraceStoreKernelCallWithNumericParamOnly+0xc0>)
    1d58:	4b2c      	ldr	r3, [pc, #176]	; (1e0c <vTraceStoreKernelCallWithNumericParamOnly+0xc4>)
    1d5a:	4798      	blx	r3
    1d5c:	e050      	b.n	1e00 <vTraceStoreKernelCallWithNumericParamOnly+0xb8>
		"vTraceStoreKernelCallWithNumericParamOnly: Invalid value for evtcode", );

	if (recorder_busy)
    1d5e:	4b2c      	ldr	r3, [pc, #176]	; (1e10 <vTraceStoreKernelCallWithNumericParamOnly+0xc8>)
    1d60:	681b      	ldr	r3, [r3, #0]
    1d62:	2b00      	cmp	r3, #0
    1d64:	d003      	beq.n	1d6e <vTraceStoreKernelCallWithNumericParamOnly+0x26>
		* or creates a user event.
		* Only ISRs that are disabled by TRACE_ENTER_CRITICAL_SECTION may use system calls
		* or user events (see TRACE_MAX_SYSCALL_INTERRUPT_PRIORITY).
		*************************************************************************/

		vTraceError("Recorder busy - high priority ISR using syscall? (4)");
    1d66:	482b      	ldr	r0, [pc, #172]	; (1e14 <vTraceStoreKernelCallWithNumericParamOnly+0xcc>)
    1d68:	4b28      	ldr	r3, [pc, #160]	; (1e0c <vTraceStoreKernelCallWithNumericParamOnly+0xc4>)
    1d6a:	4798      	blx	r3
		return;
    1d6c:	e048      	b.n	1e00 <vTraceStoreKernelCallWithNumericParamOnly+0xb8>
	}

	trcCRITICAL_SECTION_BEGIN();
    1d6e:	4b2a      	ldr	r3, [pc, #168]	; (1e18 <vTraceStoreKernelCallWithNumericParamOnly+0xd0>)
    1d70:	4798      	blx	r3
    1d72:	1c06      	adds	r6, r0, #0
    1d74:	4b26      	ldr	r3, [pc, #152]	; (1e10 <vTraceStoreKernelCallWithNumericParamOnly+0xc8>)
    1d76:	681a      	ldr	r2, [r3, #0]
    1d78:	3201      	adds	r2, #1
    1d7a:	601a      	str	r2, [r3, #0]
	if (RecorderDataPtr->recorderActive && handle_of_last_logged_task
    1d7c:	4b27      	ldr	r3, [pc, #156]	; (1e1c <vTraceStoreKernelCallWithNumericParamOnly+0xd4>)
    1d7e:	681b      	ldr	r3, [r3, #0]
    1d80:	6b1b      	ldr	r3, [r3, #48]	; 0x30
    1d82:	2b00      	cmp	r3, #0
    1d84:	d035      	beq.n	1df2 <vTraceStoreKernelCallWithNumericParamOnly+0xaa>
    1d86:	4b26      	ldr	r3, [pc, #152]	; (1e20 <vTraceStoreKernelCallWithNumericParamOnly+0xd8>)
    1d88:	781b      	ldrb	r3, [r3, #0]
    1d8a:	2b00      	cmp	r3, #0
    1d8c:	d031      	beq.n	1df2 <vTraceStoreKernelCallWithNumericParamOnly+0xaa>
		&& (! inExcludedTask || nISRactive))
    1d8e:	4b24      	ldr	r3, [pc, #144]	; (1e20 <vTraceStoreKernelCallWithNumericParamOnly+0xd8>)
    1d90:	789b      	ldrb	r3, [r3, #2]
    1d92:	2b00      	cmp	r3, #0
    1d94:	d004      	beq.n	1da0 <vTraceStoreKernelCallWithNumericParamOnly+0x58>
    1d96:	4b22      	ldr	r3, [pc, #136]	; (1e20 <vTraceStoreKernelCallWithNumericParamOnly+0xd8>)
    1d98:	785b      	ldrb	r3, [r3, #1]
    1d9a:	b25b      	sxtb	r3, r3
    1d9c:	2b00      	cmp	r3, #0
    1d9e:	d028      	beq.n	1df2 <vTraceStoreKernelCallWithNumericParamOnly+0xaa>
	{
		/* Check if the event code is excluded */
		if (!TRACE_GET_EVENT_CODE_FLAG_ISEXCLUDED(evtcode))
    1da0:	08e3      	lsrs	r3, r4, #3
    1da2:	4a20      	ldr	r2, [pc, #128]	; (1e24 <vTraceStoreKernelCallWithNumericParamOnly+0xdc>)
    1da4:	5cd2      	ldrb	r2, [r2, r3]
    1da6:	2307      	movs	r3, #7
    1da8:	4023      	ands	r3, r4
    1daa:	411a      	asrs	r2, r3
    1dac:	1c13      	adds	r3, r2, #0
    1dae:	07da      	lsls	r2, r3, #31
    1db0:	d41f      	bmi.n	1df2 <vTraceStoreKernelCallWithNumericParamOnly+0xaa>
		{
			dts6 = (uint8_t)prvTraceGetDTS(0xFF);
    1db2:	20ff      	movs	r0, #255	; 0xff
    1db4:	4b1c      	ldr	r3, [pc, #112]	; (1e28 <vTraceStoreKernelCallWithNumericParamOnly+0xe0>)
    1db6:	4798      	blx	r3
    1db8:	4680      	mov	r8, r0
	TRACE_ASSERT(param_max == 0xFF || param_max == 0xFFFF,
		"prvTraceGetParam: Invalid value for param_max", param);

	if (param <= param_max)
	{
		return param;
    1dba:	1c2f      	adds	r7, r5, #0
	XPSEvent* xps;

	TRACE_ASSERT(param_max == 0xFF || param_max == 0xFFFF,
		"prvTraceGetParam: Invalid value for param_max", param);

	if (param <= param_max)
    1dbc:	4b1b      	ldr	r3, [pc, #108]	; (1e2c <vTraceStoreKernelCallWithNumericParamOnly+0xe4>)
    1dbe:	429d      	cmp	r5, r3
    1dc0:	d90d      	bls.n	1dde <vTraceStoreKernelCallWithNumericParamOnly+0x96>
	{
		return param;
	}
	else
	{
		xps = (XPSEvent*) xTraceNextFreeEventBufferSlot();
    1dc2:	4b1b      	ldr	r3, [pc, #108]	; (1e30 <vTraceStoreKernelCallWithNumericParamOnly+0xe8>)
    1dc4:	4798      	blx	r3
		if (xps != NULL)
    1dc6:	2800      	cmp	r0, #0
    1dc8:	d007      	beq.n	1dda <vTraceStoreKernelCallWithNumericParamOnly+0x92>
		{
			xps->type = DIV_XPS;
    1dca:	2301      	movs	r3, #1
    1dcc:	7003      	strb	r3, [r0, #0]
			xps->xps_8 = (param & (0xFF00 & ~param_max)) >> 8;
    1dce:	2300      	movs	r3, #0
    1dd0:	7043      	strb	r3, [r0, #1]
			xps->xps_16 = (param & (0xFFFF0000 & ~param_max)) >> 16;
    1dd2:	0c2b      	lsrs	r3, r5, #16
    1dd4:	8043      	strh	r3, [r0, #2]
			prvTraceUpdateCounters();
    1dd6:	4b17      	ldr	r3, [pc, #92]	; (1e34 <vTraceStoreKernelCallWithNumericParamOnly+0xec>)
    1dd8:	4798      	blx	r3
		}

		return param & param_max;
    1dda:	042d      	lsls	r5, r5, #16
    1ddc:	0c2f      	lsrs	r7, r5, #16
		/* Check if the event code is excluded */
		if (!TRACE_GET_EVENT_CODE_FLAG_ISEXCLUDED(evtcode))
		{
			dts6 = (uint8_t)prvTraceGetDTS(0xFF);
			restParam = (uint16_t)prvTraceGetParam(0xFFFF, param);
			kse = (KernelCallWithParam16*) xTraceNextFreeEventBufferSlot();
    1dde:	4b14      	ldr	r3, [pc, #80]	; (1e30 <vTraceStoreKernelCallWithNumericParamOnly+0xe8>)
    1de0:	4798      	blx	r3
			if (kse != NULL)
    1de2:	2800      	cmp	r0, #0
    1de4:	d005      	beq.n	1df2 <vTraceStoreKernelCallWithNumericParamOnly+0xaa>
			{
				kse->dts = dts6;
    1de6:	4643      	mov	r3, r8
    1de8:	7043      	strb	r3, [r0, #1]
				kse->type = (uint8_t)evtcode;
    1dea:	7004      	strb	r4, [r0, #0]
				kse->param = restParam;
    1dec:	8047      	strh	r7, [r0, #2]
				prvTraceUpdateCounters();
    1dee:	4b11      	ldr	r3, [pc, #68]	; (1e34 <vTraceStoreKernelCallWithNumericParamOnly+0xec>)
    1df0:	4798      	blx	r3
			}
		}
	}
	trcCRITICAL_SECTION_END();
    1df2:	4b07      	ldr	r3, [pc, #28]	; (1e10 <vTraceStoreKernelCallWithNumericParamOnly+0xc8>)
    1df4:	681a      	ldr	r2, [r3, #0]
    1df6:	3a01      	subs	r2, #1
    1df8:	601a      	str	r2, [r3, #0]
    1dfa:	1c30      	adds	r0, r6, #0
    1dfc:	4b0e      	ldr	r3, [pc, #56]	; (1e38 <vTraceStoreKernelCallWithNumericParamOnly+0xf0>)
    1dfe:	4798      	blx	r3
#endif /* TRACE_SCHEDULING_ONLY */
}
    1e00:	bc04      	pop	{r2}
    1e02:	4690      	mov	r8, r2
    1e04:	bdf0      	pop	{r4, r5, r6, r7, pc}
    1e06:	46c0      	nop			; (mov r8, r8)
    1e08:	00005fa4 	.word	0x00005fa4
    1e0c:	0000102d 	.word	0x0000102d
    1e10:	20000538 	.word	0x20000538
    1e14:	00005ff8 	.word	0x00005ff8
    1e18:	00002ab5 	.word	0x00002ab5
    1e1c:	200004ac 	.word	0x200004ac
    1e20:	20000578 	.word	0x20000578
    1e24:	2000053c 	.word	0x2000053c
    1e28:	0000161d 	.word	0x0000161d
    1e2c:	0000ffff 	.word	0x0000ffff
    1e30:	00001239 	.word	0x00001239
    1e34:	000015e1 	.word	0x000015e1
    1e38:	00002ac1 	.word	0x00002ac1

00001e3c <vTraceStoreObjectNameOnCloseEvent>:
 * "old" one, valid up until this point.
 ******************************************************************************/
#if (INCLUDE_OBJECT_DELETE == 1)
void vTraceStoreObjectNameOnCloseEvent(objectHandleType handle,
										traceObjectClass objectclass)
{
    1e3c:	b570      	push	{r4, r5, r6, lr}
    1e3e:	1c06      	adds	r6, r0, #0
    1e40:	1e0c      	subs	r4, r1, #0
	ObjCloseNameEvent * ce;
	const char * name;
	traceLabel idx;

	TRACE_ASSERT(objectclass < TRACE_NCLASSES,
    1e42:	2c06      	cmp	r4, #6
    1e44:	d903      	bls.n	1e4e <vTraceStoreObjectNameOnCloseEvent+0x12>
    1e46:	4812      	ldr	r0, [pc, #72]	; (1e90 <vTraceStoreObjectNameOnCloseEvent+0x54>)
    1e48:	4b12      	ldr	r3, [pc, #72]	; (1e94 <vTraceStoreObjectNameOnCloseEvent+0x58>)
    1e4a:	4798      	blx	r3
    1e4c:	e01f      	b.n	1e8e <vTraceStoreObjectNameOnCloseEvent+0x52>
		"vTraceStoreObjectNameOnCloseEvent: objectclass >= TRACE_NCLASSES", );
	TRACE_ASSERT(handle <= RecorderDataPtr->ObjectPropertyTable.NumberOfObjectsPerClass[objectclass],
    1e4e:	4b12      	ldr	r3, [pc, #72]	; (1e98 <vTraceStoreObjectNameOnCloseEvent+0x5c>)
    1e50:	681d      	ldr	r5, [r3, #0]
    1e52:	186b      	adds	r3, r5, r1
    1e54:	3360      	adds	r3, #96	; 0x60
    1e56:	791b      	ldrb	r3, [r3, #4]
    1e58:	4283      	cmp	r3, r0
    1e5a:	d203      	bcs.n	1e64 <vTraceStoreObjectNameOnCloseEvent+0x28>
    1e5c:	480f      	ldr	r0, [pc, #60]	; (1e9c <vTraceStoreObjectNameOnCloseEvent+0x60>)
    1e5e:	4b0d      	ldr	r3, [pc, #52]	; (1e94 <vTraceStoreObjectNameOnCloseEvent+0x58>)
    1e60:	4798      	blx	r3
    1e62:	e014      	b.n	1e8e <vTraceStoreObjectNameOnCloseEvent+0x52>
		"vTraceStoreObjectNameOnCloseEvent: Invalid value for handle", );

	if (RecorderDataPtr->recorderActive)
    1e64:	6b2b      	ldr	r3, [r5, #48]	; 0x30
    1e66:	2b00      	cmp	r3, #0
    1e68:	d011      	beq.n	1e8e <vTraceStoreObjectNameOnCloseEvent+0x52>
	{
		uint8_t hnd8 = prvTraceGet8BitHandle(handle);
		name = TRACE_PROPERTY_NAME_GET(objectclass, handle);
    1e6a:	4b0d      	ldr	r3, [pc, #52]	; (1ea0 <vTraceStoreObjectNameOnCloseEvent+0x64>)
    1e6c:	4798      	blx	r3
    1e6e:	1828      	adds	r0, r5, r0
    1e70:	308c      	adds	r0, #140	; 0x8c
		idx = prvTraceOpenSymbol(name, 0);
    1e72:	2100      	movs	r1, #0
    1e74:	4b0b      	ldr	r3, [pc, #44]	; (1ea4 <vTraceStoreObjectNameOnCloseEvent+0x68>)
    1e76:	4798      	blx	r3
    1e78:	1c05      	adds	r5, r0, #0

		// Interrupt disable not necessary, already done in trcHooks.h macro
		ce = (ObjCloseNameEvent*) xTraceNextFreeEventBufferSlot();
    1e7a:	4b0b      	ldr	r3, [pc, #44]	; (1ea8 <vTraceStoreObjectNameOnCloseEvent+0x6c>)
    1e7c:	4798      	blx	r3
		if (ce != NULL)
    1e7e:	2800      	cmp	r0, #0
    1e80:	d005      	beq.n	1e8e <vTraceStoreObjectNameOnCloseEvent+0x52>
		{
			ce->type = EVENTGROUP_OBJCLOSE_NAME + objectclass;
    1e82:	3408      	adds	r4, #8
    1e84:	7004      	strb	r4, [r0, #0]
			ce->objHandle = hnd8;
    1e86:	7046      	strb	r6, [r0, #1]
			ce->symbolIndex = idx;
    1e88:	8045      	strh	r5, [r0, #2]
			prvTraceUpdateCounters();
    1e8a:	4b08      	ldr	r3, [pc, #32]	; (1eac <vTraceStoreObjectNameOnCloseEvent+0x70>)
    1e8c:	4798      	blx	r3
		}
	}
}
    1e8e:	bd70      	pop	{r4, r5, r6, pc}
    1e90:	00006030 	.word	0x00006030
    1e94:	0000102d 	.word	0x0000102d
    1e98:	200004ac 	.word	0x200004ac
    1e9c:	00006080 	.word	0x00006080
    1ea0:	00001279 	.word	0x00001279
    1ea4:	00001945 	.word	0x00001945
    1ea8:	00001239 	.word	0x00001239
    1eac:	000015e1 	.word	0x000015e1

00001eb0 <vTraceStoreObjectPropertiesOnCloseEvent>:

void vTraceStoreObjectPropertiesOnCloseEvent(objectHandleType handle,
											 traceObjectClass objectclass)
{
    1eb0:	b570      	push	{r4, r5, r6, lr}
    1eb2:	1c05      	adds	r5, r0, #0
    1eb4:	1e0c      	subs	r4, r1, #0
	ObjClosePropEvent * pe;

	TRACE_ASSERT(objectclass < TRACE_NCLASSES,
    1eb6:	2c06      	cmp	r4, #6
    1eb8:	d903      	bls.n	1ec2 <vTraceStoreObjectPropertiesOnCloseEvent+0x12>
    1eba:	481d      	ldr	r0, [pc, #116]	; (1f30 <vTraceStoreObjectPropertiesOnCloseEvent+0x80>)
    1ebc:	4b1d      	ldr	r3, [pc, #116]	; (1f34 <vTraceStoreObjectPropertiesOnCloseEvent+0x84>)
    1ebe:	4798      	blx	r3
    1ec0:	e034      	b.n	1f2c <vTraceStoreObjectPropertiesOnCloseEvent+0x7c>
		"vTraceStoreObjectPropertiesOnCloseEvent: objectclass >= TRACE_NCLASSES", );
	TRACE_ASSERT(handle <= RecorderDataPtr->ObjectPropertyTable.NumberOfObjectsPerClass[objectclass],
    1ec2:	4b1d      	ldr	r3, [pc, #116]	; (1f38 <vTraceStoreObjectPropertiesOnCloseEvent+0x88>)
    1ec4:	681b      	ldr	r3, [r3, #0]
    1ec6:	185a      	adds	r2, r3, r1
    1ec8:	3260      	adds	r2, #96	; 0x60
    1eca:	7912      	ldrb	r2, [r2, #4]
    1ecc:	4282      	cmp	r2, r0
    1ece:	d203      	bcs.n	1ed8 <vTraceStoreObjectPropertiesOnCloseEvent+0x28>
    1ed0:	481a      	ldr	r0, [pc, #104]	; (1f3c <vTraceStoreObjectPropertiesOnCloseEvent+0x8c>)
    1ed2:	4b18      	ldr	r3, [pc, #96]	; (1f34 <vTraceStoreObjectPropertiesOnCloseEvent+0x84>)
    1ed4:	4798      	blx	r3
    1ed6:	e029      	b.n	1f2c <vTraceStoreObjectPropertiesOnCloseEvent+0x7c>
		"vTraceStoreObjectPropertiesOnCloseEvent: Invalid value for handle", );

	if (RecorderDataPtr->recorderActive)
    1ed8:	6b1b      	ldr	r3, [r3, #48]	; 0x30
    1eda:	2b00      	cmp	r3, #0
    1edc:	d026      	beq.n	1f2c <vTraceStoreObjectPropertiesOnCloseEvent+0x7c>
	{
		// Interrupt disable not necessary, already done in trcHooks.h macro
		pe = (ObjClosePropEvent*) xTraceNextFreeEventBufferSlot();
    1ede:	4b18      	ldr	r3, [pc, #96]	; (1f40 <vTraceStoreObjectPropertiesOnCloseEvent+0x90>)
    1ee0:	4798      	blx	r3
    1ee2:	1e06      	subs	r6, r0, #0
		if (pe != NULL)
    1ee4:	d022      	beq.n	1f2c <vTraceStoreObjectPropertiesOnCloseEvent+0x7c>
		{
			if (objectclass == TRACE_CLASS_TASK)
    1ee6:	2c03      	cmp	r4, #3
    1ee8:	d10e      	bne.n	1f08 <vTraceStoreObjectPropertiesOnCloseEvent+0x58>
			{
				pe->arg1 = TRACE_PROPERTY_ACTOR_PRIORITY(objectclass, handle);
    1eea:	1c28      	adds	r0, r5, #0
    1eec:	2103      	movs	r1, #3
    1eee:	4b15      	ldr	r3, [pc, #84]	; (1f44 <vTraceStoreObjectPropertiesOnCloseEvent+0x94>)
    1ef0:	4798      	blx	r3
    1ef2:	4b11      	ldr	r3, [pc, #68]	; (1f38 <vTraceStoreObjectPropertiesOnCloseEvent+0x88>)
    1ef4:	681b      	ldr	r3, [r3, #0]
    1ef6:	191a      	adds	r2, r3, r4
    1ef8:	3268      	adds	r2, #104	; 0x68
    1efa:	7912      	ldrb	r2, [r2, #4]
    1efc:	181b      	adds	r3, r3, r0
    1efe:	189b      	adds	r3, r3, r2
    1f00:	3389      	adds	r3, #137	; 0x89
    1f02:	791b      	ldrb	r3, [r3, #4]
    1f04:	7073      	strb	r3, [r6, #1]
    1f06:	e00d      	b.n	1f24 <vTraceStoreObjectPropertiesOnCloseEvent+0x74>
			}
			else
			{
				pe->arg1 = TRACE_PROPERTY_OBJECT_STATE(objectclass, handle);
    1f08:	1c28      	adds	r0, r5, #0
    1f0a:	1c21      	adds	r1, r4, #0
    1f0c:	4b0d      	ldr	r3, [pc, #52]	; (1f44 <vTraceStoreObjectPropertiesOnCloseEvent+0x94>)
    1f0e:	4798      	blx	r3
    1f10:	4b09      	ldr	r3, [pc, #36]	; (1f38 <vTraceStoreObjectPropertiesOnCloseEvent+0x88>)
    1f12:	681b      	ldr	r3, [r3, #0]
    1f14:	191a      	adds	r2, r3, r4
    1f16:	3268      	adds	r2, #104	; 0x68
    1f18:	7912      	ldrb	r2, [r2, #4]
    1f1a:	181b      	adds	r3, r3, r0
    1f1c:	189b      	adds	r3, r3, r2
    1f1e:	3388      	adds	r3, #136	; 0x88
    1f20:	791b      	ldrb	r3, [r3, #4]
    1f22:	7073      	strb	r3, [r6, #1]
			}
			pe->type = EVENTGROUP_OBJCLOSE_PROP + objectclass;
    1f24:	3410      	adds	r4, #16
    1f26:	7034      	strb	r4, [r6, #0]
			prvTraceUpdateCounters();
    1f28:	4b07      	ldr	r3, [pc, #28]	; (1f48 <vTraceStoreObjectPropertiesOnCloseEvent+0x98>)
    1f2a:	4798      	blx	r3
		}
	}
}
    1f2c:	bd70      	pop	{r4, r5, r6, pc}
    1f2e:	46c0      	nop			; (mov r8, r8)
    1f30:	000060cc 	.word	0x000060cc
    1f34:	0000102d 	.word	0x0000102d
    1f38:	200004ac 	.word	0x200004ac
    1f3c:	00006124 	.word	0x00006124
    1f40:	00001239 	.word	0x00001239
    1f44:	00001279 	.word	0x00001279
    1f48:	000015e1 	.word	0x000015e1

00001f4c <vTraceSetPriorityProperty>:
#endif

void vTraceSetPriorityProperty(uint8_t objectclass, objectHandleType id, uint8_t value)
{
    1f4c:	b538      	push	{r3, r4, r5, lr}
    1f4e:	1c04      	adds	r4, r0, #0
    1f50:	1c15      	adds	r5, r2, #0
	TRACE_ASSERT(objectclass < TRACE_NCLASSES,
    1f52:	2806      	cmp	r0, #6
    1f54:	d903      	bls.n	1f5e <vTraceSetPriorityProperty+0x12>
    1f56:	480e      	ldr	r0, [pc, #56]	; (1f90 <vTraceSetPriorityProperty+0x44>)
    1f58:	4b0e      	ldr	r3, [pc, #56]	; (1f94 <vTraceSetPriorityProperty+0x48>)
    1f5a:	4798      	blx	r3
    1f5c:	e017      	b.n	1f8e <vTraceSetPriorityProperty+0x42>
		"vTraceSetPriorityProperty: objectclass >= TRACE_NCLASSES", );
	TRACE_ASSERT(id <= RecorderDataPtr->ObjectPropertyTable.NumberOfObjectsPerClass[objectclass],
    1f5e:	4b0e      	ldr	r3, [pc, #56]	; (1f98 <vTraceSetPriorityProperty+0x4c>)
    1f60:	681b      	ldr	r3, [r3, #0]
    1f62:	181b      	adds	r3, r3, r0
    1f64:	3360      	adds	r3, #96	; 0x60
    1f66:	791b      	ldrb	r3, [r3, #4]
    1f68:	428b      	cmp	r3, r1
    1f6a:	d203      	bcs.n	1f74 <vTraceSetPriorityProperty+0x28>
    1f6c:	480b      	ldr	r0, [pc, #44]	; (1f9c <vTraceSetPriorityProperty+0x50>)
    1f6e:	4b09      	ldr	r3, [pc, #36]	; (1f94 <vTraceSetPriorityProperty+0x48>)
    1f70:	4798      	blx	r3
    1f72:	e00c      	b.n	1f8e <vTraceSetPriorityProperty+0x42>
		"vTraceSetPriorityProperty: Invalid value for id", );

	TRACE_PROPERTY_ACTOR_PRIORITY(objectclass, id) = value;
    1f74:	1c08      	adds	r0, r1, #0
    1f76:	1c21      	adds	r1, r4, #0
    1f78:	4b09      	ldr	r3, [pc, #36]	; (1fa0 <vTraceSetPriorityProperty+0x54>)
    1f7a:	4798      	blx	r3
    1f7c:	4b06      	ldr	r3, [pc, #24]	; (1f98 <vTraceSetPriorityProperty+0x4c>)
    1f7e:	681b      	ldr	r3, [r3, #0]
    1f80:	191c      	adds	r4, r3, r4
    1f82:	3468      	adds	r4, #104	; 0x68
    1f84:	7922      	ldrb	r2, [r4, #4]
    1f86:	181b      	adds	r3, r3, r0
    1f88:	189b      	adds	r3, r3, r2
    1f8a:	3389      	adds	r3, #137	; 0x89
    1f8c:	711d      	strb	r5, [r3, #4]
}
    1f8e:	bd38      	pop	{r3, r4, r5, pc}
    1f90:	00006174 	.word	0x00006174
    1f94:	0000102d 	.word	0x0000102d
    1f98:	200004ac 	.word	0x200004ac
    1f9c:	000061bc 	.word	0x000061bc
    1fa0:	00001279 	.word	0x00001279

00001fa4 <uiTraceGetPriorityProperty>:

uint8_t uiTraceGetPriorityProperty(uint8_t objectclass, objectHandleType id)
{
    1fa4:	b510      	push	{r4, lr}
    1fa6:	1e04      	subs	r4, r0, #0
	TRACE_ASSERT(objectclass < TRACE_NCLASSES,
    1fa8:	2c06      	cmp	r4, #6
    1faa:	d904      	bls.n	1fb6 <uiTraceGetPriorityProperty+0x12>
    1fac:	480f      	ldr	r0, [pc, #60]	; (1fec <uiTraceGetPriorityProperty+0x48>)
    1fae:	4b10      	ldr	r3, [pc, #64]	; (1ff0 <uiTraceGetPriorityProperty+0x4c>)
    1fb0:	4798      	blx	r3
    1fb2:	2000      	movs	r0, #0
    1fb4:	e018      	b.n	1fe8 <uiTraceGetPriorityProperty+0x44>
		"uiTraceGetPriorityProperty: objectclass >= TRACE_NCLASSES", 0);
	TRACE_ASSERT(id <= RecorderDataPtr->ObjectPropertyTable.NumberOfObjectsPerClass[objectclass],
    1fb6:	4b0f      	ldr	r3, [pc, #60]	; (1ff4 <uiTraceGetPriorityProperty+0x50>)
    1fb8:	681b      	ldr	r3, [r3, #0]
    1fba:	181b      	adds	r3, r3, r0
    1fbc:	3360      	adds	r3, #96	; 0x60
    1fbe:	791b      	ldrb	r3, [r3, #4]
    1fc0:	428b      	cmp	r3, r1
    1fc2:	d204      	bcs.n	1fce <uiTraceGetPriorityProperty+0x2a>
    1fc4:	480c      	ldr	r0, [pc, #48]	; (1ff8 <uiTraceGetPriorityProperty+0x54>)
    1fc6:	4b0a      	ldr	r3, [pc, #40]	; (1ff0 <uiTraceGetPriorityProperty+0x4c>)
    1fc8:	4798      	blx	r3
    1fca:	2000      	movs	r0, #0
    1fcc:	e00c      	b.n	1fe8 <uiTraceGetPriorityProperty+0x44>
		"uiTraceGetPriorityProperty: Invalid value for id", 0);

	return TRACE_PROPERTY_ACTOR_PRIORITY(objectclass, id);
    1fce:	1c08      	adds	r0, r1, #0
    1fd0:	1c21      	adds	r1, r4, #0
    1fd2:	4b0a      	ldr	r3, [pc, #40]	; (1ffc <uiTraceGetPriorityProperty+0x58>)
    1fd4:	4798      	blx	r3
    1fd6:	4b07      	ldr	r3, [pc, #28]	; (1ff4 <uiTraceGetPriorityProperty+0x50>)
    1fd8:	681b      	ldr	r3, [r3, #0]
    1fda:	191c      	adds	r4, r3, r4
    1fdc:	3468      	adds	r4, #104	; 0x68
    1fde:	7922      	ldrb	r2, [r4, #4]
    1fe0:	181b      	adds	r3, r3, r0
    1fe2:	189b      	adds	r3, r3, r2
    1fe4:	3389      	adds	r3, #137	; 0x89
    1fe6:	7918      	ldrb	r0, [r3, #4]
}
    1fe8:	bd10      	pop	{r4, pc}
    1fea:	46c0      	nop			; (mov r8, r8)
    1fec:	000061fc 	.word	0x000061fc
    1ff0:	0000102d 	.word	0x0000102d
    1ff4:	200004ac 	.word	0x200004ac
    1ff8:	00006244 	.word	0x00006244
    1ffc:	00001279 	.word	0x00001279

00002000 <vTraceSetObjectState>:

void vTraceSetObjectState(uint8_t objectclass, objectHandleType id, uint8_t value)
{
    2000:	b538      	push	{r3, r4, r5, lr}
    2002:	1c04      	adds	r4, r0, #0
    2004:	1c15      	adds	r5, r2, #0
	TRACE_ASSERT(objectclass < TRACE_NCLASSES,
    2006:	2806      	cmp	r0, #6
    2008:	d903      	bls.n	2012 <vTraceSetObjectState+0x12>
    200a:	480e      	ldr	r0, [pc, #56]	; (2044 <vTraceSetObjectState+0x44>)
    200c:	4b0e      	ldr	r3, [pc, #56]	; (2048 <vTraceSetObjectState+0x48>)
    200e:	4798      	blx	r3
    2010:	e017      	b.n	2042 <vTraceSetObjectState+0x42>
		"vTraceSetObjectState: objectclass >= TRACE_NCLASSES", );
	TRACE_ASSERT(id <= RecorderDataPtr->ObjectPropertyTable.NumberOfObjectsPerClass[objectclass],
    2012:	4b0e      	ldr	r3, [pc, #56]	; (204c <vTraceSetObjectState+0x4c>)
    2014:	681b      	ldr	r3, [r3, #0]
    2016:	181b      	adds	r3, r3, r0
    2018:	3360      	adds	r3, #96	; 0x60
    201a:	791b      	ldrb	r3, [r3, #4]
    201c:	428b      	cmp	r3, r1
    201e:	d203      	bcs.n	2028 <vTraceSetObjectState+0x28>
    2020:	480b      	ldr	r0, [pc, #44]	; (2050 <vTraceSetObjectState+0x50>)
    2022:	4b09      	ldr	r3, [pc, #36]	; (2048 <vTraceSetObjectState+0x48>)
    2024:	4798      	blx	r3
    2026:	e00c      	b.n	2042 <vTraceSetObjectState+0x42>
		"vTraceSetObjectState: Invalid value for id", );

	TRACE_PROPERTY_OBJECT_STATE(objectclass, id) = value;
    2028:	1c08      	adds	r0, r1, #0
    202a:	1c21      	adds	r1, r4, #0
    202c:	4b09      	ldr	r3, [pc, #36]	; (2054 <vTraceSetObjectState+0x54>)
    202e:	4798      	blx	r3
    2030:	4b06      	ldr	r3, [pc, #24]	; (204c <vTraceSetObjectState+0x4c>)
    2032:	681b      	ldr	r3, [r3, #0]
    2034:	191c      	adds	r4, r3, r4
    2036:	3468      	adds	r4, #104	; 0x68
    2038:	7922      	ldrb	r2, [r4, #4]
    203a:	181b      	adds	r3, r3, r0
    203c:	189b      	adds	r3, r3, r2
    203e:	3388      	adds	r3, #136	; 0x88
    2040:	711d      	strb	r5, [r3, #4]
}
    2042:	bd38      	pop	{r3, r4, r5, pc}
    2044:	00006284 	.word	0x00006284
    2048:	0000102d 	.word	0x0000102d
    204c:	200004ac 	.word	0x200004ac
    2050:	000062c8 	.word	0x000062c8
    2054:	00001279 	.word	0x00001279

00002058 <uiTraceGetObjectState>:

uint8_t uiTraceGetObjectState(uint8_t objectclass, objectHandleType id)
{
    2058:	b510      	push	{r4, lr}
    205a:	1e04      	subs	r4, r0, #0
	TRACE_ASSERT(objectclass < TRACE_NCLASSES,
    205c:	2c06      	cmp	r4, #6
    205e:	d904      	bls.n	206a <uiTraceGetObjectState+0x12>
    2060:	480f      	ldr	r0, [pc, #60]	; (20a0 <uiTraceGetObjectState+0x48>)
    2062:	4b10      	ldr	r3, [pc, #64]	; (20a4 <uiTraceGetObjectState+0x4c>)
    2064:	4798      	blx	r3
    2066:	2000      	movs	r0, #0
    2068:	e018      	b.n	209c <uiTraceGetObjectState+0x44>
		"uiTraceGetObjectState: objectclass >= TRACE_NCLASSES", 0);
	TRACE_ASSERT(id <= RecorderDataPtr->ObjectPropertyTable.NumberOfObjectsPerClass[objectclass],
    206a:	4b0f      	ldr	r3, [pc, #60]	; (20a8 <uiTraceGetObjectState+0x50>)
    206c:	681b      	ldr	r3, [r3, #0]
    206e:	181b      	adds	r3, r3, r0
    2070:	3360      	adds	r3, #96	; 0x60
    2072:	791b      	ldrb	r3, [r3, #4]
    2074:	428b      	cmp	r3, r1
    2076:	d204      	bcs.n	2082 <uiTraceGetObjectState+0x2a>
    2078:	480c      	ldr	r0, [pc, #48]	; (20ac <uiTraceGetObjectState+0x54>)
    207a:	4b0a      	ldr	r3, [pc, #40]	; (20a4 <uiTraceGetObjectState+0x4c>)
    207c:	4798      	blx	r3
    207e:	2000      	movs	r0, #0
    2080:	e00c      	b.n	209c <uiTraceGetObjectState+0x44>
		"uiTraceGetObjectState: Invalid value for id", 0);

	return TRACE_PROPERTY_OBJECT_STATE(objectclass, id);
    2082:	1c08      	adds	r0, r1, #0
    2084:	1c21      	adds	r1, r4, #0
    2086:	4b0a      	ldr	r3, [pc, #40]	; (20b0 <uiTraceGetObjectState+0x58>)
    2088:	4798      	blx	r3
    208a:	4b07      	ldr	r3, [pc, #28]	; (20a8 <uiTraceGetObjectState+0x50>)
    208c:	681b      	ldr	r3, [r3, #0]
    208e:	191c      	adds	r4, r3, r4
    2090:	3468      	adds	r4, #104	; 0x68
    2092:	7922      	ldrb	r2, [r4, #4]
    2094:	181b      	adds	r3, r3, r0
    2096:	189b      	adds	r3, r3, r2
    2098:	3388      	adds	r3, #136	; 0x88
    209a:	7918      	ldrb	r0, [r3, #4]
}
    209c:	bd10      	pop	{r4, pc}
    209e:	46c0      	nop			; (mov r8, r8)
    20a0:	00006304 	.word	0x00006304
    20a4:	0000102d 	.word	0x0000102d
    20a8:	200004ac 	.word	0x200004ac
    20ac:	00006348 	.word	0x00006348
    20b0:	00001279 	.word	0x00001279

000020b4 <vTraceStoreTaskswitch>:
 * vTraceStoreTaskswitch
 * Called by the scheduler from the SWITCHED_OUT hook, and by uiTraceStart.
 * At this point interrupts are assumed to be disabled!
 ******************************************************************************/
void vTraceStoreTaskswitch(objectHandleType task_handle)
{
    20b4:	b570      	push	{r4, r5, r6, lr}
    20b6:	1e04      	subs	r4, r0, #0
	uint8_t hnd8;
	TRACE_SR_ALLOC_CRITICAL_SECTION();

	skipEvent = 0;

	TRACE_ASSERT(task_handle <= NTask,
    20b8:	2c0f      	cmp	r4, #15
    20ba:	d903      	bls.n	20c4 <vTraceStoreTaskswitch+0x10>
    20bc:	4825      	ldr	r0, [pc, #148]	; (2154 <vTraceStoreTaskswitch+0xa0>)
    20be:	4b26      	ldr	r3, [pc, #152]	; (2158 <vTraceStoreTaskswitch+0xa4>)
    20c0:	4798      	blx	r3
    20c2:	e046      	b.n	2152 <vTraceStoreTaskswitch+0x9e>
	function since critical sections should not be used in the context switch
	event...)
	***************************************************************************/

	/* Skip the event if the task has been excluded, using vTraceExcludeTask */
	if (TRACE_GET_TASK_FLAG_ISEXCLUDED(task_handle))
    20c4:	1c03      	adds	r3, r0, #0
    20c6:	3321      	adds	r3, #33	; 0x21
    20c8:	10da      	asrs	r2, r3, #3
    20ca:	4924      	ldr	r1, [pc, #144]	; (215c <vTraceStoreTaskswitch+0xa8>)
    20cc:	5c8a      	ldrb	r2, [r1, r2]
    20ce:	2107      	movs	r1, #7
    20d0:	400b      	ands	r3, r1
    20d2:	411a      	asrs	r2, r3
    20d4:	1c13      	adds	r3, r2, #0
    20d6:	07da      	lsls	r2, r3, #31
    20d8:	d504      	bpl.n	20e4 <vTraceStoreTaskswitch+0x30>
	{
		skipEvent = 1;
		inExcludedTask = 1;
    20da:	2201      	movs	r2, #1
    20dc:	4b20      	ldr	r3, [pc, #128]	; (2160 <vTraceStoreTaskswitch+0xac>)
    20de:	709a      	strb	r2, [r3, #2]
	***************************************************************************/

	/* Skip the event if the task has been excluded, using vTraceExcludeTask */
	if (TRACE_GET_TASK_FLAG_ISEXCLUDED(task_handle))
	{
		skipEvent = 1;
    20e0:	2101      	movs	r1, #1
    20e2:	e003      	b.n	20ec <vTraceStoreTaskswitch+0x38>
		inExcludedTask = 1;
	}
	else
	{
		inExcludedTask = 0;
    20e4:	2200      	movs	r2, #0
    20e6:	4b1e      	ldr	r3, [pc, #120]	; (2160 <vTraceStoreTaskswitch+0xac>)
    20e8:	709a      	strb	r2, [r3, #2]
	TSEvent* ts;
	int8_t skipEvent;
	uint8_t hnd8;
	TRACE_SR_ALLOC_CRITICAL_SECTION();

	skipEvent = 0;
    20ea:	2100      	movs	r1, #0
	else
	{
		inExcludedTask = 0;
	}

	trcCRITICAL_SECTION_BEGIN_ON_CORTEX_M_ONLY();
    20ec:	4b1d      	ldr	r3, [pc, #116]	; (2164 <vTraceStoreTaskswitch+0xb0>)
    20ee:	681a      	ldr	r2, [r3, #0]
    20f0:	3201      	adds	r2, #1
    20f2:	601a      	str	r2, [r3, #0]

	/* Skip the event if the same task is scheduled */
	if (task_handle == handle_of_last_logged_task)
    20f4:	4b1a      	ldr	r3, [pc, #104]	; (2160 <vTraceStoreTaskswitch+0xac>)
    20f6:	781b      	ldrb	r3, [r3, #0]
    20f8:	42a3      	cmp	r3, r4
    20fa:	d026      	beq.n	214a <vTraceStoreTaskswitch+0x96>
	{
		skipEvent = 1;
	}

	if (!RecorderDataPtr->recorderActive)
    20fc:	4b1a      	ldr	r3, [pc, #104]	; (2168 <vTraceStoreTaskswitch+0xb4>)
    20fe:	681b      	ldr	r3, [r3, #0]
    2100:	6b1b      	ldr	r3, [r3, #48]	; 0x30
    2102:	2b00      	cmp	r3, #0
    2104:	d021      	beq.n	214a <vTraceStoreTaskswitch+0x96>
	{
		skipEvent = 1;
	}

	/* If this event should be logged, log it! */
	if (skipEvent == 0)
    2106:	2900      	cmp	r1, #0
    2108:	d11f      	bne.n	214a <vTraceStoreTaskswitch+0x96>
	{
		dts3 = (uint16_t)prvTraceGetDTS(0xFFFF);
    210a:	4818      	ldr	r0, [pc, #96]	; (216c <vTraceStoreTaskswitch+0xb8>)
    210c:	4b18      	ldr	r3, [pc, #96]	; (2170 <vTraceStoreTaskswitch+0xbc>)
    210e:	4798      	blx	r3
    2110:	1c06      	adds	r6, r0, #0
		handle_of_last_logged_task = task_handle;
    2112:	4b13      	ldr	r3, [pc, #76]	; (2160 <vTraceStoreTaskswitch+0xac>)
    2114:	701c      	strb	r4, [r3, #0]
		hnd8 = prvTraceGet8BitHandle(handle_of_last_logged_task);
		ts = (TSEvent*)xTraceNextFreeEventBufferSlot();
    2116:	4b17      	ldr	r3, [pc, #92]	; (2174 <vTraceStoreTaskswitch+0xc0>)
    2118:	4798      	blx	r3
    211a:	1e05      	subs	r5, r0, #0

		if (ts != NULL)
    211c:	d015      	beq.n	214a <vTraceStoreTaskswitch+0x96>
		{
			if (uiTraceGetObjectState(TRACE_CLASS_TASK,
    211e:	4b10      	ldr	r3, [pc, #64]	; (2160 <vTraceStoreTaskswitch+0xac>)
    2120:	7819      	ldrb	r1, [r3, #0]
    2122:	2003      	movs	r0, #3
    2124:	4b14      	ldr	r3, [pc, #80]	; (2178 <vTraceStoreTaskswitch+0xc4>)
    2126:	4798      	blx	r3
    2128:	2801      	cmp	r0, #1
    212a:	d102      	bne.n	2132 <vTraceStoreTaskswitch+0x7e>
				handle_of_last_logged_task) == TASK_STATE_INSTANCE_ACTIVE)
			{
				ts->type = TS_TASK_RESUME;
    212c:	2307      	movs	r3, #7
    212e:	702b      	strb	r3, [r5, #0]
    2130:	e001      	b.n	2136 <vTraceStoreTaskswitch+0x82>
			}
			else
			{
				ts->type = TS_TASK_BEGIN;
    2132:	2306      	movs	r3, #6
    2134:	702b      	strb	r3, [r5, #0]
			}

			ts->dts = dts3;
    2136:	806e      	strh	r6, [r5, #2]
			ts->objHandle = hnd8;
    2138:	706c      	strb	r4, [r5, #1]

			vTraceSetObjectState(TRACE_CLASS_TASK,
    213a:	4b09      	ldr	r3, [pc, #36]	; (2160 <vTraceStoreTaskswitch+0xac>)
    213c:	7819      	ldrb	r1, [r3, #0]
    213e:	2003      	movs	r0, #3
    2140:	2201      	movs	r2, #1
    2142:	4b0e      	ldr	r3, [pc, #56]	; (217c <vTraceStoreTaskswitch+0xc8>)
    2144:	4798      	blx	r3
									handle_of_last_logged_task,
									TASK_STATE_INSTANCE_ACTIVE);

			prvTraceUpdateCounters();
    2146:	4b0e      	ldr	r3, [pc, #56]	; (2180 <vTraceStoreTaskswitch+0xcc>)
    2148:	4798      	blx	r3
		}
	}

	trcCRITICAL_SECTION_END_ON_CORTEX_M_ONLY();
    214a:	4b06      	ldr	r3, [pc, #24]	; (2164 <vTraceStoreTaskswitch+0xb0>)
    214c:	681a      	ldr	r2, [r3, #0]
    214e:	3a01      	subs	r2, #1
    2150:	601a      	str	r2, [r3, #0]
}
    2152:	bd70      	pop	{r4, r5, r6, pc}
    2154:	00006384 	.word	0x00006384
    2158:	0000102d 	.word	0x0000102d
    215c:	20000528 	.word	0x20000528
    2160:	20000578 	.word	0x20000578
    2164:	20000538 	.word	0x20000538
    2168:	200004ac 	.word	0x200004ac
    216c:	0000ffff 	.word	0x0000ffff
    2170:	0000161d 	.word	0x0000161d
    2174:	00001239 	.word	0x00001239
    2178:	00002059 	.word	0x00002059
    217c:	00002001 	.word	0x00002001
    2180:	000015e1 	.word	0x000015e1

00002184 <vTraceSetTaskInstanceFinished>:

	return TRACE_PROPERTY_OBJECT_STATE(objectclass, id);
}

void vTraceSetTaskInstanceFinished(objectHandleType handle)
{
    2184:	b508      	push	{r3, lr}
	TRACE_ASSERT(handle <= RecorderDataPtr->ObjectPropertyTable.NumberOfObjectsPerClass[TRACE_CLASS_TASK],
    2186:	4b0b      	ldr	r3, [pc, #44]	; (21b4 <vTraceSetTaskInstanceFinished+0x30>)
    2188:	681a      	ldr	r2, [r3, #0]
    218a:	2367      	movs	r3, #103	; 0x67
    218c:	5cd3      	ldrb	r3, [r2, r3]
    218e:	4283      	cmp	r3, r0
    2190:	d203      	bcs.n	219a <vTraceSetTaskInstanceFinished+0x16>
    2192:	4809      	ldr	r0, [pc, #36]	; (21b8 <vTraceSetTaskInstanceFinished+0x34>)
    2194:	4b09      	ldr	r3, [pc, #36]	; (21bc <vTraceSetTaskInstanceFinished+0x38>)
    2196:	4798      	blx	r3
    2198:	e00b      	b.n	21b2 <vTraceSetTaskInstanceFinished+0x2e>
		"vTraceSetTaskInstanceFinished: Invalid value for handle", );

#if (USE_IMPLICIT_IFE_RULES == 1)
	TRACE_PROPERTY_OBJECT_STATE(TRACE_CLASS_TASK, handle) = 0;
    219a:	2103      	movs	r1, #3
    219c:	4b08      	ldr	r3, [pc, #32]	; (21c0 <vTraceSetTaskInstanceFinished+0x3c>)
    219e:	4798      	blx	r3
    21a0:	4b04      	ldr	r3, [pc, #16]	; (21b4 <vTraceSetTaskInstanceFinished+0x30>)
    21a2:	681b      	ldr	r3, [r3, #0]
    21a4:	226f      	movs	r2, #111	; 0x6f
    21a6:	5c9a      	ldrb	r2, [r3, r2]
    21a8:	181b      	adds	r3, r3, r0
    21aa:	189b      	adds	r3, r3, r2
    21ac:	3388      	adds	r3, #136	; 0x88
    21ae:	2200      	movs	r2, #0
    21b0:	711a      	strb	r2, [r3, #4]
#endif
}
    21b2:	bd08      	pop	{r3, pc}
    21b4:	200004ac 	.word	0x200004ac
    21b8:	000063c8 	.word	0x000063c8
    21bc:	0000102d 	.word	0x0000102d
    21c0:	00001279 	.word	0x00001279

000021c4 <prvTraceGetObjectNumber>:
#else

extern portBASE_TYPE uxQueueGetQueueNumber(void*);

objectHandleType prvTraceGetObjectNumber(void* handle)
{
    21c4:	b508      	push	{r3, lr}
	return (objectHandleType) uxQueueGetQueueNumber(handle);
    21c6:	4b02      	ldr	r3, [pc, #8]	; (21d0 <prvTraceGetObjectNumber+0xc>)
    21c8:	4798      	blx	r3
    21ca:	b2c0      	uxtb	r0, r0
}
    21cc:	bd08      	pop	{r3, pc}
    21ce:	46c0      	nop			; (mov r8, r8)
    21d0:	000035d9 	.word	0x000035d9

000021d4 <prvTraceGetObjectType>:

#endif

unsigned char prvTraceGetObjectType(void* handle)
{
    21d4:	b508      	push	{r3, lr}
	return ucQueueGetQueueType(handle);
    21d6:	4b01      	ldr	r3, [pc, #4]	; (21dc <prvTraceGetObjectType+0x8>)
    21d8:	4798      	blx	r3
}
    21da:	bd08      	pop	{r3, pc}
    21dc:	000035dd 	.word	0x000035dd

000021e0 <prvTraceGetTaskNumber>:

objectHandleType prvTraceGetTaskNumber(void* handle)
{
    21e0:	b508      	push	{r3, lr}
	return (objectHandleType)uxTaskGetTaskNumber(handle);
    21e2:	4b02      	ldr	r3, [pc, #8]	; (21ec <prvTraceGetTaskNumber+0xc>)
    21e4:	4798      	blx	r3
    21e6:	b2c0      	uxtb	r0, r0
}
    21e8:	bd08      	pop	{r3, pc}
    21ea:	46c0      	nop			; (mov r8, r8)
    21ec:	00004139 	.word	0x00004139

000021f0 <prvTraceGetCurrentTaskHandle>:
{
	return xTaskGetSchedulerState() != taskSCHEDULER_NOT_STARTED;
}

void* prvTraceGetCurrentTaskHandle()
{
    21f0:	b508      	push	{r3, lr}
	return xTaskGetCurrentTaskHandle();
    21f2:	4b01      	ldr	r3, [pc, #4]	; (21f8 <prvTraceGetCurrentTaskHandle+0x8>)
    21f4:	4798      	blx	r3
}
    21f6:	bd08      	pop	{r3, pc}
    21f8:	00004145 	.word	0x00004145

000021fc <vTraceInitObjectPropertyTable>:

/* Initialization of the object property table */
void vTraceInitObjectPropertyTable()
{
    21fc:	b510      	push	{r4, lr}
	RecorderDataPtr->ObjectPropertyTable.NumberOfObjectClasses = TRACE_NCLASSES;
    21fe:	4b27      	ldr	r3, [pc, #156]	; (229c <vTraceInitObjectPropertyTable+0xa0>)
    2200:	681b      	ldr	r3, [r3, #0]
    2202:	2207      	movs	r2, #7
    2204:	65da      	str	r2, [r3, #92]	; 0x5c
	RecorderDataPtr->ObjectPropertyTable.NumberOfObjectsPerClass[0] = NQueue;
    2206:	220a      	movs	r2, #10
    2208:	2164      	movs	r1, #100	; 0x64
    220a:	545a      	strb	r2, [r3, r1]
	RecorderDataPtr->ObjectPropertyTable.NumberOfObjectsPerClass[1] = NSemaphore;
    220c:	2165      	movs	r1, #101	; 0x65
    220e:	545a      	strb	r2, [r3, r1]
	RecorderDataPtr->ObjectPropertyTable.NumberOfObjectsPerClass[2] = NMutex;
    2210:	2166      	movs	r1, #102	; 0x66
    2212:	545a      	strb	r2, [r3, r1]
	RecorderDataPtr->ObjectPropertyTable.NumberOfObjectsPerClass[3] = NTask;
    2214:	220f      	movs	r2, #15
    2216:	2167      	movs	r1, #103	; 0x67
    2218:	545a      	strb	r2, [r3, r1]
	RecorderDataPtr->ObjectPropertyTable.NumberOfObjectsPerClass[4] = NISR;
    221a:	2005      	movs	r0, #5
    221c:	2168      	movs	r1, #104	; 0x68
    221e:	5458      	strb	r0, [r3, r1]
	RecorderDataPtr->ObjectPropertyTable.NumberOfObjectsPerClass[5] = NTimer;
    2220:	2102      	movs	r1, #2
    2222:	2069      	movs	r0, #105	; 0x69
    2224:	5419      	strb	r1, [r3, r0]
	RecorderDataPtr->ObjectPropertyTable.NumberOfObjectsPerClass[6] = NEventGroup;	
    2226:	206a      	movs	r0, #106	; 0x6a
    2228:	5419      	strb	r1, [r3, r0]
	RecorderDataPtr->ObjectPropertyTable.NameLengthPerClass[0] = NameLenQueue;
    222a:	216c      	movs	r1, #108	; 0x6c
    222c:	545a      	strb	r2, [r3, r1]
	RecorderDataPtr->ObjectPropertyTable.NameLengthPerClass[1] = NameLenSemaphore;
    222e:	216d      	movs	r1, #109	; 0x6d
    2230:	545a      	strb	r2, [r3, r1]
	RecorderDataPtr->ObjectPropertyTable.NameLengthPerClass[2] = NameLenMutex;
    2232:	216e      	movs	r1, #110	; 0x6e
    2234:	545a      	strb	r2, [r3, r1]
	RecorderDataPtr->ObjectPropertyTable.NameLengthPerClass[3] = NameLenTask;
    2236:	216f      	movs	r1, #111	; 0x6f
    2238:	545a      	strb	r2, [r3, r1]
	RecorderDataPtr->ObjectPropertyTable.NameLengthPerClass[4] = NameLenISR;
    223a:	2170      	movs	r1, #112	; 0x70
    223c:	545a      	strb	r2, [r3, r1]
	RecorderDataPtr->ObjectPropertyTable.NameLengthPerClass[5] = NameLenTimer;
    223e:	2171      	movs	r1, #113	; 0x71
    2240:	545a      	strb	r2, [r3, r1]
	RecorderDataPtr->ObjectPropertyTable.NameLengthPerClass[6] = NameLenEventGroup;	
    2242:	2172      	movs	r1, #114	; 0x72
    2244:	545a      	strb	r2, [r3, r1]
	RecorderDataPtr->ObjectPropertyTable.TotalPropertyBytesPerClass[0] = PropertyTableSizeQueue;
    2246:	2210      	movs	r2, #16
    2248:	2174      	movs	r1, #116	; 0x74
    224a:	545a      	strb	r2, [r3, r1]
	RecorderDataPtr->ObjectPropertyTable.TotalPropertyBytesPerClass[1] = PropertyTableSizeSemaphore;
    224c:	2175      	movs	r1, #117	; 0x75
    224e:	545a      	strb	r2, [r3, r1]
	RecorderDataPtr->ObjectPropertyTable.TotalPropertyBytesPerClass[2] = PropertyTableSizeMutex;
    2250:	2176      	movs	r1, #118	; 0x76
    2252:	545a      	strb	r2, [r3, r1]
	RecorderDataPtr->ObjectPropertyTable.TotalPropertyBytesPerClass[3] = PropertyTableSizeTask;
    2254:	2113      	movs	r1, #19
    2256:	2077      	movs	r0, #119	; 0x77
    2258:	5419      	strb	r1, [r3, r0]
	RecorderDataPtr->ObjectPropertyTable.TotalPropertyBytesPerClass[4] = PropertyTableSizeISR;
    225a:	2411      	movs	r4, #17
    225c:	2078      	movs	r0, #120	; 0x78
    225e:	541c      	strb	r4, [r3, r0]
	RecorderDataPtr->ObjectPropertyTable.TotalPropertyBytesPerClass[5] = PropertyTableSizeTimer;
    2260:	2079      	movs	r0, #121	; 0x79
    2262:	541a      	strb	r2, [r3, r0]
	RecorderDataPtr->ObjectPropertyTable.TotalPropertyBytesPerClass[6] = PropertyTableSizeEventGroup;
    2264:	227a      	movs	r2, #122	; 0x7a
    2266:	5499      	strb	r1, [r3, r2]
	RecorderDataPtr->ObjectPropertyTable.StartIndexOfClass[0] = StartIndexQueue;
    2268:	2100      	movs	r1, #0
    226a:	227c      	movs	r2, #124	; 0x7c
    226c:	5299      	strh	r1, [r3, r2]
	RecorderDataPtr->ObjectPropertyTable.StartIndexOfClass[1] = StartIndexSemaphore;
    226e:	21a0      	movs	r1, #160	; 0xa0
    2270:	227e      	movs	r2, #126	; 0x7e
    2272:	5299      	strh	r1, [r3, r2]
	RecorderDataPtr->ObjectPropertyTable.StartIndexOfClass[2] = StartIndexMutex;
    2274:	0049      	lsls	r1, r1, #1
    2276:	2280      	movs	r2, #128	; 0x80
    2278:	5299      	strh	r1, [r3, r2]
	RecorderDataPtr->ObjectPropertyTable.StartIndexOfClass[3] = StartIndexTask;
    227a:	21f0      	movs	r1, #240	; 0xf0
    227c:	0049      	lsls	r1, r1, #1
    227e:	2282      	movs	r2, #130	; 0x82
    2280:	5299      	strh	r1, [r3, r2]
	RecorderDataPtr->ObjectPropertyTable.StartIndexOfClass[4] = StartIndexISR;
    2282:	4907      	ldr	r1, [pc, #28]	; (22a0 <vTraceInitObjectPropertyTable+0xa4>)
    2284:	2284      	movs	r2, #132	; 0x84
    2286:	5299      	strh	r1, [r3, r2]
	RecorderDataPtr->ObjectPropertyTable.StartIndexOfClass[5] = StartIndexTimer;
    2288:	4906      	ldr	r1, [pc, #24]	; (22a4 <vTraceInitObjectPropertyTable+0xa8>)
    228a:	2286      	movs	r2, #134	; 0x86
    228c:	5299      	strh	r1, [r3, r2]
	RecorderDataPtr->ObjectPropertyTable.StartIndexOfClass[6] = StartIndexEventGroup;
    228e:	4906      	ldr	r1, [pc, #24]	; (22a8 <vTraceInitObjectPropertyTable+0xac>)
    2290:	2288      	movs	r2, #136	; 0x88
    2292:	5299      	strh	r1, [r3, r2]
	RecorderDataPtr->ObjectPropertyTable.ObjectPropertyTableSizeInBytes = TRACE_OBJECT_TABLE_SIZE;
    2294:	22e6      	movs	r2, #230	; 0xe6
    2296:	0092      	lsls	r2, r2, #2
    2298:	661a      	str	r2, [r3, #96]	; 0x60
}
    229a:	bd10      	pop	{r4, pc}
    229c:	200004ac 	.word	0x200004ac
    22a0:	000002fd 	.word	0x000002fd
    22a4:	00000352 	.word	0x00000352
    22a8:	00000372 	.word	0x00000372

000022ac <vTraceInitObjectHandleStack>:

/* Initialization of the handle mechanism, see e.g, xTraceGetObjectHandle */
void vTraceInitObjectHandleStack()
{
	objectHandleStacks.indexOfNextAvailableHandle[0] = objectHandleStacks.lowestIndexOfClass[0] = 0;
    22ac:	4b12      	ldr	r3, [pc, #72]	; (22f8 <vTraceInitObjectHandleStack+0x4c>)
    22ae:	2200      	movs	r2, #0
    22b0:	81da      	strh	r2, [r3, #14]
    22b2:	801a      	strh	r2, [r3, #0]
	objectHandleStacks.indexOfNextAvailableHandle[1] = objectHandleStacks.lowestIndexOfClass[1] = NQueue;
    22b4:	220a      	movs	r2, #10
    22b6:	821a      	strh	r2, [r3, #16]
    22b8:	805a      	strh	r2, [r3, #2]
	objectHandleStacks.indexOfNextAvailableHandle[2] = objectHandleStacks.lowestIndexOfClass[2] = NQueue + NSemaphore;
    22ba:	2214      	movs	r2, #20
    22bc:	825a      	strh	r2, [r3, #18]
    22be:	809a      	strh	r2, [r3, #4]
	objectHandleStacks.indexOfNextAvailableHandle[3] = objectHandleStacks.lowestIndexOfClass[3] = NQueue + NSemaphore + NMutex;
    22c0:	221e      	movs	r2, #30
    22c2:	829a      	strh	r2, [r3, #20]
    22c4:	80da      	strh	r2, [r3, #6]
	objectHandleStacks.indexOfNextAvailableHandle[4] = objectHandleStacks.lowestIndexOfClass[4] = NQueue + NSemaphore + NMutex + NTask;
    22c6:	222d      	movs	r2, #45	; 0x2d
    22c8:	82da      	strh	r2, [r3, #22]
    22ca:	811a      	strh	r2, [r3, #8]
	objectHandleStacks.indexOfNextAvailableHandle[5] = objectHandleStacks.lowestIndexOfClass[5] = NQueue + NSemaphore + NMutex + NTask + NISR;
    22cc:	2232      	movs	r2, #50	; 0x32
    22ce:	831a      	strh	r2, [r3, #24]
    22d0:	815a      	strh	r2, [r3, #10]
	objectHandleStacks.indexOfNextAvailableHandle[6] = objectHandleStacks.lowestIndexOfClass[6] = NQueue + NSemaphore + NMutex + NTask + NISR + NTimer;
    22d2:	2234      	movs	r2, #52	; 0x34
    22d4:	835a      	strh	r2, [r3, #26]
    22d6:	819a      	strh	r2, [r3, #12]

	objectHandleStacks.highestIndexOfClass[0] = NQueue - 1;
    22d8:	2209      	movs	r2, #9
    22da:	839a      	strh	r2, [r3, #28]
	objectHandleStacks.highestIndexOfClass[1] = NQueue + NSemaphore - 1;
    22dc:	2213      	movs	r2, #19
    22de:	83da      	strh	r2, [r3, #30]
	objectHandleStacks.highestIndexOfClass[2] = NQueue + NSemaphore + NMutex - 1;
    22e0:	221d      	movs	r2, #29
    22e2:	841a      	strh	r2, [r3, #32]
	objectHandleStacks.highestIndexOfClass[3] = NQueue + NSemaphore + NMutex + NTask - 1;
    22e4:	222c      	movs	r2, #44	; 0x2c
    22e6:	845a      	strh	r2, [r3, #34]	; 0x22
	objectHandleStacks.highestIndexOfClass[4] = NQueue + NSemaphore + NMutex + NTask + NISR - 1;
    22e8:	2231      	movs	r2, #49	; 0x31
    22ea:	849a      	strh	r2, [r3, #36]	; 0x24
	objectHandleStacks.highestIndexOfClass[5] = NQueue + NSemaphore + NMutex + NTask + NISR + NTimer - 1;
    22ec:	2233      	movs	r2, #51	; 0x33
    22ee:	84da      	strh	r2, [r3, #38]	; 0x26
	objectHandleStacks.highestIndexOfClass[6] = NQueue + NSemaphore + NMutex + NTask + NISR + NTimer + NEventGroup - 1;
    22f0:	2235      	movs	r2, #53	; 0x35
    22f2:	851a      	strh	r2, [r3, #40]	; 0x28
}
    22f4:	4770      	bx	lr
    22f6:	46c0      	nop			; (mov r8, r8)
    22f8:	200004b4 	.word	0x200004b4

000022fc <pszTraceGetErrorNotEnoughHandles>:
	
/* Returns the "Not enough handles" error message for this object class */
const char* pszTraceGetErrorNotEnoughHandles(traceObjectClass objectclass)
{
	switch(objectclass)
    22fc:	2806      	cmp	r0, #6
    22fe:	d80f      	bhi.n	2320 <pszTraceGetErrorNotEnoughHandles+0x24>
    2300:	0080      	lsls	r0, r0, #2
    2302:	4b09      	ldr	r3, [pc, #36]	; (2328 <pszTraceGetErrorNotEnoughHandles+0x2c>)
    2304:	581b      	ldr	r3, [r3, r0]
    2306:	469f      	mov	pc, r3
	{
	case TRACE_CLASS_TASK:
		return "Not enough TASK handles - increase NTask in trcConfig.h";
    2308:	4808      	ldr	r0, [pc, #32]	; (232c <pszTraceGetErrorNotEnoughHandles+0x30>)
    230a:	e00c      	b.n	2326 <pszTraceGetErrorNotEnoughHandles+0x2a>
	case TRACE_CLASS_ISR:
		return "Not enough ISR handles - increase NISR in trcConfig.h";
	case TRACE_CLASS_SEMAPHORE:
		return "Not enough SEMAPHORE handles - increase NSemaphore in trcConfig.h";
    230c:	4808      	ldr	r0, [pc, #32]	; (2330 <pszTraceGetErrorNotEnoughHandles+0x34>)
    230e:	e00a      	b.n	2326 <pszTraceGetErrorNotEnoughHandles+0x2a>
	case TRACE_CLASS_MUTEX:
		return "Not enough MUTEX handles - increase NMutex in trcConfig.h";
    2310:	4808      	ldr	r0, [pc, #32]	; (2334 <pszTraceGetErrorNotEnoughHandles+0x38>)
    2312:	e008      	b.n	2326 <pszTraceGetErrorNotEnoughHandles+0x2a>
	case TRACE_CLASS_QUEUE:
		return "Not enough QUEUE handles - increase NQueue in trcConfig.h";
    2314:	4808      	ldr	r0, [pc, #32]	; (2338 <pszTraceGetErrorNotEnoughHandles+0x3c>)
    2316:	e006      	b.n	2326 <pszTraceGetErrorNotEnoughHandles+0x2a>
	case TRACE_CLASS_TIMER:
		return "Not enough TIMER handles - increase NTimer in trcConfig.h";
    2318:	4808      	ldr	r0, [pc, #32]	; (233c <pszTraceGetErrorNotEnoughHandles+0x40>)
    231a:	e004      	b.n	2326 <pszTraceGetErrorNotEnoughHandles+0x2a>
	case TRACE_CLASS_EVENTGROUP:
		return "Not enough EVENTGROUP handles - increase NEventGroup in trcConfig.h";		
    231c:	4808      	ldr	r0, [pc, #32]	; (2340 <pszTraceGetErrorNotEnoughHandles+0x44>)
    231e:	e002      	b.n	2326 <pszTraceGetErrorNotEnoughHandles+0x2a>
	default:
		return "pszTraceGetErrorHandles: Invalid objectclass!";
    2320:	4808      	ldr	r0, [pc, #32]	; (2344 <pszTraceGetErrorNotEnoughHandles+0x48>)
    2322:	e000      	b.n	2326 <pszTraceGetErrorNotEnoughHandles+0x2a>
	switch(objectclass)
	{
	case TRACE_CLASS_TASK:
		return "Not enough TASK handles - increase NTask in trcConfig.h";
	case TRACE_CLASS_ISR:
		return "Not enough ISR handles - increase NISR in trcConfig.h";
    2324:	4808      	ldr	r0, [pc, #32]	; (2348 <pszTraceGetErrorNotEnoughHandles+0x4c>)
	case TRACE_CLASS_EVENTGROUP:
		return "Not enough EVENTGROUP handles - increase NEventGroup in trcConfig.h";		
	default:
		return "pszTraceGetErrorHandles: Invalid objectclass!";
	}
}
    2326:	4770      	bx	lr
    2328:	00006410 	.word	0x00006410
    232c:	00006448 	.word	0x00006448
    2330:	000064b8 	.word	0x000064b8
    2334:	000064fc 	.word	0x000064fc
    2338:	00006538 	.word	0x00006538
    233c:	00006574 	.word	0x00006574
    2340:	000065b0 	.word	0x000065b0
    2344:	000065f4 	.word	0x000065f4
    2348:	00006480 	.word	0x00006480

0000234c <uiTraceIsObjectExcluded>:

/* Returns the exclude state of the object */
uint8_t uiTraceIsObjectExcluded(traceObjectClass objectclass, objectHandleType handle)
{
    234c:	b508      	push	{r3, lr}
	TRACE_ASSERT(objectclass < TRACE_NCLASSES, "prvTraceIsObjectExcluded: objectclass >= TRACE_NCLASSES", 1);
    234e:	2806      	cmp	r0, #6
    2350:	d904      	bls.n	235c <uiTraceIsObjectExcluded+0x10>
    2352:	482e      	ldr	r0, [pc, #184]	; (240c <uiTraceIsObjectExcluded+0xc0>)
    2354:	4b2e      	ldr	r3, [pc, #184]	; (2410 <uiTraceIsObjectExcluded+0xc4>)
    2356:	4798      	blx	r3
    2358:	2001      	movs	r0, #1
    235a:	e056      	b.n	240a <uiTraceIsObjectExcluded+0xbe>
	TRACE_ASSERT(handle <= RecorderDataPtr->ObjectPropertyTable.NumberOfObjectsPerClass[objectclass], "uiTraceIsObjectExcluded: Invalid value for handle", 1);
    235c:	4b2d      	ldr	r3, [pc, #180]	; (2414 <uiTraceIsObjectExcluded+0xc8>)
    235e:	681b      	ldr	r3, [r3, #0]
    2360:	181b      	adds	r3, r3, r0
    2362:	3360      	adds	r3, #96	; 0x60
    2364:	791b      	ldrb	r3, [r3, #4]
    2366:	428b      	cmp	r3, r1
    2368:	d204      	bcs.n	2374 <uiTraceIsObjectExcluded+0x28>
    236a:	482b      	ldr	r0, [pc, #172]	; (2418 <uiTraceIsObjectExcluded+0xcc>)
    236c:	4b28      	ldr	r3, [pc, #160]	; (2410 <uiTraceIsObjectExcluded+0xc4>)
    236e:	4798      	blx	r3
    2370:	2001      	movs	r0, #1
    2372:	e04a      	b.n	240a <uiTraceIsObjectExcluded+0xbe>
	
	switch(objectclass)
    2374:	2806      	cmp	r0, #6
    2376:	d844      	bhi.n	2402 <uiTraceIsObjectExcluded+0xb6>
    2378:	0080      	lsls	r0, r0, #2
    237a:	4b28      	ldr	r3, [pc, #160]	; (241c <uiTraceIsObjectExcluded+0xd0>)
    237c:	581b      	ldr	r3, [r3, r0]
    237e:	469f      	mov	pc, r3
	{
	case TRACE_CLASS_TASK:
		return TRACE_GET_TASK_FLAG_ISEXCLUDED(handle);
    2380:	3121      	adds	r1, #33	; 0x21
    2382:	2007      	movs	r0, #7
    2384:	4008      	ands	r0, r1
    2386:	2301      	movs	r3, #1
    2388:	4083      	lsls	r3, r0
    238a:	1c18      	adds	r0, r3, #0
    238c:	10c9      	asrs	r1, r1, #3
    238e:	4b24      	ldr	r3, [pc, #144]	; (2420 <uiTraceIsObjectExcluded+0xd4>)
    2390:	5c5b      	ldrb	r3, [r3, r1]
    2392:	4018      	ands	r0, r3
    2394:	e039      	b.n	240a <uiTraceIsObjectExcluded+0xbe>
	case TRACE_CLASS_SEMAPHORE:
		return TRACE_GET_SEMAPHORE_FLAG_ISEXCLUDED(handle);
    2396:	310b      	adds	r1, #11
    2398:	2007      	movs	r0, #7
    239a:	4008      	ands	r0, r1
    239c:	2301      	movs	r3, #1
    239e:	4083      	lsls	r3, r0
    23a0:	1c18      	adds	r0, r3, #0
    23a2:	10c9      	asrs	r1, r1, #3
    23a4:	4b1e      	ldr	r3, [pc, #120]	; (2420 <uiTraceIsObjectExcluded+0xd4>)
    23a6:	5c5b      	ldrb	r3, [r3, r1]
    23a8:	4018      	ands	r0, r3
    23aa:	e02e      	b.n	240a <uiTraceIsObjectExcluded+0xbe>
	case TRACE_CLASS_MUTEX:
		return TRACE_GET_MUTEX_FLAG_ISEXCLUDED(handle);
    23ac:	3116      	adds	r1, #22
    23ae:	2007      	movs	r0, #7
    23b0:	4008      	ands	r0, r1
    23b2:	2301      	movs	r3, #1
    23b4:	4083      	lsls	r3, r0
    23b6:	1c18      	adds	r0, r3, #0
    23b8:	10c9      	asrs	r1, r1, #3
    23ba:	4b19      	ldr	r3, [pc, #100]	; (2420 <uiTraceIsObjectExcluded+0xd4>)
    23bc:	5c5b      	ldrb	r3, [r3, r1]
    23be:	4018      	ands	r0, r3
    23c0:	e023      	b.n	240a <uiTraceIsObjectExcluded+0xbe>
	case TRACE_CLASS_QUEUE:
		return TRACE_GET_QUEUE_FLAG_ISEXCLUDED(handle);
    23c2:	2007      	movs	r0, #7
    23c4:	4008      	ands	r0, r1
    23c6:	2301      	movs	r3, #1
    23c8:	4083      	lsls	r3, r0
    23ca:	1c18      	adds	r0, r3, #0
    23cc:	08c9      	lsrs	r1, r1, #3
    23ce:	4b14      	ldr	r3, [pc, #80]	; (2420 <uiTraceIsObjectExcluded+0xd4>)
    23d0:	5c5b      	ldrb	r3, [r3, r1]
    23d2:	4018      	ands	r0, r3
    23d4:	e019      	b.n	240a <uiTraceIsObjectExcluded+0xbe>
	case TRACE_CLASS_TIMER:
		return TRACE_GET_TIMER_FLAG_ISEXCLUDED(handle);		
    23d6:	3131      	adds	r1, #49	; 0x31
    23d8:	2007      	movs	r0, #7
    23da:	4008      	ands	r0, r1
    23dc:	2301      	movs	r3, #1
    23de:	4083      	lsls	r3, r0
    23e0:	1c18      	adds	r0, r3, #0
    23e2:	10c9      	asrs	r1, r1, #3
    23e4:	4b0e      	ldr	r3, [pc, #56]	; (2420 <uiTraceIsObjectExcluded+0xd4>)
    23e6:	5c5b      	ldrb	r3, [r3, r1]
    23e8:	4018      	ands	r0, r3
    23ea:	e00e      	b.n	240a <uiTraceIsObjectExcluded+0xbe>
	case TRACE_CLASS_EVENTGROUP:
		return TRACE_GET_EVENTGROUP_FLAG_ISEXCLUDED(handle);				
    23ec:	3134      	adds	r1, #52	; 0x34
    23ee:	2007      	movs	r0, #7
    23f0:	4008      	ands	r0, r1
    23f2:	2301      	movs	r3, #1
    23f4:	4083      	lsls	r3, r0
    23f6:	1c18      	adds	r0, r3, #0
    23f8:	10c9      	asrs	r1, r1, #3
    23fa:	4b09      	ldr	r3, [pc, #36]	; (2420 <uiTraceIsObjectExcluded+0xd4>)
    23fc:	5c5b      	ldrb	r3, [r3, r1]
    23fe:	4018      	ands	r0, r3
    2400:	e003      	b.n	240a <uiTraceIsObjectExcluded+0xbe>
	}
	
	vTraceError("Invalid object class ID in uiTraceIsObjectExcluded!");
    2402:	4808      	ldr	r0, [pc, #32]	; (2424 <uiTraceIsObjectExcluded+0xd8>)
    2404:	4b02      	ldr	r3, [pc, #8]	; (2410 <uiTraceIsObjectExcluded+0xc4>)
    2406:	4798      	blx	r3
	
	/* Must never reach */
	return 1;
    2408:	2001      	movs	r0, #1
}
    240a:	bd08      	pop	{r3, pc}
    240c:	00006624 	.word	0x00006624
    2410:	0000102d 	.word	0x0000102d
    2414:	200004ac 	.word	0x200004ac
    2418:	0000666c 	.word	0x0000666c
    241c:	0000642c 	.word	0x0000642c
    2420:	20000528 	.word	0x20000528
    2424:	000066ac 	.word	0x000066ac

00002428 <writeInt32>:
	return i + 2;
}

/*** Locally used in vTracePrintF ***/
static uint8_t writeInt32(void * buffer, uint8_t i, uint32_t value)
{
    2428:	b510      	push	{r4, lr}
    242a:	1e03      	subs	r3, r0, #0
	TRACE_ASSERT(buffer != NULL, "writeInt32: buffer == NULL", 0);
    242c:	d006      	beq.n	243c <writeInt32+0x14>

	/* A 32 bit value should begin at an even 4-byte address */
	while ((i % 4) != 0)
    242e:	0788      	lsls	r0, r1, #30
    2430:	d010      	beq.n	2454 <writeInt32+0x2c>
	{
		if (i >= MAX_ARG_SIZE)
    2432:	2923      	cmp	r1, #35	; 0x23
    2434:	d817      	bhi.n	2466 <writeInt32+0x3e>
		{
			return 255;
		}

		((uint8_t*)buffer)[i] = 0;
    2436:	2400      	movs	r4, #0
static uint8_t writeInt32(void * buffer, uint8_t i, uint32_t value)
{
	TRACE_ASSERT(buffer != NULL, "writeInt32: buffer == NULL", 0);

	/* A 32 bit value should begin at an even 4-byte address */
	while ((i % 4) != 0)
    2438:	2003      	movs	r0, #3
    243a:	e006      	b.n	244a <writeInt32+0x22>
}

/*** Locally used in vTracePrintF ***/
static uint8_t writeInt32(void * buffer, uint8_t i, uint32_t value)
{
	TRACE_ASSERT(buffer != NULL, "writeInt32: buffer == NULL", 0);
    243c:	480c      	ldr	r0, [pc, #48]	; (2470 <writeInt32+0x48>)
    243e:	4b0d      	ldr	r3, [pc, #52]	; (2474 <writeInt32+0x4c>)
    2440:	4798      	blx	r3
    2442:	2000      	movs	r0, #0
    2444:	e012      	b.n	246c <writeInt32+0x44>

	/* A 32 bit value should begin at an even 4-byte address */
	while ((i % 4) != 0)
	{
		if (i >= MAX_ARG_SIZE)
    2446:	2924      	cmp	r1, #36	; 0x24
    2448:	d00f      	beq.n	246a <writeInt32+0x42>
		{
			return 255;
		}

		((uint8_t*)buffer)[i] = 0;
    244a:	545c      	strb	r4, [r3, r1]
		i++;
    244c:	3101      	adds	r1, #1
    244e:	b2c9      	uxtb	r1, r1
static uint8_t writeInt32(void * buffer, uint8_t i, uint32_t value)
{
	TRACE_ASSERT(buffer != NULL, "writeInt32: buffer == NULL", 0);

	/* A 32 bit value should begin at an even 4-byte address */
	while ((i % 4) != 0)
    2450:	4208      	tst	r0, r1
    2452:	d1f8      	bne.n	2446 <writeInt32+0x1e>

		((uint8_t*)buffer)[i] = 0;
		i++;
	}

	if (i + 4 > MAX_ARG_SIZE)
    2454:	1d0c      	adds	r4, r1, #4
	{
		return 255;
    2456:	20ff      	movs	r0, #255	; 0xff

		((uint8_t*)buffer)[i] = 0;
		i++;
	}

	if (i + 4 > MAX_ARG_SIZE)
    2458:	2c24      	cmp	r4, #36	; 0x24
    245a:	dc07      	bgt.n	246c <writeInt32+0x44>
	{
		return 255;
	}

	((uint32_t*)buffer)[i/4] = value;
    245c:	0888      	lsrs	r0, r1, #2
    245e:	0080      	lsls	r0, r0, #2
    2460:	50c2      	str	r2, [r0, r3]

	return i + 4;
    2462:	b2e0      	uxtb	r0, r4
    2464:	e002      	b.n	246c <writeInt32+0x44>
	/* A 32 bit value should begin at an even 4-byte address */
	while ((i % 4) != 0)
	{
		if (i >= MAX_ARG_SIZE)
		{
			return 255;
    2466:	20ff      	movs	r0, #255	; 0xff
    2468:	e000      	b.n	246c <writeInt32+0x44>
    246a:	20ff      	movs	r0, #255	; 0xff
	}

	((uint32_t*)buffer)[i/4] = value;

	return i + 4;
}
    246c:	bd10      	pop	{r4, pc}
    246e:	46c0      	nop			; (mov r8, r8)
    2470:	00006764 	.word	0x00006764
    2474:	0000102d 	.word	0x0000102d

00002478 <writeInt16>:
	return i + 1;
}

/*** Locally used in vTracePrintF ***/
static uint8_t writeInt16(void * buffer, uint8_t i, uint16_t value)
{
    2478:	b510      	push	{r4, lr}
    247a:	1e03      	subs	r3, r0, #0
	TRACE_ASSERT(buffer != NULL, "writeInt16: buffer == NULL", 0);
    247c:	d006      	beq.n	248c <writeInt16+0x14>

	/* Align to multiple of 2 */
	while ((i % 2) != 0)
    247e:	07c8      	lsls	r0, r1, #31
    2480:	d510      	bpl.n	24a4 <writeInt16+0x2c>
	{
		if (i >= MAX_ARG_SIZE)
    2482:	2923      	cmp	r1, #35	; 0x23
    2484:	d817      	bhi.n	24b6 <writeInt16+0x3e>
		{
			return 255;
		}

		((uint8_t*)buffer)[i] = 0;
    2486:	2400      	movs	r4, #0
static uint8_t writeInt16(void * buffer, uint8_t i, uint16_t value)
{
	TRACE_ASSERT(buffer != NULL, "writeInt16: buffer == NULL", 0);

	/* Align to multiple of 2 */
	while ((i % 2) != 0)
    2488:	2001      	movs	r0, #1
    248a:	e006      	b.n	249a <writeInt16+0x22>
}

/*** Locally used in vTracePrintF ***/
static uint8_t writeInt16(void * buffer, uint8_t i, uint16_t value)
{
	TRACE_ASSERT(buffer != NULL, "writeInt16: buffer == NULL", 0);
    248c:	480c      	ldr	r0, [pc, #48]	; (24c0 <writeInt16+0x48>)
    248e:	4b0d      	ldr	r3, [pc, #52]	; (24c4 <writeInt16+0x4c>)
    2490:	4798      	blx	r3
    2492:	2000      	movs	r0, #0
    2494:	e012      	b.n	24bc <writeInt16+0x44>

	/* Align to multiple of 2 */
	while ((i % 2) != 0)
	{
		if (i >= MAX_ARG_SIZE)
    2496:	2924      	cmp	r1, #36	; 0x24
    2498:	d00f      	beq.n	24ba <writeInt16+0x42>
		{
			return 255;
		}

		((uint8_t*)buffer)[i] = 0;
    249a:	545c      	strb	r4, [r3, r1]
		i++;
    249c:	3101      	adds	r1, #1
    249e:	b2c9      	uxtb	r1, r1
static uint8_t writeInt16(void * buffer, uint8_t i, uint16_t value)
{
	TRACE_ASSERT(buffer != NULL, "writeInt16: buffer == NULL", 0);

	/* Align to multiple of 2 */
	while ((i % 2) != 0)
    24a0:	4208      	tst	r0, r1
    24a2:	d1f8      	bne.n	2496 <writeInt16+0x1e>

		((uint8_t*)buffer)[i] = 0;
		i++;
	}

	if (i + 2 > MAX_ARG_SIZE)
    24a4:	1c8c      	adds	r4, r1, #2
	{
		return 255;
    24a6:	20ff      	movs	r0, #255	; 0xff

		((uint8_t*)buffer)[i] = 0;
		i++;
	}

	if (i + 2 > MAX_ARG_SIZE)
    24a8:	2c24      	cmp	r4, #36	; 0x24
    24aa:	dc07      	bgt.n	24bc <writeInt16+0x44>
	{
		return 255;
	}

	((uint16_t*)buffer)[i/2] = value;
    24ac:	0848      	lsrs	r0, r1, #1
    24ae:	0040      	lsls	r0, r0, #1
    24b0:	52c2      	strh	r2, [r0, r3]

	return i + 2;
    24b2:	b2e0      	uxtb	r0, r4
    24b4:	e002      	b.n	24bc <writeInt16+0x44>
	/* Align to multiple of 2 */
	while ((i % 2) != 0)
	{
		if (i >= MAX_ARG_SIZE)
		{
			return 255;
    24b6:	20ff      	movs	r0, #255	; 0xff
    24b8:	e000      	b.n	24bc <writeInt16+0x44>
    24ba:	20ff      	movs	r0, #255	; 0xff
	}

	((uint16_t*)buffer)[i/2] = value;

	return i + 2;
}
    24bc:	bd10      	pop	{r4, pc}
    24be:	46c0      	nop			; (mov r8, r8)
    24c0:	00006790 	.word	0x00006790
    24c4:	0000102d 	.word	0x0000102d

000024c8 <vTraceInitTraceData>:
 *
 * Allocates, if necessary, and initializes the recorder data structure, based
 * on the constants in trcConfig.h.
 ******************************************************************************/
void vTraceInitTraceData(void)
{
    24c8:	b508      	push	{r3, lr}
	prvTraceInitTraceData();
    24ca:	4b01      	ldr	r3, [pc, #4]	; (24d0 <vTraceInitTraceData+0x8>)
    24cc:	4798      	blx	r3
}
    24ce:	bd08      	pop	{r3, pc}
    24d0:	00001089 	.word	0x00001089

000024d4 <uiTraceStart>:
 * error. In that case, check vTraceGetLastError to get the error message.
 * Any error message is also presented when opening a trace file.
 ******************************************************************************/

uint32_t uiTraceStart(void)
{
    24d4:	b570      	push	{r4, r5, r6, lr}
	objectHandleType handle;
	TRACE_SR_ALLOC_CRITICAL_SECTION();

	handle = 0;

	if (RecorderDataPtr == NULL)
    24d6:	4b1d      	ldr	r3, [pc, #116]	; (254c <uiTraceStart+0x78>)
    24d8:	681b      	ldr	r3, [r3, #0]
    24da:	2b00      	cmp	r3, #0
    24dc:	d104      	bne.n	24e8 <uiTraceStart+0x14>
	{
		vTraceError("RecorderDataPtr is NULL. Call vTraceInitTraceData() before starting trace.");
    24de:	481c      	ldr	r0, [pc, #112]	; (2550 <uiTraceStart+0x7c>)
    24e0:	4b1c      	ldr	r3, [pc, #112]	; (2554 <uiTraceStart+0x80>)
    24e2:	4798      	blx	r3
		return 0;
    24e4:	2000      	movs	r0, #0
    24e6:	e030      	b.n	254a <uiTraceStart+0x76>
	}

	if (traceErrorMessage == NULL)
    24e8:	4b1b      	ldr	r3, [pc, #108]	; (2558 <uiTraceStart+0x84>)
    24ea:	681b      	ldr	r3, [r3, #0]
    24ec:	2b00      	cmp	r3, #0
    24ee:	d129      	bne.n	2544 <uiTraceStart+0x70>
	{
		trcCRITICAL_SECTION_BEGIN();
    24f0:	4b1a      	ldr	r3, [pc, #104]	; (255c <uiTraceStart+0x88>)
    24f2:	4798      	blx	r3
    24f4:	1c05      	adds	r5, r0, #0
    24f6:	4b1a      	ldr	r3, [pc, #104]	; (2560 <uiTraceStart+0x8c>)
    24f8:	681a      	ldr	r2, [r3, #0]
    24fa:	3201      	adds	r2, #1
    24fc:	601a      	str	r2, [r3, #0]
		RecorderDataPtr->recorderActive = 1;
    24fe:	4b13      	ldr	r3, [pc, #76]	; (254c <uiTraceStart+0x78>)
    2500:	681b      	ldr	r3, [r3, #0]
    2502:	2201      	movs	r2, #1
    2504:	631a      	str	r2, [r3, #48]	; 0x30

		handle = TRACE_GET_TASK_NUMBER(TRACE_GET_CURRENT_TASK());
    2506:	4b17      	ldr	r3, [pc, #92]	; (2564 <uiTraceStart+0x90>)
    2508:	4798      	blx	r3
    250a:	4b17      	ldr	r3, [pc, #92]	; (2568 <uiTraceStart+0x94>)
    250c:	4798      	blx	r3
    250e:	1e04      	subs	r4, r0, #0
		if (handle == 0)
    2510:	d10e      	bne.n	2530 <uiTraceStart+0x5c>
		{
			/* This occurs if the scheduler is not yet started.
			This creates a dummy "(startup)" task entry internally in the
			recorder */
			handle = xTraceGetObjectHandle(TRACE_CLASS_TASK);
    2512:	2003      	movs	r0, #3
    2514:	4b15      	ldr	r3, [pc, #84]	; (256c <uiTraceStart+0x98>)
    2516:	4798      	blx	r3
    2518:	1c06      	adds	r6, r0, #0
    251a:	1c04      	adds	r4, r0, #0
			vTraceSetObjectName(TRACE_CLASS_TASK, handle, "(startup)");
    251c:	2003      	movs	r0, #3
    251e:	1c31      	adds	r1, r6, #0
    2520:	4a13      	ldr	r2, [pc, #76]	; (2570 <uiTraceStart+0x9c>)
    2522:	4b14      	ldr	r3, [pc, #80]	; (2574 <uiTraceStart+0xa0>)
    2524:	4798      	blx	r3

			vTraceSetPriorityProperty(TRACE_CLASS_TASK, handle, 0);
    2526:	2003      	movs	r0, #3
    2528:	1c31      	adds	r1, r6, #0
    252a:	2200      	movs	r2, #0
    252c:	4b12      	ldr	r3, [pc, #72]	; (2578 <uiTraceStart+0xa4>)
    252e:	4798      	blx	r3
		}

		vTraceStoreTaskswitch(handle); /* Register the currently running task */
    2530:	1c20      	adds	r0, r4, #0
    2532:	4b12      	ldr	r3, [pc, #72]	; (257c <uiTraceStart+0xa8>)
    2534:	4798      	blx	r3
		trcCRITICAL_SECTION_END();
    2536:	4b0a      	ldr	r3, [pc, #40]	; (2560 <uiTraceStart+0x8c>)
    2538:	681a      	ldr	r2, [r3, #0]
    253a:	3a01      	subs	r2, #1
    253c:	601a      	str	r2, [r3, #0]
    253e:	1c28      	adds	r0, r5, #0
    2540:	4b0f      	ldr	r3, [pc, #60]	; (2580 <uiTraceStart+0xac>)
    2542:	4798      	blx	r3
	}

	return RecorderDataPtr->recorderActive;
    2544:	4b01      	ldr	r3, [pc, #4]	; (254c <uiTraceStart+0x78>)
    2546:	681b      	ldr	r3, [r3, #0]
    2548:	6b18      	ldr	r0, [r3, #48]	; 0x30
}
    254a:	bd70      	pop	{r4, r5, r6, pc}
    254c:	200004ac 	.word	0x200004ac
    2550:	000067bc 	.word	0x000067bc
    2554:	0000102d 	.word	0x0000102d
    2558:	200004b0 	.word	0x200004b0
    255c:	00002ab5 	.word	0x00002ab5
    2560:	20000538 	.word	0x20000538
    2564:	000021f1 	.word	0x000021f1
    2568:	000021e1 	.word	0x000021e1
    256c:	000012cd 	.word	0x000012cd
    2570:	00006808 	.word	0x00006808
    2574:	00001491 	.word	0x00001491
    2578:	00001f4d 	.word	0x00001f4d
    257c:	000020b5 	.word	0x000020b5
    2580:	00002ac1 	.word	0x00002ac1

00002584 <xTraceOpenLabel>:
 * therefore recommended for user events that are frequently
 * executed and/or located in time-critical code. The lookup operation is
 * however fairly fast due to the design of the symbol table.
 ******************************************************************************/
traceLabel xTraceOpenLabel(const char* label)
{
    2584:	b508      	push	{r3, lr}
	TRACE_ASSERT(label != NULL, "xTraceOpenLabel: label == NULL", (traceLabel)0);
    2586:	2800      	cmp	r0, #0
    2588:	d104      	bne.n	2594 <xTraceOpenLabel+0x10>
    258a:	4804      	ldr	r0, [pc, #16]	; (259c <xTraceOpenLabel+0x18>)
    258c:	4b04      	ldr	r3, [pc, #16]	; (25a0 <xTraceOpenLabel+0x1c>)
    258e:	4798      	blx	r3
    2590:	2000      	movs	r0, #0
    2592:	e002      	b.n	259a <xTraceOpenLabel+0x16>

	return prvTraceOpenSymbol(label, 0);
    2594:	2100      	movs	r1, #0
    2596:	4b03      	ldr	r3, [pc, #12]	; (25a4 <xTraceOpenLabel+0x20>)
    2598:	4798      	blx	r3
}
    259a:	bd08      	pop	{r3, pc}
    259c:	000069c8 	.word	0x000069c8
    25a0:	0000102d 	.word	0x0000102d
    25a4:	00001945 	.word	0x00001945

000025a8 <vTracePrintF_Helper>:
	va_end(vl);
#endif /* TRACE_SCHEDULING_ONLY */
}

void vTracePrintF_Helper(traceLabel eventLabel, const char* formatStr, va_list vl)
{
    25a8:	b5f0      	push	{r4, r5, r6, r7, lr}
    25aa:	465f      	mov	r7, fp
    25ac:	4656      	mov	r6, sl
    25ae:	464d      	mov	r5, r9
    25b0:	4644      	mov	r4, r8
    25b2:	b4f0      	push	{r4, r5, r6, r7}
    25b4:	b08f      	sub	sp, #60	; 0x3c
    25b6:	4682      	mov	sl, r0
    25b8:	1c0d      	adds	r5, r1, #0
    25ba:	1c14      	adds	r4, r2, #0
	* global. That would cause data corruption when two calls to vTracePrintF
	* from different tasks overlaps (interrupts are only disabled in a small
	* part of this function, otherwise enabled)
	***************************************************************************/

	TRACE_ASSERT(formatStr != NULL, "vTracePrintF: formatStr == NULL", );
    25bc:	2900      	cmp	r1, #0
    25be:	d103      	bne.n	25c8 <vTracePrintF_Helper+0x20>
    25c0:	489b      	ldr	r0, [pc, #620]	; (2830 <vTracePrintF_Helper+0x288>)
    25c2:	4b9c      	ldr	r3, [pc, #624]	; (2834 <vTracePrintF_Helper+0x28c>)
    25c4:	4798      	blx	r3
    25c6:	e1b1      	b.n	292c <vTracePrintF_Helper+0x384>

	trcCRITICAL_SECTION_BEGIN();
    25c8:	4b9b      	ldr	r3, [pc, #620]	; (2838 <vTracePrintF_Helper+0x290>)
    25ca:	4798      	blx	r3
    25cc:	1c07      	adds	r7, r0, #0
    25ce:	4b9b      	ldr	r3, [pc, #620]	; (283c <vTracePrintF_Helper+0x294>)
    25d0:	681a      	ldr	r2, [r3, #0]
    25d2:	3201      	adds	r2, #1
    25d4:	601a      	str	r2, [r3, #0]

	if (RecorderDataPtr->recorderActive && (! inExcludedTask || nISRactive) && handle_of_last_logged_task)
    25d6:	4b9a      	ldr	r3, [pc, #616]	; (2840 <vTracePrintF_Helper+0x298>)
    25d8:	681b      	ldr	r3, [r3, #0]
    25da:	6b1b      	ldr	r3, [r3, #48]	; 0x30
    25dc:	2b00      	cmp	r3, #0
    25de:	d100      	bne.n	25e2 <vTracePrintF_Helper+0x3a>
    25e0:	e19d      	b.n	291e <vTracePrintF_Helper+0x376>
    25e2:	4b98      	ldr	r3, [pc, #608]	; (2844 <vTracePrintF_Helper+0x29c>)
    25e4:	781b      	ldrb	r3, [r3, #0]
    25e6:	2b00      	cmp	r3, #0
    25e8:	d005      	beq.n	25f6 <vTracePrintF_Helper+0x4e>
    25ea:	4b97      	ldr	r3, [pc, #604]	; (2848 <vTracePrintF_Helper+0x2a0>)
    25ec:	781b      	ldrb	r3, [r3, #0]
    25ee:	b25b      	sxtb	r3, r3
    25f0:	2b00      	cmp	r3, #0
    25f2:	d100      	bne.n	25f6 <vTracePrintF_Helper+0x4e>
    25f4:	e193      	b.n	291e <vTracePrintF_Helper+0x376>
    25f6:	4b95      	ldr	r3, [pc, #596]	; (284c <vTracePrintF_Helper+0x2a4>)
    25f8:	781b      	ldrb	r3, [r3, #0]
    25fa:	2b00      	cmp	r3, #0
    25fc:	d100      	bne.n	2600 <vTracePrintF_Helper+0x58>
    25fe:	e18e      	b.n	291e <vTracePrintF_Helper+0x376>
		/* First, write the "primary" user event entry in the local buffer, but
		let the event type be "EVENT_BEING_WRITTEN" for now...*/

		ue1 = (UserEvent*)(&tempDataBuffer[0]);

		ue1->type = EVENT_BEING_WRITTEN;	 /* Update this as the last step */
    2600:	22aa      	movs	r2, #170	; 0xaa
    2602:	ab05      	add	r3, sp, #20
    2604:	701a      	strb	r2, [r3, #0]
    2606:	46a3      	mov	fp, r4
 ******************************************************************************/
static uint8_t prvTraceUserEventFormat(const char* formatStr, va_list vl, uint8_t* buffer, uint8_t byteOffset)
{
	uint16_t formatStrIndex = 0;
	uint8_t argCounter = 0;
	uint8_t i = byteOffset;
    2608:	2604      	movs	r6, #4
 * Parses the format string and stores the arguments in the buffer.
 ******************************************************************************/
static uint8_t prvTraceUserEventFormat(const char* formatStr, va_list vl, uint8_t* buffer, uint8_t byteOffset)
{
	uint16_t formatStrIndex = 0;
	uint8_t argCounter = 0;
    260a:	2000      	movs	r0, #0
    260c:	4681      	mov	r9, r0
 *
 * Parses the format string and stores the arguments in the buffer.
 ******************************************************************************/
static uint8_t prvTraceUserEventFormat(const char* formatStr, va_list vl, uint8_t* buffer, uint8_t byteOffset)
{
	uint16_t formatStrIndex = 0;
    260e:	2400      	movs	r4, #0
    2610:	e12c      	b.n	286c <vTracePrintF_Helper+0x2c4>
	uint8_t argCounter = 0;
	uint8_t i = byteOffset;

	while (formatStr[formatStrIndex] != '\0')
	{
		if (formatStr[formatStrIndex] == '%')
    2612:	2b25      	cmp	r3, #37	; 0x25
    2614:	d000      	beq.n	2618 <vTracePrintF_Helper+0x70>
    2616:	e101      	b.n	281c <vTracePrintF_Helper+0x274>
		{
			argCounter++;
    2618:	464b      	mov	r3, r9
    261a:	3301      	adds	r3, #1
    261c:	b2db      	uxtb	r3, r3
    261e:	4699      	mov	r9, r3

			if (argCounter > 15)
    2620:	2b0f      	cmp	r3, #15
    2622:	d904      	bls.n	262e <vTracePrintF_Helper+0x86>
			{
				vTraceError("vTracePrintF - Too many arguments, max 15 allowed!");
    2624:	488a      	ldr	r0, [pc, #552]	; (2850 <vTracePrintF_Helper+0x2a8>)
    2626:	4b83      	ldr	r3, [pc, #524]	; (2834 <vTracePrintF_Helper+0x28c>)
    2628:	4798      	blx	r3
				return 0;
    262a:	2600      	movs	r6, #0
    262c:	e128      	b.n	2880 <vTracePrintF_Helper+0x2d8>
			* the main event buffer using a fast memcpy. The event code is finalized as the
			* very last step. Before that step, the event code indicates an unfinished
			* event, which causes it to be ignored and stop the loading of the file (since
			* an unfinished event is the last event in the trace).
			*******************************************************************************/
			formatStrIndex++;
    262e:	3401      	adds	r4, #1
    2630:	b2a4      	uxth	r4, r4
    2632:	e001      	b.n	2638 <vTracePrintF_Helper+0x90>

			while ((formatStr[formatStrIndex] >= '0' && formatStr[formatStrIndex] <= '9') || formatStr[formatStrIndex] == '#' || formatStr[formatStrIndex] == '.')
				formatStrIndex++;
    2634:	3401      	adds	r4, #1
    2636:	b2a4      	uxth	r4, r4
			* event, which causes it to be ignored and stop the loading of the file (since
			* an unfinished event is the last event in the trace).
			*******************************************************************************/
			formatStrIndex++;

			while ((formatStr[formatStrIndex] >= '0' && formatStr[formatStrIndex] <= '9') || formatStr[formatStrIndex] == '#' || formatStr[formatStrIndex] == '.')
    2638:	5d2b      	ldrb	r3, [r5, r4]
    263a:	1c1a      	adds	r2, r3, #0
    263c:	3a30      	subs	r2, #48	; 0x30
    263e:	2a09      	cmp	r2, #9
    2640:	d9f8      	bls.n	2634 <vTracePrintF_Helper+0x8c>
    2642:	2b23      	cmp	r3, #35	; 0x23
    2644:	d0f6      	beq.n	2634 <vTracePrintF_Helper+0x8c>
    2646:	2b2e      	cmp	r3, #46	; 0x2e
    2648:	d0f4      	beq.n	2634 <vTracePrintF_Helper+0x8c>
    264a:	1c21      	adds	r1, r4, #0
				formatStrIndex++;

			if (formatStr[formatStrIndex] != '\0')
    264c:	2b00      	cmp	r3, #0
    264e:	d100      	bne.n	2652 <vTracePrintF_Helper+0xaa>
    2650:	e110      	b.n	2874 <vTracePrintF_Helper+0x2cc>
			{
				switch (formatStr[formatStrIndex])
    2652:	3b58      	subs	r3, #88	; 0x58
    2654:	b2da      	uxtb	r2, r3
    2656:	2a20      	cmp	r2, #32
    2658:	d900      	bls.n	265c <vTracePrintF_Helper+0xb4>
    265a:	e0df      	b.n	281c <vTracePrintF_Helper+0x274>
    265c:	0093      	lsls	r3, r2, #2
    265e:	4a7d      	ldr	r2, [pc, #500]	; (2854 <vTracePrintF_Helper+0x2ac>)
    2660:	58d3      	ldr	r3, [r2, r3]
    2662:	469f      	mov	pc, r3
				{
					case 'd':	i = writeInt32(	buffer,
    2664:	2304      	movs	r3, #4
    2666:	4698      	mov	r8, r3
    2668:	44d8      	add	r8, fp
    266a:	4658      	mov	r0, fp
    266c:	6802      	ldr	r2, [r0, #0]
    266e:	a805      	add	r0, sp, #20
    2670:	1c31      	adds	r1, r6, #0
    2672:	4b79      	ldr	r3, [pc, #484]	; (2858 <vTracePrintF_Helper+0x2b0>)
    2674:	4798      	blx	r3
    2676:	1c06      	adds	r6, r0, #0
    2678:	46c3      	mov	fp, r8
    267a:	e0cf      	b.n	281c <vTracePrintF_Helper+0x274>
												i,
												(uint32_t)va_arg(vl, uint32_t));
								break;
					case 'x':
					case 'X':
					case 'u':	i = writeInt32(	buffer,
    267c:	2104      	movs	r1, #4
    267e:	4688      	mov	r8, r1
    2680:	44d8      	add	r8, fp
    2682:	465b      	mov	r3, fp
    2684:	681a      	ldr	r2, [r3, #0]
    2686:	a805      	add	r0, sp, #20
    2688:	1c31      	adds	r1, r6, #0
    268a:	4b73      	ldr	r3, [pc, #460]	; (2858 <vTracePrintF_Helper+0x2b0>)
    268c:	4798      	blx	r3
    268e:	1c06      	adds	r6, r0, #0
    2690:	46c3      	mov	fp, r8
    2692:	e0c3      	b.n	281c <vTracePrintF_Helper+0x274>
												i,
												(uint32_t)va_arg(vl, uint32_t));
								break;
					case 's':	i = writeInt16(	buffer,
    2694:	2004      	movs	r0, #4
    2696:	4680      	mov	r8, r0
    2698:	44d8      	add	r8, fp
    269a:	4659      	mov	r1, fp
    269c:	6808      	ldr	r0, [r1, #0]
    269e:	4b6f      	ldr	r3, [pc, #444]	; (285c <vTracePrintF_Helper+0x2b4>)
    26a0:	4798      	blx	r3
    26a2:	1c02      	adds	r2, r0, #0
    26a4:	a805      	add	r0, sp, #20
    26a6:	1c31      	adds	r1, r6, #0
    26a8:	4b6d      	ldr	r3, [pc, #436]	; (2860 <vTracePrintF_Helper+0x2b8>)
    26aa:	4798      	blx	r3
    26ac:	1c06      	adds	r6, r0, #0
    26ae:	46c3      	mov	fp, r8
    26b0:	e0b4      	b.n	281c <vTracePrintF_Helper+0x274>
					/* Yes, "double" as type also in the float
					case. This since "float" is promoted into "double"
					by the va_arg stuff. */
					case 'f':	i = writeFloat(	buffer,
												i,
												(float)va_arg(vl, double));
    26b2:	465b      	mov	r3, fp
    26b4:	3307      	adds	r3, #7
    26b6:	2207      	movs	r2, #7
    26b8:	4393      	bics	r3, r2
    26ba:	2208      	movs	r2, #8
    26bc:	18d2      	adds	r2, r2, r3
    26be:	4693      	mov	fp, r2
    26c0:	6818      	ldr	r0, [r3, #0]
    26c2:	6859      	ldr	r1, [r3, #4]
    26c4:	9000      	str	r0, [sp, #0]
    26c6:	9101      	str	r1, [sp, #4]
static uint8_t writeFloat(void * buffer, uint8_t i, float value)
{
	TRACE_ASSERT(buffer != NULL, "writeFloat: buffer == NULL", 0);

	/* A 32 bit value should begin at an even 4-byte address */
	while ((i % 4) != 0)
    26c8:	07b1      	lsls	r1, r6, #30
    26ca:	d00d      	beq.n	26e8 <vTracePrintF_Helper+0x140>
	{
		if (i >= MAX_ARG_SIZE)
    26cc:	2e23      	cmp	r6, #35	; 0x23
    26ce:	d81e      	bhi.n	270e <vTracePrintF_Helper+0x166>
		{
			return 255;
		}

		((uint8_t*)buffer)[i] = 0;
    26d0:	2200      	movs	r2, #0
static uint8_t writeFloat(void * buffer, uint8_t i, float value)
{
	TRACE_ASSERT(buffer != NULL, "writeFloat: buffer == NULL", 0);

	/* A 32 bit value should begin at an even 4-byte address */
	while ((i % 4) != 0)
    26d2:	2303      	movs	r3, #3
    26d4:	e001      	b.n	26da <vTracePrintF_Helper+0x132>
	{
		if (i >= MAX_ARG_SIZE)
    26d6:	2e24      	cmp	r6, #36	; 0x24
    26d8:	d01b      	beq.n	2712 <vTracePrintF_Helper+0x16a>
		{
			return 255;
		}

		((uint8_t*)buffer)[i] = 0;
    26da:	a805      	add	r0, sp, #20
    26dc:	1981      	adds	r1, r0, r6
    26de:	700a      	strb	r2, [r1, #0]
		i++;
    26e0:	3601      	adds	r6, #1
    26e2:	b2f6      	uxtb	r6, r6
static uint8_t writeFloat(void * buffer, uint8_t i, float value)
{
	TRACE_ASSERT(buffer != NULL, "writeFloat: buffer == NULL", 0);

	/* A 32 bit value should begin at an even 4-byte address */
	while ((i % 4) != 0)
    26e4:	4233      	tst	r3, r6
    26e6:	d1f6      	bne.n	26d6 <vTracePrintF_Helper+0x12e>

		((uint8_t*)buffer)[i] = 0;
		i++;
	}

	if (i + 4 > MAX_ARG_SIZE)
    26e8:	1d33      	adds	r3, r6, #4
    26ea:	2b24      	cmp	r3, #36	; 0x24
    26ec:	dc13      	bgt.n	2716 <vTracePrintF_Helper+0x16e>
	{
		return 255;
	}

	((float*)buffer)[i/4] = value;
    26ee:	23ff      	movs	r3, #255	; 0xff
    26f0:	009b      	lsls	r3, r3, #2
    26f2:	4033      	ands	r3, r6
    26f4:	a90e      	add	r1, sp, #56	; 0x38
    26f6:	18cb      	adds	r3, r1, r3
    26f8:	3b24      	subs	r3, #36	; 0x24
    26fa:	4698      	mov	r8, r3

#if (INCLUDE_FLOAT_SUPPORT)
					/* Yes, "double" as type also in the float
					case. This since "float" is promoted into "double"
					by the va_arg stuff. */
					case 'f':	i = writeFloat(	buffer,
    26fc:	9800      	ldr	r0, [sp, #0]
    26fe:	9901      	ldr	r1, [sp, #4]
    2700:	4b58      	ldr	r3, [pc, #352]	; (2864 <vTracePrintF_Helper+0x2bc>)
    2702:	4798      	blx	r3
    2704:	4642      	mov	r2, r8
    2706:	6010      	str	r0, [r2, #0]
		return 255;
	}

	((float*)buffer)[i/4] = value;

	return i + 4;
    2708:	3604      	adds	r6, #4
    270a:	b2f6      	uxtb	r6, r6
    270c:	e086      	b.n	281c <vTracePrintF_Helper+0x274>
	/* A 32 bit value should begin at an even 4-byte address */
	while ((i % 4) != 0)
	{
		if (i >= MAX_ARG_SIZE)
		{
			return 255;
    270e:	26ff      	movs	r6, #255	; 0xff
    2710:	e084      	b.n	281c <vTracePrintF_Helper+0x274>
    2712:	26ff      	movs	r6, #255	; 0xff
    2714:	e082      	b.n	281c <vTracePrintF_Helper+0x274>
		i++;
	}

	if (i + 4 > MAX_ARG_SIZE)
	{
		return 255;
    2716:	26ff      	movs	r6, #255	; 0xff
    2718:	e080      	b.n	281c <vTracePrintF_Helper+0x274>
												i,
												(uint32_t)va_arg(vl, double));
								break;
#endif
					case 'l':
								formatStrIndex++;
    271a:	3101      	adds	r1, #1
    271c:	b28c      	uxth	r4, r1
								switch (formatStr[formatStrIndex])
    271e:	5d2b      	ldrb	r3, [r5, r4]
    2720:	2b66      	cmp	r3, #102	; 0x66
    2722:	d17b      	bne.n	281c <vTracePrintF_Helper+0x274>
								{
#if (INCLUDE_FLOAT_SUPPORT)
									case 'f':	i = writeDouble(buffer,
    2724:	465b      	mov	r3, fp
    2726:	3307      	adds	r3, #7
    2728:	2207      	movs	r2, #7
    272a:	4393      	bics	r3, r2
    272c:	2008      	movs	r0, #8
    272e:	18c0      	adds	r0, r0, r3
    2730:	4683      	mov	fp, r0
    2732:	6819      	ldr	r1, [r3, #0]
    2734:	685a      	ldr	r2, [r3, #4]
    2736:	9102      	str	r1, [sp, #8]
    2738:	9203      	str	r2, [sp, #12]

	TRACE_ASSERT(buffer != NULL, "writeDouble: buffer == NULL", 0);

	/* The double is written as two 32 bit values, and should begin at an even
	4-byte address (to avoid having to align with 8 byte) */
	while (i % 4 != 0)
    273a:	07b2      	lsls	r2, r6, #30
    273c:	d00d      	beq.n	275a <vTracePrintF_Helper+0x1b2>
	{
		if (i >= MAX_ARG_SIZE)
    273e:	2e23      	cmp	r6, #35	; 0x23
    2740:	d81b      	bhi.n	277a <vTracePrintF_Helper+0x1d2>
		{
			return 255;
		}

		((uint8_t*)buffer)[i] = 0;
    2742:	2100      	movs	r1, #0

	TRACE_ASSERT(buffer != NULL, "writeDouble: buffer == NULL", 0);

	/* The double is written as two 32 bit values, and should begin at an even
	4-byte address (to avoid having to align with 8 byte) */
	while (i % 4 != 0)
    2744:	2203      	movs	r2, #3
    2746:	e001      	b.n	274c <vTracePrintF_Helper+0x1a4>
	{
		if (i >= MAX_ARG_SIZE)
    2748:	2e24      	cmp	r6, #36	; 0x24
    274a:	d018      	beq.n	277e <vTracePrintF_Helper+0x1d6>
		{
			return 255;
		}

		((uint8_t*)buffer)[i] = 0;
    274c:	a805      	add	r0, sp, #20
    274e:	1983      	adds	r3, r0, r6
    2750:	7019      	strb	r1, [r3, #0]
		i++;
    2752:	3601      	adds	r6, #1
    2754:	b2f6      	uxtb	r6, r6

	TRACE_ASSERT(buffer != NULL, "writeDouble: buffer == NULL", 0);

	/* The double is written as two 32 bit values, and should begin at an even
	4-byte address (to avoid having to align with 8 byte) */
	while (i % 4 != 0)
    2756:	4232      	tst	r2, r6
    2758:	d1f6      	bne.n	2748 <vTracePrintF_Helper+0x1a0>

		((uint8_t*)buffer)[i] = 0;
		i++;
	}

	if (i + 8 > MAX_ARG_SIZE)
    275a:	1c33      	adds	r3, r6, #0
    275c:	3308      	adds	r3, #8
    275e:	2b24      	cmp	r3, #36	; 0x24
    2760:	dc0f      	bgt.n	2782 <vTracePrintF_Helper+0x1da>
	{
		return 255;
	}

	dest = &(((uint32_t *)buffer)[i/4]);
    2762:	23ff      	movs	r3, #255	; 0xff
    2764:	009b      	lsls	r3, r3, #2
    2766:	4033      	ands	r3, r6
    2768:	a905      	add	r1, sp, #20
    276a:	18cb      	adds	r3, r1, r3

	dest[0] = src[0];
    276c:	9a02      	ldr	r2, [sp, #8]
    276e:	601a      	str	r2, [r3, #0]
	dest[1] = src[1];
    2770:	9803      	ldr	r0, [sp, #12]
    2772:	6058      	str	r0, [r3, #4]

	return i + 8;
    2774:	3608      	adds	r6, #8
    2776:	b2f6      	uxtb	r6, r6
    2778:	e050      	b.n	281c <vTracePrintF_Helper+0x274>
	4-byte address (to avoid having to align with 8 byte) */
	while (i % 4 != 0)
	{
		if (i >= MAX_ARG_SIZE)
		{
			return 255;
    277a:	26ff      	movs	r6, #255	; 0xff
    277c:	e04e      	b.n	281c <vTracePrintF_Helper+0x274>
    277e:	26ff      	movs	r6, #255	; 0xff
    2780:	e04c      	b.n	281c <vTracePrintF_Helper+0x274>
		i++;
	}

	if (i + 8 > MAX_ARG_SIZE)
	{
		return 255;
    2782:	26ff      	movs	r6, #255	; 0xff
    2784:	e04a      	b.n	281c <vTracePrintF_Helper+0x274>
#endif

								}
								break;
					case 'h':
								formatStrIndex++;
    2786:	3101      	adds	r1, #1
    2788:	b28c      	uxth	r4, r1
								switch (formatStr[formatStrIndex])
    278a:	5d2b      	ldrb	r3, [r5, r4]
    278c:	2b64      	cmp	r3, #100	; 0x64
    278e:	d002      	beq.n	2796 <vTracePrintF_Helper+0x1ee>
    2790:	2b75      	cmp	r3, #117	; 0x75
    2792:	d00c      	beq.n	27ae <vTracePrintF_Helper+0x206>
    2794:	e042      	b.n	281c <vTracePrintF_Helper+0x274>
								{
									case 'd':	i = writeInt16(	buffer,
																i,
																(uint16_t)va_arg(vl, uint32_t));
    2796:	2104      	movs	r1, #4
    2798:	4688      	mov	r8, r1
    279a:	44d8      	add	r8, fp
								break;
					case 'h':
								formatStrIndex++;
								switch (formatStr[formatStrIndex])
								{
									case 'd':	i = writeInt16(	buffer,
    279c:	465b      	mov	r3, fp
    279e:	881a      	ldrh	r2, [r3, #0]
    27a0:	a805      	add	r0, sp, #20
    27a2:	1c31      	adds	r1, r6, #0
    27a4:	4b2e      	ldr	r3, [pc, #184]	; (2860 <vTracePrintF_Helper+0x2b8>)
    27a6:	4798      	blx	r3
    27a8:	1c06      	adds	r6, r0, #0
																i,
																(uint16_t)va_arg(vl, uint32_t));
    27aa:	46c3      	mov	fp, r8
    27ac:	e036      	b.n	281c <vTracePrintF_Helper+0x274>
												break;
									case 'u':	i = writeInt16(	buffer,
																i,
																(uint16_t)va_arg(vl, uint32_t));
    27ae:	2004      	movs	r0, #4
    27b0:	4680      	mov	r8, r0
    27b2:	44d8      	add	r8, fp
								{
									case 'd':	i = writeInt16(	buffer,
																i,
																(uint16_t)va_arg(vl, uint32_t));
												break;
									case 'u':	i = writeInt16(	buffer,
    27b4:	4659      	mov	r1, fp
    27b6:	880a      	ldrh	r2, [r1, #0]
    27b8:	a805      	add	r0, sp, #20
    27ba:	1c31      	adds	r1, r6, #0
    27bc:	4b28      	ldr	r3, [pc, #160]	; (2860 <vTracePrintF_Helper+0x2b8>)
    27be:	4798      	blx	r3
    27c0:	1c06      	adds	r6, r0, #0
																i,
																(uint16_t)va_arg(vl, uint32_t));
    27c2:	46c3      	mov	fp, r8
    27c4:	e02a      	b.n	281c <vTracePrintF_Helper+0x274>
												break;
								}
								break;
					case 'b':
								formatStrIndex++;
    27c6:	3101      	adds	r1, #1
    27c8:	b28c      	uxth	r4, r1
								switch (formatStr[formatStrIndex])
    27ca:	5d2b      	ldrb	r3, [r5, r4]
    27cc:	2b64      	cmp	r3, #100	; 0x64
    27ce:	d002      	beq.n	27d6 <vTracePrintF_Helper+0x22e>
    27d0:	2b75      	cmp	r3, #117	; 0x75
    27d2:	d012      	beq.n	27fa <vTracePrintF_Helper+0x252>
    27d4:	e022      	b.n	281c <vTracePrintF_Helper+0x274>
								{
									case 'd':	i = writeInt8(	buffer,
																i,
																(uint8_t)va_arg(vl, uint32_t));
    27d6:	465b      	mov	r3, fp
    27d8:	3304      	adds	r3, #4
    27da:	4658      	mov	r0, fp
    27dc:	6801      	ldr	r1, [r0, #0]
/*** Locally used in vTracePrintF ***/
static uint8_t writeInt8(void * buffer, uint8_t i, uint8_t value)
{
	TRACE_ASSERT(buffer != NULL, "writeInt8: buffer == NULL", 0);

	if (i >= MAX_ARG_SIZE)
    27de:	2e23      	cmp	r6, #35	; 0x23
    27e0:	d807      	bhi.n	27f2 <vTracePrintF_Helper+0x24a>
								break;
					case 'b':
								formatStrIndex++;
								switch (formatStr[formatStrIndex])
								{
									case 'd':	i = writeInt8(	buffer,
    27e2:	aa05      	add	r2, sp, #20
    27e4:	5591      	strb	r1, [r2, r6]
		return 255;
	}

	((uint8_t*)buffer)[i] = value;

	if (i + 1 > MAX_ARG_SIZE)
    27e6:	1c72      	adds	r2, r6, #1
	{
		return 255;
    27e8:	26ff      	movs	r6, #255	; 0xff
		return 255;
	}

	((uint8_t*)buffer)[i] = value;

	if (i + 1 > MAX_ARG_SIZE)
    27ea:	2a24      	cmp	r2, #36	; 0x24
    27ec:	dc03      	bgt.n	27f6 <vTracePrintF_Helper+0x24e>
	{
		return 255;
	}

	return i + 1;
    27ee:	b2d6      	uxtb	r6, r2
    27f0:	e001      	b.n	27f6 <vTracePrintF_Helper+0x24e>
{
	TRACE_ASSERT(buffer != NULL, "writeInt8: buffer == NULL", 0);

	if (i >= MAX_ARG_SIZE)
	{
		return 255;
    27f2:	26ff      	movs	r6, #255	; 0xff
    27f4:	e7ff      	b.n	27f6 <vTracePrintF_Helper+0x24e>
								formatStrIndex++;
								switch (formatStr[formatStrIndex])
								{
									case 'd':	i = writeInt8(	buffer,
																i,
																(uint8_t)va_arg(vl, uint32_t));
    27f6:	469b      	mov	fp, r3
    27f8:	e010      	b.n	281c <vTracePrintF_Helper+0x274>
												break;

									case 'u':	i = writeInt8(	buffer,
																i,
																(uint8_t)va_arg(vl, uint32_t));
    27fa:	465b      	mov	r3, fp
    27fc:	3304      	adds	r3, #4
    27fe:	465a      	mov	r2, fp
    2800:	6811      	ldr	r1, [r2, #0]
/*** Locally used in vTracePrintF ***/
static uint8_t writeInt8(void * buffer, uint8_t i, uint8_t value)
{
	TRACE_ASSERT(buffer != NULL, "writeInt8: buffer == NULL", 0);

	if (i >= MAX_ARG_SIZE)
    2802:	2e23      	cmp	r6, #35	; 0x23
    2804:	d807      	bhi.n	2816 <vTracePrintF_Helper+0x26e>
									case 'd':	i = writeInt8(	buffer,
																i,
																(uint8_t)va_arg(vl, uint32_t));
												break;

									case 'u':	i = writeInt8(	buffer,
    2806:	aa05      	add	r2, sp, #20
    2808:	5591      	strb	r1, [r2, r6]
		return 255;
	}

	((uint8_t*)buffer)[i] = value;

	if (i + 1 > MAX_ARG_SIZE)
    280a:	1c72      	adds	r2, r6, #1
	{
		return 255;
    280c:	26ff      	movs	r6, #255	; 0xff
		return 255;
	}

	((uint8_t*)buffer)[i] = value;

	if (i + 1 > MAX_ARG_SIZE)
    280e:	2a24      	cmp	r2, #36	; 0x24
    2810:	dc03      	bgt.n	281a <vTracePrintF_Helper+0x272>
	{
		return 255;
	}

	return i + 1;
    2812:	b2d6      	uxtb	r6, r2
    2814:	e001      	b.n	281a <vTracePrintF_Helper+0x272>
{
	TRACE_ASSERT(buffer != NULL, "writeInt8: buffer == NULL", 0);

	if (i >= MAX_ARG_SIZE)
	{
		return 255;
    2816:	26ff      	movs	r6, #255	; 0xff
    2818:	e7ff      	b.n	281a <vTracePrintF_Helper+0x272>
																(uint8_t)va_arg(vl, uint32_t));
												break;

									case 'u':	i = writeInt8(	buffer,
																i,
																(uint8_t)va_arg(vl, uint32_t));
    281a:	469b      	mov	fp, r3
				}
			}
			else
				break;
		}
		formatStrIndex++;
    281c:	3401      	adds	r4, #1
    281e:	b2a4      	uxth	r4, r4
		if (i == 255)
    2820:	2eff      	cmp	r6, #255	; 0xff
    2822:	d123      	bne.n	286c <vTracePrintF_Helper+0x2c4>
		{
			vTraceError("vTracePrintF - Too large arguments, max 32 byte allowed!");
    2824:	4810      	ldr	r0, [pc, #64]	; (2868 <vTracePrintF_Helper+0x2c0>)
    2826:	4b03      	ldr	r3, [pc, #12]	; (2834 <vTracePrintF_Helper+0x28c>)
    2828:	4798      	blx	r3
			return 0;
    282a:	2600      	movs	r6, #0
    282c:	e028      	b.n	2880 <vTracePrintF_Helper+0x2d8>
    282e:	46c0      	nop			; (mov r8, r8)
    2830:	000069f8 	.word	0x000069f8
    2834:	0000102d 	.word	0x0000102d
    2838:	00002ab5 	.word	0x00002ab5
    283c:	20000538 	.word	0x20000538
    2840:	200004ac 	.word	0x200004ac
    2844:	2000057a 	.word	0x2000057a
    2848:	20000579 	.word	0x20000579
    284c:	20000578 	.word	0x20000578
    2850:	00006a28 	.word	0x00006a28
    2854:	000066e0 	.word	0x000066e0
    2858:	00002429 	.word	0x00002429
    285c:	00002585 	.word	0x00002585
    2860:	00002479 	.word	0x00002479
    2864:	00005225 	.word	0x00005225
    2868:	00006a5c 	.word	0x00006a5c
{
	uint16_t formatStrIndex = 0;
	uint8_t argCounter = 0;
	uint8_t i = byteOffset;

	while (formatStr[formatStrIndex] != '\0')
    286c:	5d2b      	ldrb	r3, [r5, r4]
    286e:	2b00      	cmp	r3, #0
    2870:	d000      	beq.n	2874 <vTracePrintF_Helper+0x2cc>
    2872:	e6ce      	b.n	2612 <vTracePrintF_Helper+0x6a>
		{
			vTraceError("vTracePrintF - Too large arguments, max 32 byte allowed!");
			return 0;
		}
	}
	return (i+3)/4;
    2874:	3603      	adds	r6, #3
    2876:	17f3      	asrs	r3, r6, #31
    2878:	0f9b      	lsrs	r3, r3, #30
    287a:	199e      	adds	r6, r3, r6
    287c:	10b6      	asrs	r6, r6, #2
    287e:	b2f6      	uxtb	r6, r6
		ue1->type = EVENT_BEING_WRITTEN;	 /* Update this as the last step */

		noOfSlots = prvTraceUserEventFormat(formatStr, vl, (uint8_t*)tempDataBuffer, 4);

		/* Store the format string, with a reference to the channel symbol */
		ue1->payload = prvTraceOpenSymbol(formatStr, eventLabel);
    2880:	1c28      	adds	r0, r5, #0
    2882:	4651      	mov	r1, sl
    2884:	4b2d      	ldr	r3, [pc, #180]	; (293c <vTracePrintF_Helper+0x394>)
    2886:	4798      	blx	r3
    2888:	ac05      	add	r4, sp, #20
    288a:	8060      	strh	r0, [r4, #2]

		ue1->dts = (uint8_t)prvTraceGetDTS(0xFF);
    288c:	20ff      	movs	r0, #255	; 0xff
    288e:	4b2c      	ldr	r3, [pc, #176]	; (2940 <vTracePrintF_Helper+0x398>)
    2890:	4798      	blx	r3
    2892:	7060      	strb	r0, [r4, #1]

		 /* prvTraceGetDTS might stop the recorder in some cases... */
		if (RecorderDataPtr->recorderActive)
    2894:	4b2b      	ldr	r3, [pc, #172]	; (2944 <vTracePrintF_Helper+0x39c>)
    2896:	681b      	ldr	r3, [r3, #0]
    2898:	6b18      	ldr	r0, [r3, #48]	; 0x30
    289a:	2800      	cmp	r0, #0
    289c:	d03f      	beq.n	291e <vTracePrintF_Helper+0x376>

		ue1 = (UserEvent*)(&tempDataBuffer[0]);

		ue1->type = EVENT_BEING_WRITTEN;	 /* Update this as the last step */

		noOfSlots = prvTraceUserEventFormat(formatStr, vl, (uint8_t*)tempDataBuffer, 4);
    289e:	1c34      	adds	r4, r6, #0
		if (RecorderDataPtr->recorderActive)
		{

			/* If the data does not fit in the remaining main buffer, wrap around to
			0 if allowed, otherwise stop the recorder and quit). */
			if (RecorderDataPtr->nextFreeIndex + noOfSlots > RecorderDataPtr->maxEvents)
    28a0:	69d9      	ldr	r1, [r3, #28]
    28a2:	699a      	ldr	r2, [r3, #24]
    28a4:	1870      	adds	r0, r6, r1
    28a6:	4290      	cmp	r0, r2
    28a8:	d912      	bls.n	28d0 <vTracePrintF_Helper+0x328>
			{
				#if (TRACE_RECORDER_STORE_MODE == TRACE_STORE_MODE_RING_BUFFER)
				(void)memset(& RecorderDataPtr->eventData[RecorderDataPtr->nextFreeIndex * 4],
						0,
						(RecorderDataPtr->maxEvents - RecorderDataPtr->nextFreeIndex)*4);
    28aa:	1a52      	subs	r2, r2, r1
    28ac:	0092      	lsls	r2, r2, #2
			/* If the data does not fit in the remaining main buffer, wrap around to
			0 if allowed, otherwise stop the recorder and quit). */
			if (RecorderDataPtr->nextFreeIndex + noOfSlots > RecorderDataPtr->maxEvents)
			{
				#if (TRACE_RECORDER_STORE_MODE == TRACE_STORE_MODE_RING_BUFFER)
				(void)memset(& RecorderDataPtr->eventData[RecorderDataPtr->nextFreeIndex * 4],
    28ae:	0088      	lsls	r0, r1, #2
    28b0:	2183      	movs	r1, #131	; 0x83
    28b2:	0109      	lsls	r1, r1, #4
    28b4:	1840      	adds	r0, r0, r1
    28b6:	1818      	adds	r0, r3, r0
    28b8:	2100      	movs	r1, #0
    28ba:	4b23      	ldr	r3, [pc, #140]	; (2948 <vTracePrintF_Helper+0x3a0>)
    28bc:	4798      	blx	r3
						0,
						(RecorderDataPtr->maxEvents - RecorderDataPtr->nextFreeIndex)*4);
				RecorderDataPtr->nextFreeIndex = 0;
    28be:	4b21      	ldr	r3, [pc, #132]	; (2944 <vTracePrintF_Helper+0x39c>)
    28c0:	681b      	ldr	r3, [r3, #0]
    28c2:	2200      	movs	r2, #0
    28c4:	61da      	str	r2, [r3, #28]
				RecorderDataPtr->bufferIsFull = 1;
    28c6:	2201      	movs	r2, #1
    28c8:	621a      	str	r2, [r3, #32]
				vTraceStop();
				#endif
			}

			/* Check if recorder has been stopped (i.e., vTraceStop above) */
			if (RecorderDataPtr->recorderActive)
    28ca:	6b1b      	ldr	r3, [r3, #48]	; 0x30
    28cc:	2b00      	cmp	r3, #0
    28ce:	d023      	beq.n	2918 <vTracePrintF_Helper+0x370>
				/* Check that the buffer to be overwritten does not contain any user
				events that would be partially overwritten. If so, they must be "killed"
				by replacing the user event and following data with NULL events (i.e.,
				using a memset to zero).*/
				#if (TRACE_RECORDER_STORE_MODE == TRACE_STORE_MODE_RING_BUFFER)
				prvCheckDataToBeOverwrittenForMultiEntryEvents((uint8_t)noOfSlots);
    28d0:	1c30      	adds	r0, r6, #0
    28d2:	4b1e      	ldr	r3, [pc, #120]	; (294c <vTracePrintF_Helper+0x3a4>)
    28d4:	4798      	blx	r3
				#endif
				/* Copy the local buffer to the main buffer */
				(void)memcpy(& RecorderDataPtr->eventData[RecorderDataPtr->nextFreeIndex * 4],
    28d6:	4d1b      	ldr	r5, [pc, #108]	; (2944 <vTracePrintF_Helper+0x39c>)
    28d8:	682b      	ldr	r3, [r5, #0]
    28da:	69da      	ldr	r2, [r3, #28]
    28dc:	0090      	lsls	r0, r2, #2
    28de:	2183      	movs	r1, #131	; 0x83
    28e0:	0109      	lsls	r1, r1, #4
    28e2:	1840      	adds	r0, r0, r1
    28e4:	1818      	adds	r0, r3, r0
						tempDataBuffer,
						noOfSlots * 4);
    28e6:	00a2      	lsls	r2, r4, #2
				using a memset to zero).*/
				#if (TRACE_RECORDER_STORE_MODE == TRACE_STORE_MODE_RING_BUFFER)
				prvCheckDataToBeOverwrittenForMultiEntryEvents((uint8_t)noOfSlots);
				#endif
				/* Copy the local buffer to the main buffer */
				(void)memcpy(& RecorderDataPtr->eventData[RecorderDataPtr->nextFreeIndex * 4],
    28e8:	a905      	add	r1, sp, #20
    28ea:	4b19      	ldr	r3, [pc, #100]	; (2950 <vTracePrintF_Helper+0x3a8>)
    28ec:	4798      	blx	r3
						noOfSlots * 4);

				/* Update the event type, i.e., number of data entries following the
				main USER_EVENT entry (Note: important that this is after the memcpy,
				but within the critical section!)*/
				RecorderDataPtr->eventData[RecorderDataPtr->nextFreeIndex * 4] =
    28ee:	682b      	ldr	r3, [r5, #0]
    28f0:	69da      	ldr	r2, [r3, #28]
    28f2:	0091      	lsls	r1, r2, #2
    28f4:	1859      	adds	r1, r3, r1
    28f6:	2083      	movs	r0, #131	; 0x83
    28f8:	0100      	lsls	r0, r0, #4
    28fa:	1809      	adds	r1, r1, r0
				 (uint8_t) ( USER_EVENT + noOfSlots - 1 );
    28fc:	3e69      	subs	r6, #105	; 0x69
						noOfSlots * 4);

				/* Update the event type, i.e., number of data entries following the
				main USER_EVENT entry (Note: important that this is after the memcpy,
				but within the critical section!)*/
				RecorderDataPtr->eventData[RecorderDataPtr->nextFreeIndex * 4] =
    28fe:	700e      	strb	r6, [r1, #0]
				 (uint8_t) ( USER_EVENT + noOfSlots - 1 );

				/* Update the main buffer event index (already checked that it fits in
				the buffer, so no need to check for wrapping)*/

				RecorderDataPtr->nextFreeIndex += noOfSlots;
    2900:	18a2      	adds	r2, r4, r2
    2902:	61da      	str	r2, [r3, #28]
				RecorderDataPtr->numEvents += noOfSlots;
    2904:	6959      	ldr	r1, [r3, #20]
    2906:	190c      	adds	r4, r1, r4
    2908:	615c      	str	r4, [r3, #20]

				if (RecorderDataPtr->nextFreeIndex >= EVENT_BUFFER_SIZE)
    290a:	4912      	ldr	r1, [pc, #72]	; (2954 <vTracePrintF_Helper+0x3ac>)
    290c:	428a      	cmp	r2, r1
    290e:	d903      	bls.n	2918 <vTracePrintF_Helper+0x370>
				{
					#if (TRACE_RECORDER_STORE_MODE == TRACE_STORE_MODE_RING_BUFFER)
					/* We have reached the end, but this is a ring buffer. Start from the beginning again. */
					RecorderDataPtr->bufferIsFull = 1;
    2910:	2201      	movs	r2, #1
    2912:	621a      	str	r2, [r3, #32]
					RecorderDataPtr->nextFreeIndex = 0;
    2914:	2200      	movs	r2, #0
    2916:	61da      	str	r2, [r3, #28]
				}
			}

			#if (TRACE_RECORDER_STORE_MODE == TRACE_STORE_MODE_RING_BUFFER)
			/* Make sure the next entry is cleared correctly */
			prvCheckDataToBeOverwrittenForMultiEntryEvents(1);
    2918:	2001      	movs	r0, #1
    291a:	4b0c      	ldr	r3, [pc, #48]	; (294c <vTracePrintF_Helper+0x3a4>)
    291c:	4798      	blx	r3
			#endif

		}
	}
	trcCRITICAL_SECTION_END();
    291e:	4b0e      	ldr	r3, [pc, #56]	; (2958 <vTracePrintF_Helper+0x3b0>)
    2920:	681a      	ldr	r2, [r3, #0]
    2922:	3a01      	subs	r2, #1
    2924:	601a      	str	r2, [r3, #0]
    2926:	1c38      	adds	r0, r7, #0
    2928:	4b0c      	ldr	r3, [pc, #48]	; (295c <vTracePrintF_Helper+0x3b4>)
    292a:	4798      	blx	r3
		channel = xTraceRegisterChannelFormat(eventLabel, formatLabel);

		prvTraceUserEventHelper1(channel, eventLabel, formatLabel, vl);
	}
#endif
}
    292c:	b00f      	add	sp, #60	; 0x3c
    292e:	bc3c      	pop	{r2, r3, r4, r5}
    2930:	4690      	mov	r8, r2
    2932:	4699      	mov	r9, r3
    2934:	46a2      	mov	sl, r4
    2936:	46ab      	mov	fp, r5
    2938:	bdf0      	pop	{r4, r5, r6, r7, pc}
    293a:	46c0      	nop			; (mov r8, r8)
    293c:	00001945 	.word	0x00001945
    2940:	0000161d 	.word	0x0000161d
    2944:	200004ac 	.word	0x200004ac
    2948:	00005409 	.word	0x00005409
    294c:	00001521 	.word	0x00001521
    2950:	00005385 	.word	0x00005385
    2954:	000003e7 	.word	0x000003e7
    2958:	20000538 	.word	0x20000538
    295c:	00002ac1 	.word	0x00002ac1

00002960 <vTracePrintF>:
 * Before using a %lf argument on a 16-bit MCU, please verify that
 * "sizeof(double)" actually gives 8 as expected. If not, use %f instead.
 ******************************************************************************/

void vTracePrintF(traceLabel eventLabel, const char* formatStr, ...)
{
    2960:	b40e      	push	{r1, r2, r3}
    2962:	b500      	push	{lr}
    2964:	b082      	sub	sp, #8
    2966:	aa03      	add	r2, sp, #12
    2968:	ca08      	ldmia	r2!, {r3}
#if (TRACE_SCHEDULING_ONLY == 0)
	va_list vl;

	va_start(vl, formatStr);
    296a:	9201      	str	r2, [sp, #4]
	vTracePrintF_Helper(eventLabel, formatStr, vl);
    296c:	1c19      	adds	r1, r3, #0
    296e:	4b03      	ldr	r3, [pc, #12]	; (297c <vTracePrintF+0x1c>)
    2970:	4798      	blx	r3
	va_end(vl);
#endif /* TRACE_SCHEDULING_ONLY */
}
    2972:	b002      	add	sp, #8
    2974:	bc08      	pop	{r3}
    2976:	b003      	add	sp, #12
    2978:	4718      	bx	r3
    297a:	46c0      	nop			; (mov r8, r8)
    297c:	000025a9 	.word	0x000025a9

00002980 <vListInitialise>:
void vListInitialise( List_t * const pxList )
{
	/* The list structure contains a list item which is used to mark the
	end of the list.  To initialise the list the list end is inserted
	as the only list entry. */
	pxList->pxIndex = ( ListItem_t * ) &( pxList->xListEnd );			/*lint !e826 !e740 The mini list structure is used as the list end to save RAM.  This is checked and valid. */
    2980:	1c03      	adds	r3, r0, #0
    2982:	3308      	adds	r3, #8
    2984:	6043      	str	r3, [r0, #4]

	/* The list end value is the highest possible value in the list to
	ensure it remains at the end of the list. */
	pxList->xListEnd.xItemValue = portMAX_DELAY;
    2986:	2201      	movs	r2, #1
    2988:	4252      	negs	r2, r2
    298a:	6082      	str	r2, [r0, #8]

	/* The list end next and previous pointers point to itself so we know
	when the list is empty. */
	pxList->xListEnd.pxNext = ( ListItem_t * ) &( pxList->xListEnd );	/*lint !e826 !e740 The mini list structure is used as the list end to save RAM.  This is checked and valid. */
    298c:	60c3      	str	r3, [r0, #12]
	pxList->xListEnd.pxPrevious = ( ListItem_t * ) &( pxList->xListEnd );/*lint !e826 !e740 The mini list structure is used as the list end to save RAM.  This is checked and valid. */
    298e:	6103      	str	r3, [r0, #16]

	pxList->uxNumberOfItems = ( UBaseType_t ) 0U;
    2990:	2300      	movs	r3, #0
    2992:	6003      	str	r3, [r0, #0]
}
    2994:	4770      	bx	lr
    2996:	46c0      	nop			; (mov r8, r8)

00002998 <vListInitialiseItem>:
/*-----------------------------------------------------------*/

void vListInitialiseItem( ListItem_t * const pxItem )
{
	/* Make sure the list item is not recorded as being on a list. */
	pxItem->pvContainer = NULL;
    2998:	2300      	movs	r3, #0
    299a:	6103      	str	r3, [r0, #16]
}
    299c:	4770      	bx	lr
    299e:	46c0      	nop			; (mov r8, r8)

000029a0 <vListInsertEnd>:
/*-----------------------------------------------------------*/

void vListInsertEnd( List_t * const pxList, ListItem_t * const pxNewListItem )
{
ListItem_t * const pxIndex = pxList->pxIndex;
    29a0:	6843      	ldr	r3, [r0, #4]

	/* Insert a new list item into pxList, but rather than sort the list,
	makes the new list item the last item to be removed by a call to
	listGET_OWNER_OF_NEXT_ENTRY(). */
	pxNewListItem->pxNext = pxIndex;
    29a2:	604b      	str	r3, [r1, #4]
	pxNewListItem->pxPrevious = pxIndex->pxPrevious;
    29a4:	689a      	ldr	r2, [r3, #8]
    29a6:	608a      	str	r2, [r1, #8]
	pxIndex->pxPrevious->pxNext = pxNewListItem;
    29a8:	689a      	ldr	r2, [r3, #8]
    29aa:	6051      	str	r1, [r2, #4]
	pxIndex->pxPrevious = pxNewListItem;
    29ac:	6099      	str	r1, [r3, #8]

	/* Remember which list the item is in. */
	pxNewListItem->pvContainer = ( void * ) pxList;
    29ae:	6108      	str	r0, [r1, #16]

	( pxList->uxNumberOfItems )++;
    29b0:	6803      	ldr	r3, [r0, #0]
    29b2:	3301      	adds	r3, #1
    29b4:	6003      	str	r3, [r0, #0]
}
    29b6:	4770      	bx	lr

000029b8 <vListInsert>:
/*-----------------------------------------------------------*/

void vListInsert( List_t * const pxList, ListItem_t * const pxNewListItem )
{
    29b8:	b530      	push	{r4, r5, lr}
ListItem_t *pxIterator;
const TickType_t xValueOfInsertion = pxNewListItem->xItemValue;
    29ba:	680c      	ldr	r4, [r1, #0]
			   before vTaskStartScheduler() has been called?).
		See http://www.freertos.org/FAQHelp.html for more tips, and ensure
		configASSERT() is defined!  http://www.freertos.org/a00110.html#configASSERT
		**********************************************************************/

		for( pxIterator = ( ListItem_t * ) &( pxList->xListEnd ); pxIterator->pxNext->xItemValue <= xValueOfInsertion; pxIterator = pxIterator->pxNext ) /*lint !e826 !e740 The mini list structure is used as the list end to save RAM.  This is checked and valid. */
    29bc:	1c02      	adds	r2, r0, #0
    29be:	3208      	adds	r2, #8
	are stored in ready lists (all of which have the same xItemValue value)
	get an equal share of the CPU.  However, if the xItemValue is the same as
	the back marker the iteration loop below will not end.  This means we need
	to guard against this by checking the value first and modifying the
	algorithm slightly if necessary. */
	if( xValueOfInsertion == portMAX_DELAY )
    29c0:	1c63      	adds	r3, r4, #1
    29c2:	d101      	bne.n	29c8 <vListInsert+0x10>
	{
		pxIterator = pxList->xListEnd.pxPrevious;
    29c4:	6902      	ldr	r2, [r0, #16]
    29c6:	e005      	b.n	29d4 <vListInsert+0x1c>
			   before vTaskStartScheduler() has been called?).
		See http://www.freertos.org/FAQHelp.html for more tips, and ensure
		configASSERT() is defined!  http://www.freertos.org/a00110.html#configASSERT
		**********************************************************************/

		for( pxIterator = ( ListItem_t * ) &( pxList->xListEnd ); pxIterator->pxNext->xItemValue <= xValueOfInsertion; pxIterator = pxIterator->pxNext ) /*lint !e826 !e740 The mini list structure is used as the list end to save RAM.  This is checked and valid. */
    29c8:	6853      	ldr	r3, [r2, #4]
    29ca:	681d      	ldr	r5, [r3, #0]
    29cc:	42ac      	cmp	r4, r5
    29ce:	d301      	bcc.n	29d4 <vListInsert+0x1c>
    29d0:	1c1a      	adds	r2, r3, #0
    29d2:	e7f9      	b.n	29c8 <vListInsert+0x10>
			/* There is nothing to do here, we are just iterating to the
			wanted insertion position. */
		}
	}

	pxNewListItem->pxNext = pxIterator->pxNext;
    29d4:	6853      	ldr	r3, [r2, #4]
    29d6:	604b      	str	r3, [r1, #4]
	pxNewListItem->pxNext->pxPrevious = pxNewListItem;
    29d8:	6099      	str	r1, [r3, #8]
	pxNewListItem->pxPrevious = pxIterator;
    29da:	608a      	str	r2, [r1, #8]
	pxIterator->pxNext = pxNewListItem;
    29dc:	6051      	str	r1, [r2, #4]

	/* Remember which list the item is in.  This allows fast removal of the
	item later. */
	pxNewListItem->pvContainer = ( void * ) pxList;
    29de:	6108      	str	r0, [r1, #16]

	( pxList->uxNumberOfItems )++;
    29e0:	6803      	ldr	r3, [r0, #0]
    29e2:	3301      	adds	r3, #1
    29e4:	6003      	str	r3, [r0, #0]
}
    29e6:	bd30      	pop	{r4, r5, pc}

000029e8 <uxListRemove>:

UBaseType_t uxListRemove( ListItem_t * const pxItemToRemove )
{
/* The list item knows which list it is in.  Obtain the list from the list
item. */
List_t * const pxList = ( List_t * ) pxItemToRemove->pvContainer;
    29e8:	6903      	ldr	r3, [r0, #16]

	pxItemToRemove->pxNext->pxPrevious = pxItemToRemove->pxPrevious;
    29ea:	6842      	ldr	r2, [r0, #4]
    29ec:	6881      	ldr	r1, [r0, #8]
    29ee:	6091      	str	r1, [r2, #8]
	pxItemToRemove->pxPrevious->pxNext = pxItemToRemove->pxNext;
    29f0:	6882      	ldr	r2, [r0, #8]
    29f2:	6841      	ldr	r1, [r0, #4]
    29f4:	6051      	str	r1, [r2, #4]

	/* Make sure the index is left pointing to a valid item. */
	if( pxList->pxIndex == pxItemToRemove )
    29f6:	685a      	ldr	r2, [r3, #4]
    29f8:	4282      	cmp	r2, r0
    29fa:	d101      	bne.n	2a00 <uxListRemove+0x18>
	{
		pxList->pxIndex = pxItemToRemove->pxPrevious;
    29fc:	6892      	ldr	r2, [r2, #8]
    29fe:	605a      	str	r2, [r3, #4]
	else
	{
		mtCOVERAGE_TEST_MARKER();
	}

	pxItemToRemove->pvContainer = NULL;
    2a00:	2200      	movs	r2, #0
    2a02:	6102      	str	r2, [r0, #16]
	( pxList->uxNumberOfItems )--;
    2a04:	6818      	ldr	r0, [r3, #0]
    2a06:	3801      	subs	r0, #1
    2a08:	6018      	str	r0, [r3, #0]

	return pxList->uxNumberOfItems;
}
    2a0a:	4770      	bx	lr

00002a0c <prvTaskExitError>:
	its caller as there is nothing to return to.  If a task wants to exit it
	should instead call vTaskDelete( NULL ).

	Artificially force an assert() to be triggered if configASSERT() is
	defined, then stop here so application writers can catch the error. */
	configASSERT( uxCriticalNesting == ~0UL );
    2a0c:	4b03      	ldr	r3, [pc, #12]	; (2a1c <prvTaskExitError+0x10>)
    2a0e:	681b      	ldr	r3, [r3, #0]
    2a10:	3301      	adds	r3, #1
    2a12:	d001      	beq.n	2a18 <prvTaskExitError+0xc>
    2a14:	b672      	cpsid	i
    2a16:	e7fe      	b.n	2a16 <prvTaskExitError+0xa>
	portDISABLE_INTERRUPTS();
    2a18:	b672      	cpsid	i
    2a1a:	e7fe      	b.n	2a1a <prvTaskExitError+0xe>
    2a1c:	20000010 	.word	0x20000010

00002a20 <vPortStartFirstTask>:
void vPortStartFirstTask( void )
{
	/* The MSP stack is not reset as, unlike on M3/4 parts, there is no vector
	table offset register that can be used to locate the initial stack value.
	Not all M0 parts have the application vector table at address 0. */
	__asm volatile(
    2a20:	4a06      	ldr	r2, [pc, #24]	; (2a3c <pxCurrentTCBConst2>)
    2a22:	6813      	ldr	r3, [r2, #0]
    2a24:	6818      	ldr	r0, [r3, #0]
    2a26:	3020      	adds	r0, #32
    2a28:	f380 8809 	msr	PSP, r0
    2a2c:	2002      	movs	r0, #2
    2a2e:	f380 8814 	msr	CONTROL, r0
    2a32:	bc3f      	pop	{r0, r1, r2, r3, r4, r5}
    2a34:	46ae      	mov	lr, r5
    2a36:	b662      	cpsie	i
    2a38:	bd00      	pop	{pc}
    2a3a:	46c0      	nop			; (mov r8, r8)

00002a3c <pxCurrentTCBConst2>:
    2a3c:	20001550 	.word	0x20001550

00002a40 <pxPortInitialiseStack>:

/*
 * See header file for description.
 */
StackType_t *pxPortInitialiseStack( StackType_t *pxTopOfStack, TaskFunction_t pxCode, void *pvParameters )
{
    2a40:	b510      	push	{r4, lr}
	/* Simulate the stack frame as it would be created by a context switch
	interrupt. */
	pxTopOfStack--; /* Offset added to account for the way the MCU uses the stack on entry/exit of interrupts. */
	*pxTopOfStack = portINITIAL_XPSR;	/* xPSR */
    2a42:	1f03      	subs	r3, r0, #4
    2a44:	2480      	movs	r4, #128	; 0x80
    2a46:	0464      	lsls	r4, r4, #17
    2a48:	601c      	str	r4, [r3, #0]
	pxTopOfStack--;
	*pxTopOfStack = ( StackType_t ) pxCode;	/* PC */
    2a4a:	3b04      	subs	r3, #4
    2a4c:	6019      	str	r1, [r3, #0]
	pxTopOfStack--;
	*pxTopOfStack = ( StackType_t ) portTASK_RETURN_ADDRESS;	/* LR */
    2a4e:	3b04      	subs	r3, #4
    2a50:	4902      	ldr	r1, [pc, #8]	; (2a5c <pxPortInitialiseStack+0x1c>)
    2a52:	6019      	str	r1, [r3, #0]
	pxTopOfStack -= 5;	/* R12, R3, R2 and R1. */
	*pxTopOfStack = ( StackType_t ) pvParameters;	/* R0 */
    2a54:	3b14      	subs	r3, #20
    2a56:	601a      	str	r2, [r3, #0]
	pxTopOfStack -= 8; /* R11..R4. */

	return pxTopOfStack;
    2a58:	3840      	subs	r0, #64	; 0x40
}
    2a5a:	bd10      	pop	{r4, pc}
    2a5c:	00002a0d 	.word	0x00002a0d

00002a60 <SVC_Handler>:

void vPortSVCHandler( void )
{
	/* This function is no longer used, but retained for backward
	compatibility. */
}
    2a60:	4770      	bx	lr
    2a62:	46c0      	nop			; (mov r8, r8)

00002a64 <vPortYield>:
/*-----------------------------------------------------------*/

void vPortYield( void )
{
	/* Set a PendSV to request a context switch. */
	*( portNVIC_INT_CTRL ) = portNVIC_PENDSVSET;
    2a64:	2280      	movs	r2, #128	; 0x80
    2a66:	0552      	lsls	r2, r2, #21
    2a68:	4b03      	ldr	r3, [pc, #12]	; (2a78 <vPortYield+0x14>)
    2a6a:	601a      	str	r2, [r3, #0]

	/* Barriers are normally not required but do ensure the code is completely
	within the specified behaviour for the architecture. */
	__asm volatile( "dsb" );
    2a6c:	f3bf 8f4f 	dsb	sy
	__asm volatile( "isb" );
    2a70:	f3bf 8f6f 	isb	sy
}
    2a74:	4770      	bx	lr
    2a76:	46c0      	nop			; (mov r8, r8)
    2a78:	e000ed04 	.word	0xe000ed04

00002a7c <vPortEnterCritical>:
/*-----------------------------------------------------------*/

void vPortEnterCritical( void )
{
    portDISABLE_INTERRUPTS();
    2a7c:	b672      	cpsid	i
    uxCriticalNesting++;
    2a7e:	4b04      	ldr	r3, [pc, #16]	; (2a90 <vPortEnterCritical+0x14>)
    2a80:	681a      	ldr	r2, [r3, #0]
    2a82:	3201      	adds	r2, #1
    2a84:	601a      	str	r2, [r3, #0]
	__asm volatile( "dsb" );
    2a86:	f3bf 8f4f 	dsb	sy
	__asm volatile( "isb" );
    2a8a:	f3bf 8f6f 	isb	sy
}
    2a8e:	4770      	bx	lr
    2a90:	20000010 	.word	0x20000010

00002a94 <vPortExitCritical>:
/*-----------------------------------------------------------*/

void vPortExitCritical( void )
{
	configASSERT( uxCriticalNesting );
    2a94:	4b06      	ldr	r3, [pc, #24]	; (2ab0 <vPortExitCritical+0x1c>)
    2a96:	681b      	ldr	r3, [r3, #0]
    2a98:	2b00      	cmp	r3, #0
    2a9a:	d101      	bne.n	2aa0 <vPortExitCritical+0xc>
    2a9c:	b672      	cpsid	i
    2a9e:	e7fe      	b.n	2a9e <vPortExitCritical+0xa>
    uxCriticalNesting--;
    2aa0:	3b01      	subs	r3, #1
    2aa2:	4a03      	ldr	r2, [pc, #12]	; (2ab0 <vPortExitCritical+0x1c>)
    2aa4:	6013      	str	r3, [r2, #0]
    if( uxCriticalNesting == 0 )
    2aa6:	2b00      	cmp	r3, #0
    2aa8:	d100      	bne.n	2aac <vPortExitCritical+0x18>
    {
        portENABLE_INTERRUPTS();
    2aaa:	b662      	cpsie	i
    }
}
    2aac:	4770      	bx	lr
    2aae:	46c0      	nop			; (mov r8, r8)
    2ab0:	20000010 	.word	0x20000010

00002ab4 <ulSetInterruptMaskFromISR>:
/*-----------------------------------------------------------*/

uint32_t ulSetInterruptMaskFromISR( void )
{
	__asm volatile(
    2ab4:	f3ef 8010 	mrs	r0, PRIMASK
    2ab8:	b672      	cpsid	i
    2aba:	4770      	bx	lr
					" bx lr				  "
				  );

	/* To avoid compiler warnings.  This line will never be reached. */
	return 0;
}
    2abc:	2000      	movs	r0, #0
    2abe:	46c0      	nop			; (mov r8, r8)

00002ac0 <vClearInterruptMaskFromISR>:
/*-----------------------------------------------------------*/

void vClearInterruptMaskFromISR( uint32_t ulMask )
{
	__asm volatile(
    2ac0:	f380 8810 	msr	PRIMASK, r0
    2ac4:	4770      	bx	lr
    2ac6:	46c0      	nop			; (mov r8, r8)

00002ac8 <PendSV_Handler>:

void xPortPendSVHandler( void )
{
	/* This is a naked function. */

	__asm volatile
    2ac8:	f3ef 8009 	mrs	r0, PSP
    2acc:	4b0e      	ldr	r3, [pc, #56]	; (2b08 <pxCurrentTCBConst>)
    2ace:	681a      	ldr	r2, [r3, #0]
    2ad0:	3820      	subs	r0, #32
    2ad2:	6010      	str	r0, [r2, #0]
    2ad4:	c0f0      	stmia	r0!, {r4, r5, r6, r7}
    2ad6:	4644      	mov	r4, r8
    2ad8:	464d      	mov	r5, r9
    2ada:	4656      	mov	r6, sl
    2adc:	465f      	mov	r7, fp
    2ade:	c0f0      	stmia	r0!, {r4, r5, r6, r7}
    2ae0:	b508      	push	{r3, lr}
    2ae2:	b672      	cpsid	i
    2ae4:	f001 f97e 	bl	3de4 <vTaskSwitchContext>
    2ae8:	b662      	cpsie	i
    2aea:	bc0c      	pop	{r2, r3}
    2aec:	6811      	ldr	r1, [r2, #0]
    2aee:	6808      	ldr	r0, [r1, #0]
    2af0:	3010      	adds	r0, #16
    2af2:	c8f0      	ldmia	r0!, {r4, r5, r6, r7}
    2af4:	46a0      	mov	r8, r4
    2af6:	46a9      	mov	r9, r5
    2af8:	46b2      	mov	sl, r6
    2afa:	46bb      	mov	fp, r7
    2afc:	f380 8809 	msr	PSP, r0
    2b00:	3820      	subs	r0, #32
    2b02:	c8f0      	ldmia	r0!, {r4, r5, r6, r7}
    2b04:	4718      	bx	r3
    2b06:	46c0      	nop			; (mov r8, r8)

00002b08 <pxCurrentTCBConst>:
    2b08:	20001550 	.word	0x20001550

00002b0c <SysTick_Handler>:
	);
}
/*-----------------------------------------------------------*/

void xPortSysTickHandler( void )
{
    2b0c:	b510      	push	{r4, lr}
uint32_t ulPreviousMask;

	ulPreviousMask = portSET_INTERRUPT_MASK_FROM_ISR();
    2b0e:	4b07      	ldr	r3, [pc, #28]	; (2b2c <SysTick_Handler+0x20>)
    2b10:	4798      	blx	r3
    2b12:	1c04      	adds	r4, r0, #0
	{
		/* Increment the RTOS tick. */
		if( xTaskIncrementTick() != pdFALSE )
    2b14:	4b06      	ldr	r3, [pc, #24]	; (2b30 <SysTick_Handler+0x24>)
    2b16:	4798      	blx	r3
    2b18:	2800      	cmp	r0, #0
    2b1a:	d003      	beq.n	2b24 <SysTick_Handler+0x18>
		{
			/* Pend a context switch. */
			*(portNVIC_INT_CTRL) = portNVIC_PENDSVSET;
    2b1c:	2280      	movs	r2, #128	; 0x80
    2b1e:	0552      	lsls	r2, r2, #21
    2b20:	4b04      	ldr	r3, [pc, #16]	; (2b34 <SysTick_Handler+0x28>)
    2b22:	601a      	str	r2, [r3, #0]
		}
	}
	portCLEAR_INTERRUPT_MASK_FROM_ISR( ulPreviousMask );
    2b24:	1c20      	adds	r0, r4, #0
    2b26:	4b04      	ldr	r3, [pc, #16]	; (2b38 <SysTick_Handler+0x2c>)
    2b28:	4798      	blx	r3
}
    2b2a:	bd10      	pop	{r4, pc}
    2b2c:	00002ab5 	.word	0x00002ab5
    2b30:	00003b21 	.word	0x00003b21
    2b34:	e000ed04 	.word	0xe000ed04
    2b38:	00002ac1 	.word	0x00002ac1

00002b3c <vPortSetupTimerInterrupt>:
 * frequency.
 */
__attribute__(( weak )) void vPortSetupTimerInterrupt( void )
{
	/* Configure SysTick to interrupt at the requested rate. */
	*(portNVIC_SYSTICK_VAL)  = 0; /* Load the SysTick Counter Value */
    2b3c:	2200      	movs	r2, #0
    2b3e:	4b04      	ldr	r3, [pc, #16]	; (2b50 <vPortSetupTimerInterrupt+0x14>)
    2b40:	601a      	str	r2, [r3, #0]
	*(portNVIC_SYSTICK_LOAD) = ( configCPU_CLOCK_HZ / configTICK_RATE_HZ ) - 1UL;
    2b42:	4a04      	ldr	r2, [pc, #16]	; (2b54 <vPortSetupTimerInterrupt+0x18>)
    2b44:	4b04      	ldr	r3, [pc, #16]	; (2b58 <vPortSetupTimerInterrupt+0x1c>)
    2b46:	601a      	str	r2, [r3, #0]
	*(portNVIC_SYSTICK_CTRL) = portNVIC_SYSTICK_CLK | portNVIC_SYSTICK_INT | portNVIC_SYSTICK_ENABLE;
    2b48:	2207      	movs	r2, #7
    2b4a:	4b04      	ldr	r3, [pc, #16]	; (2b5c <vPortSetupTimerInterrupt+0x20>)
    2b4c:	601a      	str	r2, [r3, #0]
}
    2b4e:	4770      	bx	lr
    2b50:	e000e018 	.word	0xe000e018
    2b54:	0000bb7f 	.word	0x0000bb7f
    2b58:	e000e014 	.word	0xe000e014
    2b5c:	e000e010 	.word	0xe000e010

00002b60 <xPortStartScheduler>:

/*
 * See header file for description.
 */
BaseType_t xPortStartScheduler( void )
{
    2b60:	b508      	push	{r3, lr}
	/* Make PendSV, CallSV and SysTick the same priroity as the kernel. */
	*(portNVIC_SYSPRI2) |= portNVIC_PENDSV_PRI;
    2b62:	4b0a      	ldr	r3, [pc, #40]	; (2b8c <xPortStartScheduler+0x2c>)
    2b64:	6819      	ldr	r1, [r3, #0]
    2b66:	22ff      	movs	r2, #255	; 0xff
    2b68:	0412      	lsls	r2, r2, #16
    2b6a:	430a      	orrs	r2, r1
    2b6c:	601a      	str	r2, [r3, #0]
	*(portNVIC_SYSPRI2) |= portNVIC_SYSTICK_PRI;
    2b6e:	6819      	ldr	r1, [r3, #0]
    2b70:	22ff      	movs	r2, #255	; 0xff
    2b72:	0612      	lsls	r2, r2, #24
    2b74:	430a      	orrs	r2, r1
    2b76:	601a      	str	r2, [r3, #0]

	/* Start the timer that generates the tick ISR.  Interrupts are disabled
	here already. */
	vPortSetupTimerInterrupt();
    2b78:	4b05      	ldr	r3, [pc, #20]	; (2b90 <xPortStartScheduler+0x30>)
    2b7a:	4798      	blx	r3

	/* Initialise the critical nesting count ready for the first task. */
	uxCriticalNesting = 0;
    2b7c:	2200      	movs	r2, #0
    2b7e:	4b05      	ldr	r3, [pc, #20]	; (2b94 <xPortStartScheduler+0x34>)
    2b80:	601a      	str	r2, [r3, #0]

	/* Start the first task. */
	vPortStartFirstTask();
    2b82:	4b05      	ldr	r3, [pc, #20]	; (2b98 <xPortStartScheduler+0x38>)
    2b84:	4798      	blx	r3

	/* Should never get here as the tasks will now be executing!  Call the task
	exit error function to prevent compiler warnings about a static function
	not being called in the case that the application writer overrides this
	functionality by defining configTASK_RETURN_ADDRESS. */
	prvTaskExitError();
    2b86:	4b05      	ldr	r3, [pc, #20]	; (2b9c <xPortStartScheduler+0x3c>)
    2b88:	4798      	blx	r3
    2b8a:	46c0      	nop			; (mov r8, r8)
    2b8c:	e000ed20 	.word	0xe000ed20
    2b90:	00002b3d 	.word	0x00002b3d
    2b94:	20000010 	.word	0x20000010
    2b98:	00002a21 	.word	0x00002a21
    2b9c:	00002a0d 	.word	0x00002a0d

00002ba0 <pvPortMalloc>:
static size_t xNextFreeByte = ( size_t ) 0;

/*-----------------------------------------------------------*/

void *pvPortMalloc( size_t xWantedSize )
{
    2ba0:	b538      	push	{r3, r4, r5, lr}
    2ba2:	1c04      	adds	r4, r0, #0
void *pvReturn = NULL;
static uint8_t *pucAlignedHeap = NULL;

	/* Ensure that blocks are always aligned to the required number of bytes. */
	#if portBYTE_ALIGNMENT != 1
		if( xWantedSize & portBYTE_ALIGNMENT_MASK )
    2ba4:	0743      	lsls	r3, r0, #29
    2ba6:	d002      	beq.n	2bae <pvPortMalloc+0xe>
		{
			/* Byte alignment required. */
			xWantedSize += ( portBYTE_ALIGNMENT - ( xWantedSize & portBYTE_ALIGNMENT_MASK ) );
    2ba8:	2307      	movs	r3, #7
    2baa:	439c      	bics	r4, r3
    2bac:	3408      	adds	r4, #8
		}
	#endif

	vTaskSuspendAll();
    2bae:	4b10      	ldr	r3, [pc, #64]	; (2bf0 <pvPortMalloc+0x50>)
    2bb0:	4798      	blx	r3
	{
		if( pucAlignedHeap == NULL )
    2bb2:	4b10      	ldr	r3, [pc, #64]	; (2bf4 <pvPortMalloc+0x54>)
    2bb4:	681b      	ldr	r3, [r3, #0]
    2bb6:	2b00      	cmp	r3, #0
    2bb8:	d105      	bne.n	2bc6 <pvPortMalloc+0x26>
		{
			/* Ensure the heap starts on a correctly aligned boundary. */
			pucAlignedHeap = ( uint8_t * ) ( ( ( portPOINTER_SIZE_TYPE ) &ucHeap[ portBYTE_ALIGNMENT ] ) & ( ( portPOINTER_SIZE_TYPE ) ~portBYTE_ALIGNMENT_MASK ) );
    2bba:	4b0e      	ldr	r3, [pc, #56]	; (2bf4 <pvPortMalloc+0x54>)
    2bbc:	1c1a      	adds	r2, r3, #0
    2bbe:	320c      	adds	r2, #12
    2bc0:	2107      	movs	r1, #7
    2bc2:	438a      	bics	r2, r1
    2bc4:	601a      	str	r2, [r3, #0]
		}

		/* Check there is enough room left for the allocation. */
		if( ( ( xNextFreeByte + xWantedSize ) < configADJUSTED_HEAP_SIZE ) &&
    2bc6:	4b0c      	ldr	r3, [pc, #48]	; (2bf8 <pvPortMalloc+0x58>)
    2bc8:	6a5b      	ldr	r3, [r3, #36]	; 0x24
    2bca:	18e4      	adds	r4, r4, r3
    2bcc:	4a0b      	ldr	r2, [pc, #44]	; (2bfc <pvPortMalloc+0x5c>)
    2bce:	4294      	cmp	r4, r2
    2bd0:	d807      	bhi.n	2be2 <pvPortMalloc+0x42>
    2bd2:	42a3      	cmp	r3, r4
    2bd4:	d207      	bcs.n	2be6 <pvPortMalloc+0x46>
			( ( xNextFreeByte + xWantedSize ) > xNextFreeByte )	)/* Check for overflow. */
		{
			/* Return the next free byte then increment the index past this
			block. */
			pvReturn = pucAlignedHeap + xNextFreeByte;
    2bd6:	4a07      	ldr	r2, [pc, #28]	; (2bf4 <pvPortMalloc+0x54>)
    2bd8:	6815      	ldr	r5, [r2, #0]
    2bda:	18ed      	adds	r5, r5, r3
			xNextFreeByte += xWantedSize;
    2bdc:	4b06      	ldr	r3, [pc, #24]	; (2bf8 <pvPortMalloc+0x58>)
    2bde:	625c      	str	r4, [r3, #36]	; 0x24
    2be0:	e002      	b.n	2be8 <pvPortMalloc+0x48>

/*-----------------------------------------------------------*/

void *pvPortMalloc( size_t xWantedSize )
{
void *pvReturn = NULL;
    2be2:	2500      	movs	r5, #0
    2be4:	e000      	b.n	2be8 <pvPortMalloc+0x48>
    2be6:	2500      	movs	r5, #0
			xNextFreeByte += xWantedSize;
		}

		traceMALLOC( pvReturn, xWantedSize );
	}
	( void ) xTaskResumeAll();
    2be8:	4b05      	ldr	r3, [pc, #20]	; (2c00 <pvPortMalloc+0x60>)
    2bea:	4798      	blx	r3
		}
	}
	#endif

	return pvReturn;
}
    2bec:	1c28      	adds	r0, r5, #0
    2bee:	bd38      	pop	{r3, r4, r5, pc}
    2bf0:	00003ad1 	.word	0x00003ad1
    2bf4:	2000057c 	.word	0x2000057c
    2bf8:	200014fc 	.word	0x200014fc
    2bfc:	00000f97 	.word	0x00000f97
    2c00:	00003c6d 	.word	0x00003c6d

00002c04 <vPortFree>:
	heap_4.c for alternative implementations, and the memory management pages of
	http://www.FreeRTOS.org for more information. */
	( void ) pv;

	/* Force an assert as it is invalid to call this function. */
	configASSERT( pv == NULL );
    2c04:	2800      	cmp	r0, #0
    2c06:	d001      	beq.n	2c0c <vPortFree+0x8>
    2c08:	b672      	cpsid	i
    2c0a:	e7fe      	b.n	2c0a <vPortFree+0x6>
}
    2c0c:	4770      	bx	lr
    2c0e:	46c0      	nop			; (mov r8, r8)

00002c10 <prvCopyDataToQueue>:

#endif /* configUSE_TRACE_FACILITY */
/*-----------------------------------------------------------*/

static void prvCopyDataToQueue( Queue_t * const pxQueue, const void *pvItemToQueue, const BaseType_t xPosition )
{
    2c10:	b538      	push	{r3, r4, r5, lr}
    2c12:	1c04      	adds	r4, r0, #0
    2c14:	1c15      	adds	r5, r2, #0
	if( pxQueue->uxItemSize == ( UBaseType_t ) 0 )
    2c16:	6c02      	ldr	r2, [r0, #64]	; 0x40
    2c18:	2a00      	cmp	r2, #0
    2c1a:	d108      	bne.n	2c2e <prvCopyDataToQueue+0x1e>
	{
		#if ( configUSE_MUTEXES == 1 )
		{
			if( pxQueue->uxQueueType == queueQUEUE_IS_MUTEX )
    2c1c:	6801      	ldr	r1, [r0, #0]
    2c1e:	2900      	cmp	r1, #0
    2c20:	d12a      	bne.n	2c78 <prvCopyDataToQueue+0x68>
			{
				/* The mutex is no longer being held. */
				vTaskPriorityDisinherit( ( void * ) pxQueue->pxMutexHolder );
    2c22:	6840      	ldr	r0, [r0, #4]
    2c24:	4b16      	ldr	r3, [pc, #88]	; (2c80 <prvCopyDataToQueue+0x70>)
    2c26:	4798      	blx	r3
				pxQueue->pxMutexHolder = NULL;
    2c28:	2300      	movs	r3, #0
    2c2a:	6063      	str	r3, [r4, #4]
    2c2c:	e024      	b.n	2c78 <prvCopyDataToQueue+0x68>
				mtCOVERAGE_TEST_MARKER();
			}
		}
		#endif /* configUSE_MUTEXES */
	}
	else if( xPosition == queueSEND_TO_BACK )
    2c2e:	2d00      	cmp	r5, #0
    2c30:	d10c      	bne.n	2c4c <prvCopyDataToQueue+0x3c>
	{
		( void ) memcpy( ( void * ) pxQueue->pcWriteTo, pvItemToQueue, ( size_t ) pxQueue->uxItemSize ); /*lint !e961 !e418 MISRA exception as the casts are only redundant for some ports, plus previous logic ensures a null pointer can only be passed to memcpy() if the copy size is 0. */
    2c32:	6880      	ldr	r0, [r0, #8]
    2c34:	4b13      	ldr	r3, [pc, #76]	; (2c84 <prvCopyDataToQueue+0x74>)
    2c36:	4798      	blx	r3
		pxQueue->pcWriteTo += pxQueue->uxItemSize;
    2c38:	68a2      	ldr	r2, [r4, #8]
    2c3a:	6c21      	ldr	r1, [r4, #64]	; 0x40
    2c3c:	1853      	adds	r3, r2, r1
    2c3e:	60a3      	str	r3, [r4, #8]
		if( pxQueue->pcWriteTo >= pxQueue->pcTail ) /*lint !e946 MISRA exception justified as comparison of pointers is the cleanest solution. */
    2c40:	6862      	ldr	r2, [r4, #4]
    2c42:	4293      	cmp	r3, r2
    2c44:	d318      	bcc.n	2c78 <prvCopyDataToQueue+0x68>
		{
			pxQueue->pcWriteTo = pxQueue->pcHead;
    2c46:	6823      	ldr	r3, [r4, #0]
    2c48:	60a3      	str	r3, [r4, #8]
    2c4a:	e015      	b.n	2c78 <prvCopyDataToQueue+0x68>
			mtCOVERAGE_TEST_MARKER();
		}
	}
	else
	{
		( void ) memcpy( ( void * ) pxQueue->u.pcReadFrom, pvItemToQueue, ( size_t ) pxQueue->uxItemSize ); /*lint !e961 MISRA exception as the casts are only redundant for some ports. */
    2c4c:	68c0      	ldr	r0, [r0, #12]
    2c4e:	4b0d      	ldr	r3, [pc, #52]	; (2c84 <prvCopyDataToQueue+0x74>)
    2c50:	4798      	blx	r3
		pxQueue->u.pcReadFrom -= pxQueue->uxItemSize;
    2c52:	6c21      	ldr	r1, [r4, #64]	; 0x40
    2c54:	424a      	negs	r2, r1
    2c56:	68e1      	ldr	r1, [r4, #12]
    2c58:	188b      	adds	r3, r1, r2
    2c5a:	60e3      	str	r3, [r4, #12]
		if( pxQueue->u.pcReadFrom < pxQueue->pcHead ) /*lint !e946 MISRA exception justified as comparison of pointers is the cleanest solution. */
    2c5c:	6821      	ldr	r1, [r4, #0]
    2c5e:	428b      	cmp	r3, r1
    2c60:	d202      	bcs.n	2c68 <prvCopyDataToQueue+0x58>
		{
			pxQueue->u.pcReadFrom = ( pxQueue->pcTail - pxQueue->uxItemSize );
    2c62:	6863      	ldr	r3, [r4, #4]
    2c64:	189a      	adds	r2, r3, r2
    2c66:	60e2      	str	r2, [r4, #12]
		else
		{
			mtCOVERAGE_TEST_MARKER();
		}

		if( xPosition == queueOVERWRITE )
    2c68:	2d02      	cmp	r5, #2
    2c6a:	d105      	bne.n	2c78 <prvCopyDataToQueue+0x68>
		{
			if( pxQueue->uxMessagesWaiting > ( UBaseType_t ) 0 )
    2c6c:	6ba3      	ldr	r3, [r4, #56]	; 0x38
    2c6e:	2b00      	cmp	r3, #0
    2c70:	d002      	beq.n	2c78 <prvCopyDataToQueue+0x68>
			{
				/* An item is not being added but overwritten, so subtract
				one from the recorded number of items in the queue so when
				one is added again below the number of recorded items remains
				correct. */
				--( pxQueue->uxMessagesWaiting );
    2c72:	6ba3      	ldr	r3, [r4, #56]	; 0x38
    2c74:	3b01      	subs	r3, #1
    2c76:	63a3      	str	r3, [r4, #56]	; 0x38
		{
			mtCOVERAGE_TEST_MARKER();
		}
	}

	++( pxQueue->uxMessagesWaiting );
    2c78:	6ba3      	ldr	r3, [r4, #56]	; 0x38
    2c7a:	3301      	adds	r3, #1
    2c7c:	63a3      	str	r3, [r4, #56]	; 0x38
}
    2c7e:	bd38      	pop	{r3, r4, r5, pc}
    2c80:	00004241 	.word	0x00004241
    2c84:	00005385 	.word	0x00005385

00002c88 <prvNotifyQueueSetContainer>:
/*-----------------------------------------------------------*/

#if ( configUSE_QUEUE_SETS == 1 )

	static BaseType_t prvNotifyQueueSetContainer( const Queue_t * const pxQueue, const BaseType_t xCopyPosition )
	{
    2c88:	b5f0      	push	{r4, r5, r6, r7, lr}
    2c8a:	4657      	mov	r7, sl
    2c8c:	464e      	mov	r6, r9
    2c8e:	4645      	mov	r5, r8
    2c90:	b4e0      	push	{r5, r6, r7}
    2c92:	b082      	sub	sp, #8
    2c94:	9001      	str	r0, [sp, #4]
    2c96:	4688      	mov	r8, r1
	Queue_t *pxQueueSetContainer = pxQueue->pxQueueSetContainer;
    2c98:	6d44      	ldr	r4, [r0, #84]	; 0x54
	BaseType_t xReturn = pdFALSE;

		/* This function must be called form a critical section. */

		configASSERT( pxQueueSetContainer );
    2c9a:	2c00      	cmp	r4, #0
    2c9c:	d101      	bne.n	2ca2 <prvNotifyQueueSetContainer+0x1a>
    2c9e:	b672      	cpsid	i
    2ca0:	e7fe      	b.n	2ca0 <prvNotifyQueueSetContainer+0x18>
		configASSERT( pxQueueSetContainer->uxMessagesWaiting < pxQueueSetContainer->uxLength );
    2ca2:	6ba2      	ldr	r2, [r4, #56]	; 0x38
    2ca4:	6be3      	ldr	r3, [r4, #60]	; 0x3c
    2ca6:	429a      	cmp	r2, r3
    2ca8:	d301      	bcc.n	2cae <prvNotifyQueueSetContainer+0x26>
    2caa:	b672      	cpsid	i
    2cac:	e7fe      	b.n	2cac <prvNotifyQueueSetContainer+0x24>

		if( pxQueueSetContainer->uxMessagesWaiting < pxQueueSetContainer->uxLength )
    2cae:	6ba2      	ldr	r2, [r4, #56]	; 0x38
#if ( configUSE_QUEUE_SETS == 1 )

	static BaseType_t prvNotifyQueueSetContainer( const Queue_t * const pxQueue, const BaseType_t xCopyPosition )
	{
	Queue_t *pxQueueSetContainer = pxQueue->pxQueueSetContainer;
	BaseType_t xReturn = pdFALSE;
    2cb0:	2000      	movs	r0, #0
		/* This function must be called form a critical section. */

		configASSERT( pxQueueSetContainer );
		configASSERT( pxQueueSetContainer->uxMessagesWaiting < pxQueueSetContainer->uxLength );

		if( pxQueueSetContainer->uxMessagesWaiting < pxQueueSetContainer->uxLength )
    2cb2:	4293      	cmp	r3, r2
    2cb4:	d937      	bls.n	2d26 <prvNotifyQueueSetContainer+0x9e>
		{
			traceQUEUE_SEND( pxQueueSetContainer );
    2cb6:	1c20      	adds	r0, r4, #0
    2cb8:	4e1e      	ldr	r6, [pc, #120]	; (2d34 <prvNotifyQueueSetContainer+0xac>)
    2cba:	47b0      	blx	r6
    2cbc:	4d1e      	ldr	r5, [pc, #120]	; (2d38 <prvNotifyQueueSetContainer+0xb0>)
    2cbe:	5c2b      	ldrb	r3, [r5, r0]
    2cc0:	3320      	adds	r3, #32
    2cc2:	b2db      	uxtb	r3, r3
    2cc4:	469a      	mov	sl, r3
    2cc6:	1c20      	adds	r0, r4, #0
    2cc8:	47b0      	blx	r6
    2cca:	5c28      	ldrb	r0, [r5, r0]
    2ccc:	4681      	mov	r9, r0
    2cce:	1c20      	adds	r0, r4, #0
    2cd0:	4f1a      	ldr	r7, [pc, #104]	; (2d3c <prvNotifyQueueSetContainer+0xb4>)
    2cd2:	47b8      	blx	r7
    2cd4:	1c02      	adds	r2, r0, #0
    2cd6:	4650      	mov	r0, sl
    2cd8:	4649      	mov	r1, r9
    2cda:	4b19      	ldr	r3, [pc, #100]	; (2d40 <prvNotifyQueueSetContainer+0xb8>)
    2cdc:	4798      	blx	r3
    2cde:	1c20      	adds	r0, r4, #0
    2ce0:	47b0      	blx	r6
    2ce2:	5c28      	ldrb	r0, [r5, r0]
    2ce4:	4681      	mov	r9, r0
    2ce6:	1c20      	adds	r0, r4, #0
    2ce8:	47b8      	blx	r7
    2cea:	1c07      	adds	r7, r0, #0
    2cec:	1c20      	adds	r0, r4, #0
    2cee:	47b0      	blx	r6
    2cf0:	5c2b      	ldrb	r3, [r5, r0]
    2cf2:	2b02      	cmp	r3, #2
    2cf4:	d003      	beq.n	2cfe <prvNotifyQueueSetContainer+0x76>
    2cf6:	6ba3      	ldr	r3, [r4, #56]	; 0x38
    2cf8:	3301      	adds	r3, #1
    2cfa:	b2da      	uxtb	r2, r3
    2cfc:	e000      	b.n	2d00 <prvNotifyQueueSetContainer+0x78>
    2cfe:	2200      	movs	r2, #0
    2d00:	4648      	mov	r0, r9
    2d02:	1c39      	adds	r1, r7, #0
    2d04:	4b0f      	ldr	r3, [pc, #60]	; (2d44 <prvNotifyQueueSetContainer+0xbc>)
    2d06:	4798      	blx	r3
			/* The data copies is the handle of the queue that contains data. */
			prvCopyDataToQueue( pxQueueSetContainer, &pxQueue, xCopyPosition );
    2d08:	1c20      	adds	r0, r4, #0
    2d0a:	a901      	add	r1, sp, #4
    2d0c:	4642      	mov	r2, r8
    2d0e:	4b0e      	ldr	r3, [pc, #56]	; (2d48 <prvNotifyQueueSetContainer+0xc0>)
    2d10:	4798      	blx	r3
#if ( configUSE_QUEUE_SETS == 1 )

	static BaseType_t prvNotifyQueueSetContainer( const Queue_t * const pxQueue, const BaseType_t xCopyPosition )
	{
	Queue_t *pxQueueSetContainer = pxQueue->pxQueueSetContainer;
	BaseType_t xReturn = pdFALSE;
    2d12:	2000      	movs	r0, #0
		if( pxQueueSetContainer->uxMessagesWaiting < pxQueueSetContainer->uxLength )
		{
			traceQUEUE_SEND( pxQueueSetContainer );
			/* The data copies is the handle of the queue that contains data. */
			prvCopyDataToQueue( pxQueueSetContainer, &pxQueue, xCopyPosition );
			if( listLIST_IS_EMPTY( &( pxQueueSetContainer->xTasksWaitingToReceive ) ) == pdFALSE )
    2d14:	6a63      	ldr	r3, [r4, #36]	; 0x24
    2d16:	2b00      	cmp	r3, #0
    2d18:	d005      	beq.n	2d26 <prvNotifyQueueSetContainer+0x9e>
			{
				if( xTaskRemoveFromEventList( &( pxQueueSetContainer->xTasksWaitingToReceive ) ) != pdFALSE )
    2d1a:	1c20      	adds	r0, r4, #0
    2d1c:	3024      	adds	r0, #36	; 0x24
    2d1e:	4b0b      	ldr	r3, [pc, #44]	; (2d4c <prvNotifyQueueSetContainer+0xc4>)
    2d20:	4798      	blx	r3
#if ( configUSE_QUEUE_SETS == 1 )

	static BaseType_t prvNotifyQueueSetContainer( const Queue_t * const pxQueue, const BaseType_t xCopyPosition )
	{
	Queue_t *pxQueueSetContainer = pxQueue->pxQueueSetContainer;
	BaseType_t xReturn = pdFALSE;
    2d22:	1e43      	subs	r3, r0, #1
    2d24:	4198      	sbcs	r0, r3
		{
			mtCOVERAGE_TEST_MARKER();
		}

		return xReturn;
	}
    2d26:	b002      	add	sp, #8
    2d28:	bc1c      	pop	{r2, r3, r4}
    2d2a:	4690      	mov	r8, r2
    2d2c:	4699      	mov	r9, r3
    2d2e:	46a2      	mov	sl, r4
    2d30:	bdf0      	pop	{r4, r5, r6, r7, pc}
    2d32:	46c0      	nop			; (mov r8, r8)
    2d34:	000021d5 	.word	0x000021d5
    2d38:	20000008 	.word	0x20000008
    2d3c:	000021c5 	.word	0x000021c5
    2d40:	00001b11 	.word	0x00001b11
    2d44:	00002001 	.word	0x00002001
    2d48:	00002c11 	.word	0x00002c11
    2d4c:	0000400d 	.word	0x0000400d

00002d50 <prvCopyDataFromQueue>:
	++( pxQueue->uxMessagesWaiting );
}
/*-----------------------------------------------------------*/

static void prvCopyDataFromQueue( Queue_t * const pxQueue, void * const pvBuffer )
{
    2d50:	b538      	push	{r3, r4, r5, lr}
	if( pxQueue->uxQueueType != queueQUEUE_IS_MUTEX )
    2d52:	6804      	ldr	r4, [r0, #0]
    2d54:	2c00      	cmp	r4, #0
    2d56:	d00c      	beq.n	2d72 <prvCopyDataFromQueue+0x22>
	{
		pxQueue->u.pcReadFrom += pxQueue->uxItemSize;
    2d58:	6c02      	ldr	r2, [r0, #64]	; 0x40
    2d5a:	68c5      	ldr	r5, [r0, #12]
    2d5c:	18ab      	adds	r3, r5, r2
    2d5e:	60c3      	str	r3, [r0, #12]
		if( pxQueue->u.pcReadFrom >= pxQueue->pcTail ) /*lint !e946 MISRA exception justified as use of the relational operator is the cleanest solutions. */
    2d60:	6845      	ldr	r5, [r0, #4]
    2d62:	42ab      	cmp	r3, r5
    2d64:	d300      	bcc.n	2d68 <prvCopyDataFromQueue+0x18>
		{
			pxQueue->u.pcReadFrom = pxQueue->pcHead;
    2d66:	60c4      	str	r4, [r0, #12]
		}
		else
		{
			mtCOVERAGE_TEST_MARKER();
		}
		( void ) memcpy( ( void * ) pvBuffer, ( void * ) pxQueue->u.pcReadFrom, ( size_t ) pxQueue->uxItemSize ); /*lint !e961 !e418 MISRA exception as the casts are only redundant for some ports.  Also previous logic ensures a null pointer can only be passed to memcpy() when the count is 0. */
    2d68:	68c3      	ldr	r3, [r0, #12]
    2d6a:	1c08      	adds	r0, r1, #0
    2d6c:	1c19      	adds	r1, r3, #0
    2d6e:	4b01      	ldr	r3, [pc, #4]	; (2d74 <prvCopyDataFromQueue+0x24>)
    2d70:	4798      	blx	r3
	}
	else
	{
		mtCOVERAGE_TEST_MARKER();
	}
}
    2d72:	bd38      	pop	{r3, r4, r5, pc}
    2d74:	00005385 	.word	0x00005385

00002d78 <prvUnlockQueue>:
/*-----------------------------------------------------------*/

static void prvUnlockQueue( Queue_t * const pxQueue )
{
    2d78:	b5f8      	push	{r3, r4, r5, r6, r7, lr}
    2d7a:	1c04      	adds	r4, r0, #0

	/* The lock counts contains the number of extra data items placed or
	removed from the queue while the queue was locked.  When a queue is
	locked items can be added or removed, but the event lists cannot be
	updated. */
	taskENTER_CRITICAL();
    2d7c:	4b23      	ldr	r3, [pc, #140]	; (2e0c <prvUnlockQueue+0x94>)
    2d7e:	4798      	blx	r3
	{
		/* See if data was added to the queue while it was locked. */
		while( pxQueue->xTxLock > queueLOCKED_UNMODIFIED )
    2d80:	6ca3      	ldr	r3, [r4, #72]	; 0x48
    2d82:	2b00      	cmp	r3, #0
    2d84:	dd1c      	ble.n	2dc0 <prvUnlockQueue+0x48>
				{
					/* Tasks that are removed from the event list will get added to
					the pending ready list as the scheduler is still suspended. */
					if( listLIST_IS_EMPTY( &( pxQueue->xTasksWaitingToReceive ) ) == pdFALSE )
					{
						if( xTaskRemoveFromEventList( &( pxQueue->xTasksWaitingToReceive ) ) != pdFALSE )
    2d86:	4e22      	ldr	r6, [pc, #136]	; (2e10 <prvUnlockQueue+0x98>)
			blocked waiting for data to become available? */
			#if ( configUSE_QUEUE_SETS == 1 )
			{
				if( pxQueue->pxQueueSetContainer != NULL )
				{
					if( prvNotifyQueueSetContainer( pxQueue, queueSEND_TO_BACK ) == pdTRUE )
    2d88:	4d22      	ldr	r5, [pc, #136]	; (2e14 <prvUnlockQueue+0x9c>)
		{
			/* Data was posted while the queue was locked.  Are any tasks
			blocked waiting for data to become available? */
			#if ( configUSE_QUEUE_SETS == 1 )
			{
				if( pxQueue->pxQueueSetContainer != NULL )
    2d8a:	6d63      	ldr	r3, [r4, #84]	; 0x54
    2d8c:	2b00      	cmp	r3, #0
    2d8e:	d007      	beq.n	2da0 <prvUnlockQueue+0x28>
				{
					if( prvNotifyQueueSetContainer( pxQueue, queueSEND_TO_BACK ) == pdTRUE )
    2d90:	1c20      	adds	r0, r4, #0
    2d92:	2100      	movs	r1, #0
    2d94:	47a8      	blx	r5
    2d96:	2801      	cmp	r0, #1
    2d98:	d10c      	bne.n	2db4 <prvUnlockQueue+0x3c>
					{
						/* The queue is a member of a queue set, and posting to
						the queue set caused a higher priority task to unblock.
						A context switch is required. */
						vTaskMissedYield();
    2d9a:	4b1f      	ldr	r3, [pc, #124]	; (2e18 <prvUnlockQueue+0xa0>)
    2d9c:	4798      	blx	r3
    2d9e:	e009      	b.n	2db4 <prvUnlockQueue+0x3c>
				}
				else
				{
					/* Tasks that are removed from the event list will get added to
					the pending ready list as the scheduler is still suspended. */
					if( listLIST_IS_EMPTY( &( pxQueue->xTasksWaitingToReceive ) ) == pdFALSE )
    2da0:	6a63      	ldr	r3, [r4, #36]	; 0x24
    2da2:	2b00      	cmp	r3, #0
    2da4:	d00c      	beq.n	2dc0 <prvUnlockQueue+0x48>
					{
						if( xTaskRemoveFromEventList( &( pxQueue->xTasksWaitingToReceive ) ) != pdFALSE )
    2da6:	1c20      	adds	r0, r4, #0
    2da8:	3024      	adds	r0, #36	; 0x24
    2daa:	47b0      	blx	r6
    2dac:	2800      	cmp	r0, #0
    2dae:	d001      	beq.n	2db4 <prvUnlockQueue+0x3c>
						{
							/* The task waiting has a higher priority so record that a
							context	switch is required. */
							vTaskMissedYield();
    2db0:	4b19      	ldr	r3, [pc, #100]	; (2e18 <prvUnlockQueue+0xa0>)
    2db2:	4798      	blx	r3
					break;
				}
			}
			#endif /* configUSE_QUEUE_SETS */

			--( pxQueue->xTxLock );
    2db4:	6ca3      	ldr	r3, [r4, #72]	; 0x48
    2db6:	3b01      	subs	r3, #1
    2db8:	64a3      	str	r3, [r4, #72]	; 0x48
	locked items can be added or removed, but the event lists cannot be
	updated. */
	taskENTER_CRITICAL();
	{
		/* See if data was added to the queue while it was locked. */
		while( pxQueue->xTxLock > queueLOCKED_UNMODIFIED )
    2dba:	6ca3      	ldr	r3, [r4, #72]	; 0x48
    2dbc:	2b00      	cmp	r3, #0
    2dbe:	dce4      	bgt.n	2d8a <prvUnlockQueue+0x12>
			#endif /* configUSE_QUEUE_SETS */

			--( pxQueue->xTxLock );
		}

		pxQueue->xTxLock = queueUNLOCKED;
    2dc0:	2301      	movs	r3, #1
    2dc2:	425b      	negs	r3, r3
    2dc4:	64a3      	str	r3, [r4, #72]	; 0x48
	}
	taskEXIT_CRITICAL();
    2dc6:	4b15      	ldr	r3, [pc, #84]	; (2e1c <prvUnlockQueue+0xa4>)
    2dc8:	4798      	blx	r3

	/* Do the same for the Rx lock. */
	taskENTER_CRITICAL();
    2dca:	4b10      	ldr	r3, [pc, #64]	; (2e0c <prvUnlockQueue+0x94>)
    2dcc:	4798      	blx	r3
	{
		while( pxQueue->xRxLock > queueLOCKED_UNMODIFIED )
    2dce:	6c63      	ldr	r3, [r4, #68]	; 0x44
    2dd0:	2b00      	cmp	r3, #0
    2dd2:	dd15      	ble.n	2e00 <prvUnlockQueue+0x88>
		{
			if( listLIST_IS_EMPTY( &( pxQueue->xTasksWaitingToSend ) ) == pdFALSE )
    2dd4:	6923      	ldr	r3, [r4, #16]
    2dd6:	2b00      	cmp	r3, #0
    2dd8:	d012      	beq.n	2e00 <prvUnlockQueue+0x88>
			{
				if( xTaskRemoveFromEventList( &( pxQueue->xTasksWaitingToSend ) ) != pdFALSE )
    2dda:	1c27      	adds	r7, r4, #0
    2ddc:	3710      	adds	r7, #16
    2dde:	4e0c      	ldr	r6, [pc, #48]	; (2e10 <prvUnlockQueue+0x98>)
				{
					vTaskMissedYield();
    2de0:	4d0d      	ldr	r5, [pc, #52]	; (2e18 <prvUnlockQueue+0xa0>)
    2de2:	e002      	b.n	2dea <prvUnlockQueue+0x72>
	/* Do the same for the Rx lock. */
	taskENTER_CRITICAL();
	{
		while( pxQueue->xRxLock > queueLOCKED_UNMODIFIED )
		{
			if( listLIST_IS_EMPTY( &( pxQueue->xTasksWaitingToSend ) ) == pdFALSE )
    2de4:	6923      	ldr	r3, [r4, #16]
    2de6:	2b00      	cmp	r3, #0
    2de8:	d00a      	beq.n	2e00 <prvUnlockQueue+0x88>
			{
				if( xTaskRemoveFromEventList( &( pxQueue->xTasksWaitingToSend ) ) != pdFALSE )
    2dea:	1c38      	adds	r0, r7, #0
    2dec:	47b0      	blx	r6
    2dee:	2800      	cmp	r0, #0
    2df0:	d000      	beq.n	2df4 <prvUnlockQueue+0x7c>
				{
					vTaskMissedYield();
    2df2:	47a8      	blx	r5
				else
				{
					mtCOVERAGE_TEST_MARKER();
				}

				--( pxQueue->xRxLock );
    2df4:	6c63      	ldr	r3, [r4, #68]	; 0x44
    2df6:	3b01      	subs	r3, #1
    2df8:	6463      	str	r3, [r4, #68]	; 0x44
	taskEXIT_CRITICAL();

	/* Do the same for the Rx lock. */
	taskENTER_CRITICAL();
	{
		while( pxQueue->xRxLock > queueLOCKED_UNMODIFIED )
    2dfa:	6c63      	ldr	r3, [r4, #68]	; 0x44
    2dfc:	2b00      	cmp	r3, #0
    2dfe:	dcf1      	bgt.n	2de4 <prvUnlockQueue+0x6c>
			{
				break;
			}
		}

		pxQueue->xRxLock = queueUNLOCKED;
    2e00:	2301      	movs	r3, #1
    2e02:	425b      	negs	r3, r3
    2e04:	6463      	str	r3, [r4, #68]	; 0x44
	}
	taskEXIT_CRITICAL();
    2e06:	4b05      	ldr	r3, [pc, #20]	; (2e1c <prvUnlockQueue+0xa4>)
    2e08:	4798      	blx	r3
}
    2e0a:	bdf8      	pop	{r3, r4, r5, r6, r7, pc}
    2e0c:	00002a7d 	.word	0x00002a7d
    2e10:	0000400d 	.word	0x0000400d
    2e14:	00002c89 	.word	0x00002c89
    2e18:	0000412d 	.word	0x0000412d
    2e1c:	00002a95 	.word	0x00002a95

00002e20 <xQueueGenericReset>:
	}														\
	taskEXIT_CRITICAL()
/*-----------------------------------------------------------*/

BaseType_t xQueueGenericReset( QueueHandle_t xQueue, BaseType_t xNewQueue )
{
    2e20:	b538      	push	{r3, r4, r5, lr}
    2e22:	1c04      	adds	r4, r0, #0
    2e24:	1c0d      	adds	r5, r1, #0
Queue_t * const pxQueue = ( Queue_t * ) xQueue;

	configASSERT( pxQueue );
    2e26:	2800      	cmp	r0, #0
    2e28:	d101      	bne.n	2e2e <xQueueGenericReset+0xe>
    2e2a:	b672      	cpsid	i
    2e2c:	e7fe      	b.n	2e2c <xQueueGenericReset+0xc>

	taskENTER_CRITICAL();
    2e2e:	4b15      	ldr	r3, [pc, #84]	; (2e84 <xQueueGenericReset+0x64>)
    2e30:	4798      	blx	r3
	{
		pxQueue->pcTail = pxQueue->pcHead + ( pxQueue->uxLength * pxQueue->uxItemSize );
    2e32:	6823      	ldr	r3, [r4, #0]
    2e34:	6c22      	ldr	r2, [r4, #64]	; 0x40
    2e36:	6be0      	ldr	r0, [r4, #60]	; 0x3c
    2e38:	4350      	muls	r0, r2
    2e3a:	1819      	adds	r1, r3, r0
    2e3c:	6061      	str	r1, [r4, #4]
		pxQueue->uxMessagesWaiting = ( UBaseType_t ) 0U;
    2e3e:	2100      	movs	r1, #0
    2e40:	63a1      	str	r1, [r4, #56]	; 0x38
		pxQueue->pcWriteTo = pxQueue->pcHead;
    2e42:	60a3      	str	r3, [r4, #8]
		pxQueue->u.pcReadFrom = pxQueue->pcHead + ( ( pxQueue->uxLength - ( UBaseType_t ) 1U ) * pxQueue->uxItemSize );
    2e44:	1a82      	subs	r2, r0, r2
    2e46:	189b      	adds	r3, r3, r2
    2e48:	60e3      	str	r3, [r4, #12]
		pxQueue->xRxLock = queueUNLOCKED;
    2e4a:	2301      	movs	r3, #1
    2e4c:	425b      	negs	r3, r3
    2e4e:	6463      	str	r3, [r4, #68]	; 0x44
		pxQueue->xTxLock = queueUNLOCKED;
    2e50:	64a3      	str	r3, [r4, #72]	; 0x48

		if( xNewQueue == pdFALSE )
    2e52:	2d00      	cmp	r5, #0
    2e54:	d10b      	bne.n	2e6e <xQueueGenericReset+0x4e>
			/* If there are tasks blocked waiting to read from the queue, then
			the tasks will remain blocked as after this function exits the queue
			will still be empty.  If there are tasks blocked waiting to write to
			the queue, then one should be unblocked as after this function exits
			it will be possible to write to it. */
			if( listLIST_IS_EMPTY( &( pxQueue->xTasksWaitingToSend ) ) == pdFALSE )
    2e56:	6921      	ldr	r1, [r4, #16]
    2e58:	2900      	cmp	r1, #0
    2e5a:	d00f      	beq.n	2e7c <xQueueGenericReset+0x5c>
			{
				if( xTaskRemoveFromEventList( &( pxQueue->xTasksWaitingToSend ) ) == pdTRUE )
    2e5c:	1c20      	adds	r0, r4, #0
    2e5e:	3010      	adds	r0, #16
    2e60:	4b09      	ldr	r3, [pc, #36]	; (2e88 <xQueueGenericReset+0x68>)
    2e62:	4798      	blx	r3
    2e64:	2801      	cmp	r0, #1
    2e66:	d109      	bne.n	2e7c <xQueueGenericReset+0x5c>
				{
					queueYIELD_IF_USING_PREEMPTION();
    2e68:	4b08      	ldr	r3, [pc, #32]	; (2e8c <xQueueGenericReset+0x6c>)
    2e6a:	4798      	blx	r3
    2e6c:	e006      	b.n	2e7c <xQueueGenericReset+0x5c>
			}
		}
		else
		{
			/* Ensure the event queues start in the correct state. */
			vListInitialise( &( pxQueue->xTasksWaitingToSend ) );
    2e6e:	1c20      	adds	r0, r4, #0
    2e70:	3010      	adds	r0, #16
    2e72:	4d07      	ldr	r5, [pc, #28]	; (2e90 <xQueueGenericReset+0x70>)
    2e74:	47a8      	blx	r5
			vListInitialise( &( pxQueue->xTasksWaitingToReceive ) );
    2e76:	1c20      	adds	r0, r4, #0
    2e78:	3024      	adds	r0, #36	; 0x24
    2e7a:	47a8      	blx	r5
		}
	}
	taskEXIT_CRITICAL();
    2e7c:	4b05      	ldr	r3, [pc, #20]	; (2e94 <xQueueGenericReset+0x74>)
    2e7e:	4798      	blx	r3

	/* A value is returned for calling semantic consistency with previous
	versions. */
	return pdPASS;
}
    2e80:	2001      	movs	r0, #1
    2e82:	bd38      	pop	{r3, r4, r5, pc}
    2e84:	00002a7d 	.word	0x00002a7d
    2e88:	0000400d 	.word	0x0000400d
    2e8c:	00002a65 	.word	0x00002a65
    2e90:	00002981 	.word	0x00002981
    2e94:	00002a95 	.word	0x00002a95

00002e98 <xQueueGenericCreate>:
/*-----------------------------------------------------------*/

QueueHandle_t xQueueGenericCreate( const UBaseType_t uxQueueLength, const UBaseType_t uxItemSize, const uint8_t ucQueueType )
{
    2e98:	b5f8      	push	{r3, r4, r5, r6, r7, lr}
    2e9a:	464f      	mov	r7, r9
    2e9c:	4646      	mov	r6, r8
    2e9e:	b4c0      	push	{r6, r7}
    2ea0:	1c05      	adds	r5, r0, #0
    2ea2:	1c0f      	adds	r7, r1, #0
    2ea4:	1c16      	adds	r6, r2, #0
	/* Remove compiler warnings about unused parameters should
	configUSE_TRACE_FACILITY not be set to 1. */
	( void ) ucQueueType;

	/* Allocate the new queue structure. */
	if( uxQueueLength > ( UBaseType_t ) 0 )
    2ea6:	2800      	cmp	r0, #0
    2ea8:	d019      	beq.n	2ede <xQueueGenericCreate+0x46>
	{
		pxNewQueue = ( Queue_t * ) pvPortMalloc( sizeof( Queue_t ) );
    2eaa:	2058      	movs	r0, #88	; 0x58
    2eac:	4b26      	ldr	r3, [pc, #152]	; (2f48 <xQueueGenericCreate+0xb0>)
    2eae:	4798      	blx	r3
    2eb0:	1e04      	subs	r4, r0, #0
		if( pxNewQueue != NULL )
    2eb2:	d014      	beq.n	2ede <xQueueGenericCreate+0x46>
		{
			/* Create the list of pointers to queue items.  The queue is one byte
			longer than asked for to make wrap checking easier/faster. */
			xQueueSizeInBytes = ( size_t ) ( uxQueueLength * uxItemSize ) + ( size_t ) 1; /*lint !e961 MISRA exception as the casts are only redundant for some ports. */
    2eb4:	1c38      	adds	r0, r7, #0
    2eb6:	4368      	muls	r0, r5
    2eb8:	3001      	adds	r0, #1

			pxNewQueue->pcHead = ( int8_t * ) pvPortMalloc( xQueueSizeInBytes );
    2eba:	4b23      	ldr	r3, [pc, #140]	; (2f48 <xQueueGenericCreate+0xb0>)
    2ebc:	4798      	blx	r3
    2ebe:	6020      	str	r0, [r4, #0]
			if( pxNewQueue->pcHead != NULL )
    2ec0:	2800      	cmp	r0, #0
    2ec2:	d10e      	bne.n	2ee2 <xQueueGenericCreate+0x4a>
				traceQUEUE_CREATE( pxNewQueue );
				xReturn = pxNewQueue;
			}
			else
			{
				traceQUEUE_CREATE_FAILED( ucQueueType );
    2ec4:	4b21      	ldr	r3, [pc, #132]	; (2f4c <xQueueGenericCreate+0xb4>)
    2ec6:	5d99      	ldrb	r1, [r3, r6]
    2ec8:	1c08      	adds	r0, r1, #0
    2eca:	3040      	adds	r0, #64	; 0x40
    2ecc:	b2c0      	uxtb	r0, r0
    2ece:	2200      	movs	r2, #0
    2ed0:	4b1f      	ldr	r3, [pc, #124]	; (2f50 <xQueueGenericCreate+0xb8>)
    2ed2:	4798      	blx	r3
				vPortFree( pxNewQueue );
    2ed4:	1c20      	adds	r0, r4, #0
    2ed6:	4b1f      	ldr	r3, [pc, #124]	; (2f54 <xQueueGenericCreate+0xbc>)
    2ed8:	4798      	blx	r3
    2eda:	e000      	b.n	2ede <xQueueGenericCreate+0x46>
    2edc:	e7fe      	b.n	2edc <xQueueGenericCreate+0x44>
	else
	{
		mtCOVERAGE_TEST_MARKER();
	}

	configASSERT( xReturn );
    2ede:	b672      	cpsid	i
    2ee0:	e7fc      	b.n	2edc <xQueueGenericCreate+0x44>
			pxNewQueue->pcHead = ( int8_t * ) pvPortMalloc( xQueueSizeInBytes );
			if( pxNewQueue->pcHead != NULL )
			{
				/* Initialise the queue members as described above where the
				queue type is defined. */
				pxNewQueue->uxLength = uxQueueLength;
    2ee2:	63e5      	str	r5, [r4, #60]	; 0x3c
				pxNewQueue->uxItemSize = uxItemSize;
    2ee4:	6427      	str	r7, [r4, #64]	; 0x40
				( void ) xQueueGenericReset( pxNewQueue, pdTRUE );
    2ee6:	1c20      	adds	r0, r4, #0
    2ee8:	2101      	movs	r1, #1
    2eea:	4b1b      	ldr	r3, [pc, #108]	; (2f58 <xQueueGenericCreate+0xc0>)
    2eec:	4798      	blx	r3

				#if ( configUSE_TRACE_FACILITY == 1 )
				{
					pxNewQueue->ucQueueType = ucQueueType;
    2eee:	2350      	movs	r3, #80	; 0x50
    2ef0:	54e6      	strb	r6, [r4, r3]
				}
				#endif /* configUSE_TRACE_FACILITY */

				#if( configUSE_QUEUE_SETS == 1 )
				{
					pxNewQueue->pxQueueSetContainer = NULL;
    2ef2:	2300      	movs	r3, #0
    2ef4:	6563      	str	r3, [r4, #84]	; 0x54
				}
				#endif /* configUSE_QUEUE_SETS */

				traceQUEUE_CREATE( pxNewQueue );
    2ef6:	1c20      	adds	r0, r4, #0
    2ef8:	4e18      	ldr	r6, [pc, #96]	; (2f5c <xQueueGenericCreate+0xc4>)
    2efa:	47b0      	blx	r6
    2efc:	4d13      	ldr	r5, [pc, #76]	; (2f4c <xQueueGenericCreate+0xb4>)
    2efe:	5c28      	ldrb	r0, [r5, r0]
    2f00:	4b17      	ldr	r3, [pc, #92]	; (2f60 <xQueueGenericCreate+0xc8>)
    2f02:	4798      	blx	r3
    2f04:	64e0      	str	r0, [r4, #76]	; 0x4c
    2f06:	1c20      	adds	r0, r4, #0
    2f08:	47b0      	blx	r6
    2f0a:	5c2b      	ldrb	r3, [r5, r0]
    2f0c:	3318      	adds	r3, #24
    2f0e:	b2db      	uxtb	r3, r3
    2f10:	4699      	mov	r9, r3
    2f12:	1c20      	adds	r0, r4, #0
    2f14:	47b0      	blx	r6
    2f16:	5c28      	ldrb	r0, [r5, r0]
    2f18:	4680      	mov	r8, r0
    2f1a:	1c20      	adds	r0, r4, #0
    2f1c:	4f11      	ldr	r7, [pc, #68]	; (2f64 <xQueueGenericCreate+0xcc>)
    2f1e:	47b8      	blx	r7
    2f20:	1c02      	adds	r2, r0, #0
    2f22:	4648      	mov	r0, r9
    2f24:	4641      	mov	r1, r8
    2f26:	4b0a      	ldr	r3, [pc, #40]	; (2f50 <xQueueGenericCreate+0xb8>)
    2f28:	4798      	blx	r3
    2f2a:	1c20      	adds	r0, r4, #0
    2f2c:	47b0      	blx	r6
    2f2e:	5c2d      	ldrb	r5, [r5, r0]
    2f30:	1c20      	adds	r0, r4, #0
    2f32:	47b8      	blx	r7
    2f34:	1c01      	adds	r1, r0, #0
    2f36:	1c28      	adds	r0, r5, #0
    2f38:	2200      	movs	r2, #0
    2f3a:	4b0b      	ldr	r3, [pc, #44]	; (2f68 <xQueueGenericCreate+0xd0>)
    2f3c:	4798      	blx	r3
	}

	configASSERT( xReturn );

	return xReturn;
}
    2f3e:	1c20      	adds	r0, r4, #0
    2f40:	bc0c      	pop	{r2, r3}
    2f42:	4690      	mov	r8, r2
    2f44:	4699      	mov	r9, r3
    2f46:	bdf8      	pop	{r3, r4, r5, r6, r7, pc}
    2f48:	00002ba1 	.word	0x00002ba1
    2f4c:	20000008 	.word	0x20000008
    2f50:	00001b11 	.word	0x00001b11
    2f54:	00002c05 	.word	0x00002c05
    2f58:	00002e21 	.word	0x00002e21
    2f5c:	000021d5 	.word	0x000021d5
    2f60:	000012cd 	.word	0x000012cd
    2f64:	000021c5 	.word	0x000021c5
    2f68:	00002001 	.word	0x00002001

00002f6c <xQueueGenericSend>:

#endif /* configUSE_COUNTING_SEMAPHORES */
/*-----------------------------------------------------------*/

BaseType_t xQueueGenericSend( QueueHandle_t xQueue, const void * const pvItemToQueue, TickType_t xTicksToWait, const BaseType_t xCopyPosition )
{
    2f6c:	b5f0      	push	{r4, r5, r6, r7, lr}
    2f6e:	465f      	mov	r7, fp
    2f70:	4656      	mov	r6, sl
    2f72:	464d      	mov	r5, r9
    2f74:	4644      	mov	r4, r8
    2f76:	b4f0      	push	{r4, r5, r6, r7}
    2f78:	b085      	sub	sp, #20
    2f7a:	1c04      	adds	r4, r0, #0
    2f7c:	4688      	mov	r8, r1
    2f7e:	9201      	str	r2, [sp, #4]
    2f80:	1c1d      	adds	r5, r3, #0
BaseType_t xEntryTimeSet = pdFALSE;
TimeOut_t xTimeOut;
Queue_t * const pxQueue = ( Queue_t * ) xQueue;

	configASSERT( pxQueue );
    2f82:	2800      	cmp	r0, #0
    2f84:	d101      	bne.n	2f8a <xQueueGenericSend+0x1e>
    2f86:	b672      	cpsid	i
    2f88:	e7fe      	b.n	2f88 <xQueueGenericSend+0x1c>
	configASSERT( !( ( pvItemToQueue == NULL ) && ( pxQueue->uxItemSize != ( UBaseType_t ) 0U ) ) );
    2f8a:	2900      	cmp	r1, #0
    2f8c:	d104      	bne.n	2f98 <xQueueGenericSend+0x2c>
    2f8e:	6c03      	ldr	r3, [r0, #64]	; 0x40
    2f90:	2b00      	cmp	r3, #0
    2f92:	d001      	beq.n	2f98 <xQueueGenericSend+0x2c>
    2f94:	b672      	cpsid	i
    2f96:	e7fe      	b.n	2f96 <xQueueGenericSend+0x2a>
	configASSERT( !( ( xCopyPosition == queueOVERWRITE ) && ( pxQueue->uxLength != 1 ) ) );
    2f98:	2d02      	cmp	r5, #2
    2f9a:	d104      	bne.n	2fa6 <xQueueGenericSend+0x3a>
    2f9c:	6be2      	ldr	r2, [r4, #60]	; 0x3c
    2f9e:	2a01      	cmp	r2, #1
    2fa0:	d001      	beq.n	2fa6 <xQueueGenericSend+0x3a>
    2fa2:	b672      	cpsid	i
    2fa4:	e7fe      	b.n	2fa4 <xQueueGenericSend+0x38>
	#if ( ( INCLUDE_xTaskGetSchedulerState == 1 ) || ( configUSE_TIMERS == 1 ) )
	{
		configASSERT( !( ( xTaskGetSchedulerState() == taskSCHEDULER_SUSPENDED ) && ( xTicksToWait != 0 ) ) );
    2fa6:	4b73      	ldr	r3, [pc, #460]	; (3174 <xQueueGenericSend+0x208>)
    2fa8:	4798      	blx	r3
    2faa:	2800      	cmp	r0, #0
    2fac:	d102      	bne.n	2fb4 <xQueueGenericSend+0x48>
    2fae:	9b01      	ldr	r3, [sp, #4]
    2fb0:	2b00      	cmp	r3, #0
    2fb2:	d103      	bne.n	2fbc <xQueueGenericSend+0x50>

#endif /* configUSE_COUNTING_SEMAPHORES */
/*-----------------------------------------------------------*/

BaseType_t xQueueGenericSend( QueueHandle_t xQueue, const void * const pvItemToQueue, TickType_t xTicksToWait, const BaseType_t xCopyPosition )
{
    2fb4:	2600      	movs	r6, #0
	/* This function relaxes the coding standard somewhat to allow return
	statements within the function itself.  This is done in the interest
	of execution time efficiency. */
	for( ;; )
	{
		taskENTER_CRITICAL();
    2fb6:	4a70      	ldr	r2, [pc, #448]	; (3178 <xQueueGenericSend+0x20c>)
    2fb8:	4692      	mov	sl, r2
    2fba:	e001      	b.n	2fc0 <xQueueGenericSend+0x54>
	configASSERT( pxQueue );
	configASSERT( !( ( pvItemToQueue == NULL ) && ( pxQueue->uxItemSize != ( UBaseType_t ) 0U ) ) );
	configASSERT( !( ( xCopyPosition == queueOVERWRITE ) && ( pxQueue->uxLength != 1 ) ) );
	#if ( ( INCLUDE_xTaskGetSchedulerState == 1 ) || ( configUSE_TIMERS == 1 ) )
	{
		configASSERT( !( ( xTaskGetSchedulerState() == taskSCHEDULER_SUSPENDED ) && ( xTicksToWait != 0 ) ) );
    2fbc:	b672      	cpsid	i
    2fbe:	e7fe      	b.n	2fbe <xQueueGenericSend+0x52>
	/* This function relaxes the coding standard somewhat to allow return
	statements within the function itself.  This is done in the interest
	of execution time efficiency. */
	for( ;; )
	{
		taskENTER_CRITICAL();
    2fc0:	47d0      	blx	sl
		{
			/* Is there room on the queue now?  The running task must be
			the highest priority task wanting to access the queue.  If
			the head item in the queue is to be overwritten then it does
			not matter if the queue is full. */
			if( ( pxQueue->uxMessagesWaiting < pxQueue->uxLength ) || ( xCopyPosition == queueOVERWRITE ) )
    2fc2:	6ba3      	ldr	r3, [r4, #56]	; 0x38
    2fc4:	6be2      	ldr	r2, [r4, #60]	; 0x3c
    2fc6:	4293      	cmp	r3, r2
    2fc8:	d301      	bcc.n	2fce <xQueueGenericSend+0x62>
    2fca:	2d02      	cmp	r5, #2
    2fcc:	d149      	bne.n	3062 <xQueueGenericSend+0xf6>
			{
				traceQUEUE_SEND( pxQueue );
    2fce:	1c20      	adds	r0, r4, #0
    2fd0:	4f6a      	ldr	r7, [pc, #424]	; (317c <xQueueGenericSend+0x210>)
    2fd2:	47b8      	blx	r7
    2fd4:	4e6a      	ldr	r6, [pc, #424]	; (3180 <xQueueGenericSend+0x214>)
    2fd6:	5c33      	ldrb	r3, [r6, r0]
    2fd8:	3320      	adds	r3, #32
    2fda:	b2db      	uxtb	r3, r3
    2fdc:	469b      	mov	fp, r3
    2fde:	1c20      	adds	r0, r4, #0
    2fe0:	47b8      	blx	r7
    2fe2:	5c30      	ldrb	r0, [r6, r0]
    2fe4:	4682      	mov	sl, r0
    2fe6:	1c20      	adds	r0, r4, #0
    2fe8:	4b66      	ldr	r3, [pc, #408]	; (3184 <xQueueGenericSend+0x218>)
    2fea:	4699      	mov	r9, r3
    2fec:	4798      	blx	r3
    2fee:	1c02      	adds	r2, r0, #0
    2ff0:	4658      	mov	r0, fp
    2ff2:	4651      	mov	r1, sl
    2ff4:	4b64      	ldr	r3, [pc, #400]	; (3188 <xQueueGenericSend+0x21c>)
    2ff6:	4798      	blx	r3
    2ff8:	1c20      	adds	r0, r4, #0
    2ffa:	47b8      	blx	r7
    2ffc:	5c30      	ldrb	r0, [r6, r0]
    2ffe:	4682      	mov	sl, r0
    3000:	1c20      	adds	r0, r4, #0
    3002:	47c8      	blx	r9
    3004:	4681      	mov	r9, r0
    3006:	1c20      	adds	r0, r4, #0
    3008:	47b8      	blx	r7
    300a:	5c33      	ldrb	r3, [r6, r0]
    300c:	2b02      	cmp	r3, #2
    300e:	d003      	beq.n	3018 <xQueueGenericSend+0xac>
    3010:	6ba2      	ldr	r2, [r4, #56]	; 0x38
    3012:	3201      	adds	r2, #1
    3014:	b2d2      	uxtb	r2, r2
    3016:	e000      	b.n	301a <xQueueGenericSend+0xae>
    3018:	2200      	movs	r2, #0
    301a:	4650      	mov	r0, sl
    301c:	4649      	mov	r1, r9
    301e:	4b5b      	ldr	r3, [pc, #364]	; (318c <xQueueGenericSend+0x220>)
    3020:	4798      	blx	r3
				prvCopyDataToQueue( pxQueue, pvItemToQueue, xCopyPosition );
    3022:	1c20      	adds	r0, r4, #0
    3024:	4641      	mov	r1, r8
    3026:	1c2a      	adds	r2, r5, #0
    3028:	4b59      	ldr	r3, [pc, #356]	; (3190 <xQueueGenericSend+0x224>)
    302a:	4798      	blx	r3

				#if ( configUSE_QUEUE_SETS == 1 )
				{
					if( pxQueue->pxQueueSetContainer != NULL )
    302c:	6d62      	ldr	r2, [r4, #84]	; 0x54
    302e:	2a00      	cmp	r2, #0
    3030:	d008      	beq.n	3044 <xQueueGenericSend+0xd8>
					{
						if( prvNotifyQueueSetContainer( pxQueue, xCopyPosition ) == pdTRUE )
    3032:	1c20      	adds	r0, r4, #0
    3034:	1c29      	adds	r1, r5, #0
    3036:	4b57      	ldr	r3, [pc, #348]	; (3194 <xQueueGenericSend+0x228>)
    3038:	4798      	blx	r3
    303a:	2801      	cmp	r0, #1
    303c:	d10d      	bne.n	305a <xQueueGenericSend+0xee>
						{
							/* The queue is a member of a queue set, and posting
							to the queue set caused a higher priority task to
							unblock. A context switch is required. */
							queueYIELD_IF_USING_PREEMPTION();
    303e:	4b56      	ldr	r3, [pc, #344]	; (3198 <xQueueGenericSend+0x22c>)
    3040:	4798      	blx	r3
    3042:	e00a      	b.n	305a <xQueueGenericSend+0xee>
					}
					else
					{
						/* If there was a task waiting for data to arrive on the
						queue then unblock it now. */
						if( listLIST_IS_EMPTY( &( pxQueue->xTasksWaitingToReceive ) ) == pdFALSE )
    3044:	6a63      	ldr	r3, [r4, #36]	; 0x24
    3046:	2b00      	cmp	r3, #0
    3048:	d007      	beq.n	305a <xQueueGenericSend+0xee>
						{
							if( xTaskRemoveFromEventList( &( pxQueue->xTasksWaitingToReceive ) ) == pdTRUE )
    304a:	1c20      	adds	r0, r4, #0
    304c:	3024      	adds	r0, #36	; 0x24
    304e:	4b53      	ldr	r3, [pc, #332]	; (319c <xQueueGenericSend+0x230>)
    3050:	4798      	blx	r3
    3052:	2801      	cmp	r0, #1
    3054:	d101      	bne.n	305a <xQueueGenericSend+0xee>
							{
								/* The unblocked task has a priority higher than
								our own so yield immediately.  Yes it is ok to
								do this from within the critical section - the
								kernel takes care of that. */
								queueYIELD_IF_USING_PREEMPTION();
    3056:	4b50      	ldr	r3, [pc, #320]	; (3198 <xQueueGenericSend+0x22c>)
    3058:	4798      	blx	r3
						mtCOVERAGE_TEST_MARKER();
					}
				}
				#endif /* configUSE_QUEUE_SETS */

				taskEXIT_CRITICAL();
    305a:	4b51      	ldr	r3, [pc, #324]	; (31a0 <xQueueGenericSend+0x234>)
    305c:	4798      	blx	r3

				/* Return to the original privilege level before exiting the
				function. */
				return pdPASS;
    305e:	2001      	movs	r0, #1
    3060:	e081      	b.n	3166 <xQueueGenericSend+0x1fa>
			}
			else
			{
				if( xTicksToWait == ( TickType_t ) 0 )
    3062:	9a01      	ldr	r2, [sp, #4]
    3064:	2a00      	cmp	r2, #0
    3066:	d115      	bne.n	3094 <xQueueGenericSend+0x128>
				{
					/* The queue was full and no block time is specified (or
					the block time has expired) so leave now. */
					taskEXIT_CRITICAL();
    3068:	4b4d      	ldr	r3, [pc, #308]	; (31a0 <xQueueGenericSend+0x234>)
    306a:	4798      	blx	r3

					/* Return to the original privilege level before exiting
					the function. */
					traceQUEUE_SEND_FAILED( pxQueue );
    306c:	1c20      	adds	r0, r4, #0
    306e:	4e43      	ldr	r6, [pc, #268]	; (317c <xQueueGenericSend+0x210>)
    3070:	47b0      	blx	r6
    3072:	4d43      	ldr	r5, [pc, #268]	; (3180 <xQueueGenericSend+0x214>)
    3074:	5c2f      	ldrb	r7, [r5, r0]
    3076:	3748      	adds	r7, #72	; 0x48
    3078:	b2ff      	uxtb	r7, r7
    307a:	1c20      	adds	r0, r4, #0
    307c:	47b0      	blx	r6
    307e:	5c2d      	ldrb	r5, [r5, r0]
    3080:	1c20      	adds	r0, r4, #0
    3082:	4b40      	ldr	r3, [pc, #256]	; (3184 <xQueueGenericSend+0x218>)
    3084:	4798      	blx	r3
    3086:	1c02      	adds	r2, r0, #0
    3088:	1c38      	adds	r0, r7, #0
    308a:	1c29      	adds	r1, r5, #0
    308c:	4b3e      	ldr	r3, [pc, #248]	; (3188 <xQueueGenericSend+0x21c>)
    308e:	4798      	blx	r3
					return errQUEUE_FULL;
    3090:	2000      	movs	r0, #0
    3092:	e068      	b.n	3166 <xQueueGenericSend+0x1fa>
				}
				else if( xEntryTimeSet == pdFALSE )
    3094:	2e00      	cmp	r6, #0
    3096:	d103      	bne.n	30a0 <xQueueGenericSend+0x134>
				{
					/* The queue was full and a block time was specified so
					configure the timeout structure. */
					vTaskSetTimeOutState( &xTimeOut );
    3098:	a802      	add	r0, sp, #8
    309a:	4b42      	ldr	r3, [pc, #264]	; (31a4 <xQueueGenericSend+0x238>)
    309c:	4798      	blx	r3
					xEntryTimeSet = pdTRUE;
    309e:	2601      	movs	r6, #1
					/* Entry time was already set. */
					mtCOVERAGE_TEST_MARKER();
				}
			}
		}
		taskEXIT_CRITICAL();
    30a0:	4a3f      	ldr	r2, [pc, #252]	; (31a0 <xQueueGenericSend+0x234>)
    30a2:	4790      	blx	r2

		/* Interrupts and other tasks can send to and receive from the queue
		now the critical section has been exited. */

		vTaskSuspendAll();
    30a4:	4b40      	ldr	r3, [pc, #256]	; (31a8 <xQueueGenericSend+0x23c>)
    30a6:	4798      	blx	r3
		prvLockQueue( pxQueue );
    30a8:	4b33      	ldr	r3, [pc, #204]	; (3178 <xQueueGenericSend+0x20c>)
    30aa:	4798      	blx	r3
    30ac:	6c63      	ldr	r3, [r4, #68]	; 0x44
    30ae:	3301      	adds	r3, #1
    30b0:	d101      	bne.n	30b6 <xQueueGenericSend+0x14a>
    30b2:	2300      	movs	r3, #0
    30b4:	6463      	str	r3, [r4, #68]	; 0x44
    30b6:	6ca3      	ldr	r3, [r4, #72]	; 0x48
    30b8:	3301      	adds	r3, #1
    30ba:	d101      	bne.n	30c0 <xQueueGenericSend+0x154>
    30bc:	2300      	movs	r3, #0
    30be:	64a3      	str	r3, [r4, #72]	; 0x48
    30c0:	4b37      	ldr	r3, [pc, #220]	; (31a0 <xQueueGenericSend+0x234>)
    30c2:	4798      	blx	r3

		/* Update the timeout state to see if it has expired yet. */
		if( xTaskCheckForTimeOut( &xTimeOut, &xTicksToWait ) == pdFALSE )
    30c4:	a802      	add	r0, sp, #8
    30c6:	a901      	add	r1, sp, #4
    30c8:	4b38      	ldr	r3, [pc, #224]	; (31ac <xQueueGenericSend+0x240>)
    30ca:	4798      	blx	r3
    30cc:	2800      	cmp	r0, #0
    30ce:	d132      	bne.n	3136 <xQueueGenericSend+0x1ca>

static BaseType_t prvIsQueueFull( const Queue_t *pxQueue )
{
BaseType_t xReturn;

	taskENTER_CRITICAL();
    30d0:	4b29      	ldr	r3, [pc, #164]	; (3178 <xQueueGenericSend+0x20c>)
    30d2:	4798      	blx	r3
	{
		if( pxQueue->uxMessagesWaiting == pxQueue->uxLength )
    30d4:	6ba3      	ldr	r3, [r4, #56]	; 0x38
    30d6:	4699      	mov	r9, r3
    30d8:	6be7      	ldr	r7, [r4, #60]	; 0x3c
		else
		{
			xReturn = pdFALSE;
		}
	}
	taskEXIT_CRITICAL();
    30da:	4b31      	ldr	r3, [pc, #196]	; (31a0 <xQueueGenericSend+0x234>)
    30dc:	4798      	blx	r3
		prvLockQueue( pxQueue );

		/* Update the timeout state to see if it has expired yet. */
		if( xTaskCheckForTimeOut( &xTimeOut, &xTicksToWait ) == pdFALSE )
		{
			if( prvIsQueueFull( pxQueue ) != pdFALSE )
    30de:	45b9      	cmp	r9, r7
    30e0:	d123      	bne.n	312a <xQueueGenericSend+0x1be>
			{
				traceBLOCKING_ON_QUEUE_SEND( pxQueue );
    30e2:	1c20      	adds	r0, r4, #0
    30e4:	4a25      	ldr	r2, [pc, #148]	; (317c <xQueueGenericSend+0x210>)
    30e6:	4691      	mov	r9, r2
    30e8:	4790      	blx	r2
    30ea:	4f25      	ldr	r7, [pc, #148]	; (3180 <xQueueGenericSend+0x214>)
    30ec:	5c3b      	ldrb	r3, [r7, r0]
    30ee:	3370      	adds	r3, #112	; 0x70
    30f0:	b2db      	uxtb	r3, r3
    30f2:	469b      	mov	fp, r3
    30f4:	1c20      	adds	r0, r4, #0
    30f6:	47c8      	blx	r9
    30f8:	5c3f      	ldrb	r7, [r7, r0]
    30fa:	1c20      	adds	r0, r4, #0
    30fc:	4b21      	ldr	r3, [pc, #132]	; (3184 <xQueueGenericSend+0x218>)
    30fe:	4798      	blx	r3
    3100:	1c02      	adds	r2, r0, #0
    3102:	4658      	mov	r0, fp
    3104:	1c39      	adds	r1, r7, #0
    3106:	4b20      	ldr	r3, [pc, #128]	; (3188 <xQueueGenericSend+0x21c>)
    3108:	4798      	blx	r3
				vTaskPlaceOnEventList( &( pxQueue->xTasksWaitingToSend ), xTicksToWait );
    310a:	1c20      	adds	r0, r4, #0
    310c:	3010      	adds	r0, #16
    310e:	9901      	ldr	r1, [sp, #4]
    3110:	4b27      	ldr	r3, [pc, #156]	; (31b0 <xQueueGenericSend+0x244>)
    3112:	4798      	blx	r3
				/* Unlocking the queue means queue events can effect the
				event list.  It is possible	that interrupts occurring now
				remove this task from the event	list again - but as the
				scheduler is suspended the task will go onto the pending
				ready last instead of the actual ready list. */
				prvUnlockQueue( pxQueue );
    3114:	1c20      	adds	r0, r4, #0
    3116:	4b27      	ldr	r3, [pc, #156]	; (31b4 <xQueueGenericSend+0x248>)
    3118:	4798      	blx	r3
				/* Resuming the scheduler will move tasks from the pending
				ready list into the ready list - so it is feasible that this
				task is already in a ready list before it yields - in which
				case the yield will not cause a context switch unless there
				is also a higher priority task in the pending ready list. */
				if( xTaskResumeAll() == pdFALSE )
    311a:	4b27      	ldr	r3, [pc, #156]	; (31b8 <xQueueGenericSend+0x24c>)
    311c:	4798      	blx	r3
    311e:	2800      	cmp	r0, #0
    3120:	d000      	beq.n	3124 <xQueueGenericSend+0x1b8>
    3122:	e74d      	b.n	2fc0 <xQueueGenericSend+0x54>
				{
					portYIELD_WITHIN_API();
    3124:	4b1c      	ldr	r3, [pc, #112]	; (3198 <xQueueGenericSend+0x22c>)
    3126:	4798      	blx	r3
    3128:	e74a      	b.n	2fc0 <xQueueGenericSend+0x54>
				}
			}
			else
			{
				/* Try again. */
				prvUnlockQueue( pxQueue );
    312a:	1c20      	adds	r0, r4, #0
    312c:	4b21      	ldr	r3, [pc, #132]	; (31b4 <xQueueGenericSend+0x248>)
    312e:	4798      	blx	r3
				( void ) xTaskResumeAll();
    3130:	4b21      	ldr	r3, [pc, #132]	; (31b8 <xQueueGenericSend+0x24c>)
    3132:	4798      	blx	r3
    3134:	e744      	b.n	2fc0 <xQueueGenericSend+0x54>
			}
		}
		else
		{
			/* The timeout has expired. */
			prvUnlockQueue( pxQueue );
    3136:	1c20      	adds	r0, r4, #0
    3138:	4b1e      	ldr	r3, [pc, #120]	; (31b4 <xQueueGenericSend+0x248>)
    313a:	4798      	blx	r3
			( void ) xTaskResumeAll();
    313c:	4b1e      	ldr	r3, [pc, #120]	; (31b8 <xQueueGenericSend+0x24c>)
    313e:	4798      	blx	r3

			/* Return to the original privilege level before exiting the
			function. */
			traceQUEUE_SEND_FAILED( pxQueue );
    3140:	1c20      	adds	r0, r4, #0
    3142:	4e0e      	ldr	r6, [pc, #56]	; (317c <xQueueGenericSend+0x210>)
    3144:	47b0      	blx	r6
    3146:	4d0e      	ldr	r5, [pc, #56]	; (3180 <xQueueGenericSend+0x214>)
    3148:	5c2f      	ldrb	r7, [r5, r0]
    314a:	3748      	adds	r7, #72	; 0x48
    314c:	b2ff      	uxtb	r7, r7
    314e:	1c20      	adds	r0, r4, #0
    3150:	47b0      	blx	r6
    3152:	5c2d      	ldrb	r5, [r5, r0]
    3154:	1c20      	adds	r0, r4, #0
    3156:	4b0b      	ldr	r3, [pc, #44]	; (3184 <xQueueGenericSend+0x218>)
    3158:	4798      	blx	r3
    315a:	1c02      	adds	r2, r0, #0
    315c:	1c38      	adds	r0, r7, #0
    315e:	1c29      	adds	r1, r5, #0
    3160:	4b09      	ldr	r3, [pc, #36]	; (3188 <xQueueGenericSend+0x21c>)
    3162:	4798      	blx	r3
			return errQUEUE_FULL;
    3164:	2000      	movs	r0, #0
		}
	}
}
    3166:	b005      	add	sp, #20
    3168:	bc3c      	pop	{r2, r3, r4, r5}
    316a:	4690      	mov	r8, r2
    316c:	4699      	mov	r9, r3
    316e:	46a2      	mov	sl, r4
    3170:	46ab      	mov	fp, r5
    3172:	bdf0      	pop	{r4, r5, r6, r7, pc}
    3174:	00004151 	.word	0x00004151
    3178:	00002a7d 	.word	0x00002a7d
    317c:	000021d5 	.word	0x000021d5
    3180:	20000008 	.word	0x20000008
    3184:	000021c5 	.word	0x000021c5
    3188:	00001b11 	.word	0x00001b11
    318c:	00002001 	.word	0x00002001
    3190:	00002c11 	.word	0x00002c11
    3194:	00002c89 	.word	0x00002c89
    3198:	00002a65 	.word	0x00002a65
    319c:	0000400d 	.word	0x0000400d
    31a0:	00002a95 	.word	0x00002a95
    31a4:	0000409d 	.word	0x0000409d
    31a8:	00003ad1 	.word	0x00003ad1
    31ac:	000040bd 	.word	0x000040bd
    31b0:	00003f59 	.word	0x00003f59
    31b4:	00002d79 	.word	0x00002d79
    31b8:	00003c6d 	.word	0x00003c6d

000031bc <xQueueGenericSendFromISR>:

#endif /* configUSE_ALTERNATIVE_API */
/*-----------------------------------------------------------*/

BaseType_t xQueueGenericSendFromISR( QueueHandle_t xQueue, const void * const pvItemToQueue, BaseType_t * const pxHigherPriorityTaskWoken, const BaseType_t xCopyPosition )
{
    31bc:	b5f0      	push	{r4, r5, r6, r7, lr}
    31be:	465f      	mov	r7, fp
    31c0:	4656      	mov	r6, sl
    31c2:	464d      	mov	r5, r9
    31c4:	4644      	mov	r4, r8
    31c6:	b4f0      	push	{r4, r5, r6, r7}
    31c8:	b083      	sub	sp, #12
    31ca:	1c04      	adds	r4, r0, #0
    31cc:	468a      	mov	sl, r1
    31ce:	1c15      	adds	r5, r2, #0
    31d0:	1c1e      	adds	r6, r3, #0
BaseType_t xReturn;
UBaseType_t uxSavedInterruptStatus;
Queue_t * const pxQueue = ( Queue_t * ) xQueue;

	configASSERT( pxQueue );
    31d2:	2800      	cmp	r0, #0
    31d4:	d101      	bne.n	31da <xQueueGenericSendFromISR+0x1e>
    31d6:	b672      	cpsid	i
    31d8:	e7fe      	b.n	31d8 <xQueueGenericSendFromISR+0x1c>
	configASSERT( !( ( pvItemToQueue == NULL ) && ( pxQueue->uxItemSize != ( UBaseType_t ) 0U ) ) );
    31da:	2900      	cmp	r1, #0
    31dc:	d104      	bne.n	31e8 <xQueueGenericSendFromISR+0x2c>
    31de:	6c03      	ldr	r3, [r0, #64]	; 0x40
    31e0:	2b00      	cmp	r3, #0
    31e2:	d001      	beq.n	31e8 <xQueueGenericSendFromISR+0x2c>
    31e4:	b672      	cpsid	i
    31e6:	e7fe      	b.n	31e6 <xQueueGenericSendFromISR+0x2a>
	configASSERT( !( ( xCopyPosition == queueOVERWRITE ) && ( pxQueue->uxLength != 1 ) ) );
    31e8:	2e02      	cmp	r6, #2
    31ea:	d169      	bne.n	32c0 <xQueueGenericSendFromISR+0x104>
    31ec:	6be2      	ldr	r2, [r4, #60]	; 0x3c
    31ee:	2a01      	cmp	r2, #1
    31f0:	d06e      	beq.n	32d0 <xQueueGenericSendFromISR+0x114>
    31f2:	b672      	cpsid	i
    31f4:	e7fe      	b.n	31f4 <xQueueGenericSendFromISR+0x38>
	post). */
	uxSavedInterruptStatus = portSET_INTERRUPT_MASK_FROM_ISR();
	{
		if( ( pxQueue->uxMessagesWaiting < pxQueue->uxLength ) || ( xCopyPosition == queueOVERWRITE ) )
		{
			traceQUEUE_SEND_FROM_ISR( pxQueue );
    31f6:	1c20      	adds	r0, r4, #0
    31f8:	4b3d      	ldr	r3, [pc, #244]	; (32f0 <xQueueGenericSendFromISR+0x134>)
    31fa:	4698      	mov	r8, r3
    31fc:	4798      	blx	r3
    31fe:	4f3d      	ldr	r7, [pc, #244]	; (32f4 <xQueueGenericSendFromISR+0x138>)
    3200:	5c3b      	ldrb	r3, [r7, r0]
    3202:	3330      	adds	r3, #48	; 0x30
    3204:	b2db      	uxtb	r3, r3
    3206:	9300      	str	r3, [sp, #0]
    3208:	1c20      	adds	r0, r4, #0
    320a:	47c0      	blx	r8
    320c:	5c38      	ldrb	r0, [r7, r0]
    320e:	9001      	str	r0, [sp, #4]
    3210:	1c20      	adds	r0, r4, #0
    3212:	4a39      	ldr	r2, [pc, #228]	; (32f8 <xQueueGenericSendFromISR+0x13c>)
    3214:	4693      	mov	fp, r2
    3216:	4790      	blx	r2
    3218:	1c02      	adds	r2, r0, #0
    321a:	9800      	ldr	r0, [sp, #0]
    321c:	9901      	ldr	r1, [sp, #4]
    321e:	4b37      	ldr	r3, [pc, #220]	; (32fc <xQueueGenericSendFromISR+0x140>)
    3220:	4798      	blx	r3
    3222:	1c20      	adds	r0, r4, #0
    3224:	47c0      	blx	r8
    3226:	5c3f      	ldrb	r7, [r7, r0]
    3228:	1c20      	adds	r0, r4, #0
    322a:	47d8      	blx	fp
    322c:	1c01      	adds	r1, r0, #0
    322e:	6ba2      	ldr	r2, [r4, #56]	; 0x38
    3230:	3201      	adds	r2, #1
    3232:	b2d2      	uxtb	r2, r2
    3234:	1c38      	adds	r0, r7, #0
    3236:	4b32      	ldr	r3, [pc, #200]	; (3300 <xQueueGenericSendFromISR+0x144>)
    3238:	4798      	blx	r3

			prvCopyDataToQueue( pxQueue, pvItemToQueue, xCopyPosition );
    323a:	1c20      	adds	r0, r4, #0
    323c:	4651      	mov	r1, sl
    323e:	1c32      	adds	r2, r6, #0
    3240:	4b30      	ldr	r3, [pc, #192]	; (3304 <xQueueGenericSendFromISR+0x148>)
    3242:	4798      	blx	r3

			/* The event list is not altered if the queue is locked.  This will
			be done when the queue is unlocked later. */
			if( pxQueue->xTxLock == queueUNLOCKED )
    3244:	6ca3      	ldr	r3, [r4, #72]	; 0x48
    3246:	3301      	adds	r3, #1
    3248:	d11d      	bne.n	3286 <xQueueGenericSendFromISR+0xca>
			{
				#if ( configUSE_QUEUE_SETS == 1 )
				{
					if( pxQueue->pxQueueSetContainer != NULL )
    324a:	6d63      	ldr	r3, [r4, #84]	; 0x54
    324c:	2b00      	cmp	r3, #0
    324e:	d00b      	beq.n	3268 <xQueueGenericSendFromISR+0xac>
					{
						if( prvNotifyQueueSetContainer( pxQueue, xCopyPosition ) == pdTRUE )
    3250:	1c20      	adds	r0, r4, #0
    3252:	1c31      	adds	r1, r6, #0
    3254:	4b2c      	ldr	r3, [pc, #176]	; (3308 <xQueueGenericSendFromISR+0x14c>)
    3256:	4798      	blx	r3
				/* Increment the lock count so the task that unlocks the queue
				knows that data was posted while it was locked. */
				++( pxQueue->xTxLock );
			}

			xReturn = pdPASS;
    3258:	2601      	movs	r6, #1
			{
				#if ( configUSE_QUEUE_SETS == 1 )
				{
					if( pxQueue->pxQueueSetContainer != NULL )
					{
						if( prvNotifyQueueSetContainer( pxQueue, xCopyPosition ) == pdTRUE )
    325a:	2801      	cmp	r0, #1
    325c:	d13d      	bne.n	32da <xQueueGenericSendFromISR+0x11e>
						{
							/* The queue is a member of a queue set, and posting
							to the queue set caused a higher priority task to
							unblock.  A context switch is required. */
							if( pxHigherPriorityTaskWoken != NULL )
    325e:	2d00      	cmp	r5, #0
    3260:	d02a      	beq.n	32b8 <xQueueGenericSendFromISR+0xfc>
							{
								*pxHigherPriorityTaskWoken = pdTRUE;
    3262:	2301      	movs	r3, #1
    3264:	602b      	str	r3, [r5, #0]
    3266:	e038      	b.n	32da <xQueueGenericSendFromISR+0x11e>
				/* Increment the lock count so the task that unlocks the queue
				knows that data was posted while it was locked. */
				++( pxQueue->xTxLock );
			}

			xReturn = pdPASS;
    3268:	2601      	movs	r6, #1
							mtCOVERAGE_TEST_MARKER();
						}
					}
					else
					{
						if( listLIST_IS_EMPTY( &( pxQueue->xTasksWaitingToReceive ) ) == pdFALSE )
    326a:	6a62      	ldr	r2, [r4, #36]	; 0x24
    326c:	2a00      	cmp	r2, #0
    326e:	d034      	beq.n	32da <xQueueGenericSendFromISR+0x11e>
						{
							if( xTaskRemoveFromEventList( &( pxQueue->xTasksWaitingToReceive ) ) != pdFALSE )
    3270:	1c20      	adds	r0, r4, #0
    3272:	3024      	adds	r0, #36	; 0x24
    3274:	4b25      	ldr	r3, [pc, #148]	; (330c <xQueueGenericSendFromISR+0x150>)
    3276:	4798      	blx	r3
    3278:	2800      	cmp	r0, #0
    327a:	d02e      	beq.n	32da <xQueueGenericSendFromISR+0x11e>
							{
								/* The task waiting has a higher priority so record that a
								context	switch is required. */
								if( pxHigherPriorityTaskWoken != NULL )
    327c:	2d00      	cmp	r5, #0
    327e:	d01d      	beq.n	32bc <xQueueGenericSendFromISR+0x100>
								{
									*pxHigherPriorityTaskWoken = pdTRUE;
    3280:	2301      	movs	r3, #1
    3282:	602b      	str	r3, [r5, #0]
    3284:	e029      	b.n	32da <xQueueGenericSendFromISR+0x11e>
			}
			else
			{
				/* Increment the lock count so the task that unlocks the queue
				knows that data was posted while it was locked. */
				++( pxQueue->xTxLock );
    3286:	6ca3      	ldr	r3, [r4, #72]	; 0x48
    3288:	3301      	adds	r3, #1
    328a:	64a3      	str	r3, [r4, #72]	; 0x48
			}

			xReturn = pdPASS;
    328c:	2601      	movs	r6, #1
    328e:	e024      	b.n	32da <xQueueGenericSendFromISR+0x11e>
		}
		else
		{
			traceQUEUE_SEND_FROM_ISR_FAILED( pxQueue );
    3290:	1c20      	adds	r0, r4, #0
    3292:	4e17      	ldr	r6, [pc, #92]	; (32f0 <xQueueGenericSendFromISR+0x134>)
    3294:	47b0      	blx	r6
    3296:	4d17      	ldr	r5, [pc, #92]	; (32f4 <xQueueGenericSendFromISR+0x138>)
    3298:	5c2f      	ldrb	r7, [r5, r0]
    329a:	3758      	adds	r7, #88	; 0x58
    329c:	b2ff      	uxtb	r7, r7
    329e:	1c20      	adds	r0, r4, #0
    32a0:	47b0      	blx	r6
    32a2:	5c2d      	ldrb	r5, [r5, r0]
    32a4:	1c20      	adds	r0, r4, #0
    32a6:	4b14      	ldr	r3, [pc, #80]	; (32f8 <xQueueGenericSendFromISR+0x13c>)
    32a8:	4798      	blx	r3
    32aa:	1c02      	adds	r2, r0, #0
    32ac:	1c38      	adds	r0, r7, #0
    32ae:	1c29      	adds	r1, r5, #0
    32b0:	4b12      	ldr	r3, [pc, #72]	; (32fc <xQueueGenericSendFromISR+0x140>)
    32b2:	4798      	blx	r3
			xReturn = errQUEUE_FULL;
    32b4:	2600      	movs	r6, #0
    32b6:	e010      	b.n	32da <xQueueGenericSendFromISR+0x11e>
				/* Increment the lock count so the task that unlocks the queue
				knows that data was posted while it was locked. */
				++( pxQueue->xTxLock );
			}

			xReturn = pdPASS;
    32b8:	2601      	movs	r6, #1
    32ba:	e00e      	b.n	32da <xQueueGenericSendFromISR+0x11e>
    32bc:	2601      	movs	r6, #1
    32be:	e00c      	b.n	32da <xQueueGenericSendFromISR+0x11e>
	/* Similar to xQueueGenericSend, except without blocking if there is no room
	in the queue.  Also don't directly wake a task that was blocked on a queue
	read, instead return a flag to say whether a context switch is required or
	not (i.e. has a task with a higher priority than us been woken by this
	post). */
	uxSavedInterruptStatus = portSET_INTERRUPT_MASK_FROM_ISR();
    32c0:	4b13      	ldr	r3, [pc, #76]	; (3310 <xQueueGenericSendFromISR+0x154>)
    32c2:	4798      	blx	r3
    32c4:	4681      	mov	r9, r0
	{
		if( ( pxQueue->uxMessagesWaiting < pxQueue->uxLength ) || ( xCopyPosition == queueOVERWRITE ) )
    32c6:	6ba3      	ldr	r3, [r4, #56]	; 0x38
    32c8:	6be2      	ldr	r2, [r4, #60]	; 0x3c
    32ca:	4293      	cmp	r3, r2
    32cc:	d2e0      	bcs.n	3290 <xQueueGenericSendFromISR+0xd4>
    32ce:	e792      	b.n	31f6 <xQueueGenericSendFromISR+0x3a>
	/* Similar to xQueueGenericSend, except without blocking if there is no room
	in the queue.  Also don't directly wake a task that was blocked on a queue
	read, instead return a flag to say whether a context switch is required or
	not (i.e. has a task with a higher priority than us been woken by this
	post). */
	uxSavedInterruptStatus = portSET_INTERRUPT_MASK_FROM_ISR();
    32d0:	4b0f      	ldr	r3, [pc, #60]	; (3310 <xQueueGenericSendFromISR+0x154>)
    32d2:	4798      	blx	r3
    32d4:	4681      	mov	r9, r0
	{
		if( ( pxQueue->uxMessagesWaiting < pxQueue->uxLength ) || ( xCopyPosition == queueOVERWRITE ) )
    32d6:	6ba3      	ldr	r3, [r4, #56]	; 0x38
    32d8:	e78d      	b.n	31f6 <xQueueGenericSendFromISR+0x3a>
		{
			traceQUEUE_SEND_FROM_ISR_FAILED( pxQueue );
			xReturn = errQUEUE_FULL;
		}
	}
	portCLEAR_INTERRUPT_MASK_FROM_ISR( uxSavedInterruptStatus );
    32da:	4648      	mov	r0, r9
    32dc:	4b0d      	ldr	r3, [pc, #52]	; (3314 <xQueueGenericSendFromISR+0x158>)
    32de:	4798      	blx	r3

	return xReturn;
}
    32e0:	1c30      	adds	r0, r6, #0
    32e2:	b003      	add	sp, #12
    32e4:	bc3c      	pop	{r2, r3, r4, r5}
    32e6:	4690      	mov	r8, r2
    32e8:	4699      	mov	r9, r3
    32ea:	46a2      	mov	sl, r4
    32ec:	46ab      	mov	fp, r5
    32ee:	bdf0      	pop	{r4, r5, r6, r7, pc}
    32f0:	000021d5 	.word	0x000021d5
    32f4:	20000008 	.word	0x20000008
    32f8:	000021c5 	.word	0x000021c5
    32fc:	00001b11 	.word	0x00001b11
    3300:	00002001 	.word	0x00002001
    3304:	00002c11 	.word	0x00002c11
    3308:	00002c89 	.word	0x00002c89
    330c:	0000400d 	.word	0x0000400d
    3310:	00002ab5 	.word	0x00002ab5
    3314:	00002ac1 	.word	0x00002ac1

00003318 <xQueueGenericReceive>:
/*-----------------------------------------------------------*/

BaseType_t xQueueGenericReceive( QueueHandle_t xQueue, void * const pvBuffer, TickType_t xTicksToWait, const BaseType_t xJustPeeking )
{
    3318:	b5f0      	push	{r4, r5, r6, r7, lr}
    331a:	465f      	mov	r7, fp
    331c:	4656      	mov	r6, sl
    331e:	464d      	mov	r5, r9
    3320:	4644      	mov	r4, r8
    3322:	b4f0      	push	{r4, r5, r6, r7}
    3324:	b085      	sub	sp, #20
    3326:	1c04      	adds	r4, r0, #0
    3328:	1c0f      	adds	r7, r1, #0
    332a:	9201      	str	r2, [sp, #4]
    332c:	9300      	str	r3, [sp, #0]
BaseType_t xEntryTimeSet = pdFALSE;
TimeOut_t xTimeOut;
int8_t *pcOriginalReadPosition;
Queue_t * const pxQueue = ( Queue_t * ) xQueue;

	configASSERT( pxQueue );
    332e:	2800      	cmp	r0, #0
    3330:	d101      	bne.n	3336 <xQueueGenericReceive+0x1e>
    3332:	b672      	cpsid	i
    3334:	e7fe      	b.n	3334 <xQueueGenericReceive+0x1c>
	configASSERT( !( ( pvBuffer == NULL ) && ( pxQueue->uxItemSize != ( UBaseType_t ) 0U ) ) );
    3336:	2900      	cmp	r1, #0
    3338:	d104      	bne.n	3344 <xQueueGenericReceive+0x2c>
    333a:	6c03      	ldr	r3, [r0, #64]	; 0x40
    333c:	2b00      	cmp	r3, #0
    333e:	d001      	beq.n	3344 <xQueueGenericReceive+0x2c>
    3340:	b672      	cpsid	i
    3342:	e7fe      	b.n	3342 <xQueueGenericReceive+0x2a>
	#if ( ( INCLUDE_xTaskGetSchedulerState == 1 ) || ( configUSE_TIMERS == 1 ) )
	{
		configASSERT( !( ( xTaskGetSchedulerState() == taskSCHEDULER_SUSPENDED ) && ( xTicksToWait != 0 ) ) );
    3344:	4b8e      	ldr	r3, [pc, #568]	; (3580 <xQueueGenericReceive+0x268>)
    3346:	4798      	blx	r3
    3348:	2800      	cmp	r0, #0
    334a:	d102      	bne.n	3352 <xQueueGenericReceive+0x3a>
    334c:	9b01      	ldr	r3, [sp, #4]
    334e:	2b00      	cmp	r3, #0
    3350:	d104      	bne.n	335c <xQueueGenericReceive+0x44>
	return xReturn;
}
/*-----------------------------------------------------------*/

BaseType_t xQueueGenericReceive( QueueHandle_t xQueue, void * const pvBuffer, TickType_t xTicksToWait, const BaseType_t xJustPeeking )
{
    3352:	2300      	movs	r3, #0
    3354:	4698      	mov	r8, r3
	statements within the function itself.  This is done in the interest
	of execution time efficiency. */

	for( ;; )
	{
		taskENTER_CRITICAL();
    3356:	4b8b      	ldr	r3, [pc, #556]	; (3584 <xQueueGenericReceive+0x26c>)
    3358:	4699      	mov	r9, r3
    335a:	e001      	b.n	3360 <xQueueGenericReceive+0x48>

	configASSERT( pxQueue );
	configASSERT( !( ( pvBuffer == NULL ) && ( pxQueue->uxItemSize != ( UBaseType_t ) 0U ) ) );
	#if ( ( INCLUDE_xTaskGetSchedulerState == 1 ) || ( configUSE_TIMERS == 1 ) )
	{
		configASSERT( !( ( xTaskGetSchedulerState() == taskSCHEDULER_SUSPENDED ) && ( xTicksToWait != 0 ) ) );
    335c:	b672      	cpsid	i
    335e:	e7fe      	b.n	335e <xQueueGenericReceive+0x46>
	statements within the function itself.  This is done in the interest
	of execution time efficiency. */

	for( ;; )
	{
		taskENTER_CRITICAL();
    3360:	47c8      	blx	r9
		{
			/* Is there data in the queue now?  To be running we must be
			the highest priority task wanting to access the queue. */
			if( pxQueue->uxMessagesWaiting > ( UBaseType_t ) 0 )
    3362:	6ba3      	ldr	r3, [r4, #56]	; 0x38
    3364:	2b00      	cmp	r3, #0
    3366:	d06d      	beq.n	3444 <xQueueGenericReceive+0x12c>
			{
				/* Remember the read position in case the queue is only being
				peeked. */
				pcOriginalReadPosition = pxQueue->u.pcReadFrom;
    3368:	68e3      	ldr	r3, [r4, #12]
    336a:	4698      	mov	r8, r3

				prvCopyDataFromQueue( pxQueue, pvBuffer );
    336c:	1c20      	adds	r0, r4, #0
    336e:	1c39      	adds	r1, r7, #0
    3370:	4b85      	ldr	r3, [pc, #532]	; (3588 <xQueueGenericReceive+0x270>)
    3372:	4798      	blx	r3

				if( xJustPeeking == pdFALSE )
    3374:	9b00      	ldr	r3, [sp, #0]
    3376:	2b00      	cmp	r3, #0
    3378:	d141      	bne.n	33fe <xQueueGenericReceive+0xe6>
				{
					traceQUEUE_RECEIVE( pxQueue );
    337a:	1c20      	adds	r0, r4, #0
    337c:	4e83      	ldr	r6, [pc, #524]	; (358c <xQueueGenericReceive+0x274>)
    337e:	47b0      	blx	r6
    3380:	4d83      	ldr	r5, [pc, #524]	; (3590 <xQueueGenericReceive+0x278>)
    3382:	5c2b      	ldrb	r3, [r5, r0]
    3384:	3328      	adds	r3, #40	; 0x28
    3386:	b2db      	uxtb	r3, r3
    3388:	4699      	mov	r9, r3
    338a:	1c20      	adds	r0, r4, #0
    338c:	47b0      	blx	r6
    338e:	5c28      	ldrb	r0, [r5, r0]
    3390:	4680      	mov	r8, r0
    3392:	1c20      	adds	r0, r4, #0
    3394:	4f7f      	ldr	r7, [pc, #508]	; (3594 <xQueueGenericReceive+0x27c>)
    3396:	47b8      	blx	r7
    3398:	1c02      	adds	r2, r0, #0
    339a:	4648      	mov	r0, r9
    339c:	4641      	mov	r1, r8
    339e:	4b7e      	ldr	r3, [pc, #504]	; (3598 <xQueueGenericReceive+0x280>)
    33a0:	4798      	blx	r3
    33a2:	1c20      	adds	r0, r4, #0
    33a4:	47b0      	blx	r6
    33a6:	5c28      	ldrb	r0, [r5, r0]
    33a8:	4680      	mov	r8, r0
    33aa:	1c20      	adds	r0, r4, #0
    33ac:	47b8      	blx	r7
    33ae:	1c07      	adds	r7, r0, #0
    33b0:	1c20      	adds	r0, r4, #0
    33b2:	47b0      	blx	r6
    33b4:	5c2b      	ldrb	r3, [r5, r0]
    33b6:	2b02      	cmp	r3, #2
    33b8:	d105      	bne.n	33c6 <xQueueGenericReceive+0xae>
    33ba:	4b78      	ldr	r3, [pc, #480]	; (359c <xQueueGenericReceive+0x284>)
    33bc:	4798      	blx	r3
    33be:	4b78      	ldr	r3, [pc, #480]	; (35a0 <xQueueGenericReceive+0x288>)
    33c0:	4798      	blx	r3
    33c2:	1c02      	adds	r2, r0, #0
    33c4:	e002      	b.n	33cc <xQueueGenericReceive+0xb4>
    33c6:	6ba2      	ldr	r2, [r4, #56]	; 0x38
    33c8:	3a01      	subs	r2, #1
    33ca:	b2d2      	uxtb	r2, r2
    33cc:	4640      	mov	r0, r8
    33ce:	1c39      	adds	r1, r7, #0
    33d0:	4b74      	ldr	r3, [pc, #464]	; (35a4 <xQueueGenericReceive+0x28c>)
    33d2:	4798      	blx	r3

					/* Actually removing data, not just peeking. */
					--( pxQueue->uxMessagesWaiting );
    33d4:	6ba3      	ldr	r3, [r4, #56]	; 0x38
    33d6:	3b01      	subs	r3, #1
    33d8:	63a3      	str	r3, [r4, #56]	; 0x38

					#if ( configUSE_MUTEXES == 1 )
					{
						if( pxQueue->uxQueueType == queueQUEUE_IS_MUTEX )
    33da:	6823      	ldr	r3, [r4, #0]
    33dc:	2b00      	cmp	r3, #0
    33de:	d102      	bne.n	33e6 <xQueueGenericReceive+0xce>
						{
							/* Record the information required to implement
							priority inheritance should it become necessary. */
							pxQueue->pxMutexHolder = ( int8_t * ) xTaskGetCurrentTaskHandle(); /*lint !e961 Cast is not redundant as TaskHandle_t is a typedef. */
    33e0:	4b71      	ldr	r3, [pc, #452]	; (35a8 <xQueueGenericReceive+0x290>)
    33e2:	4798      	blx	r3
    33e4:	6060      	str	r0, [r4, #4]
							mtCOVERAGE_TEST_MARKER();
						}
					}
					#endif

					if( listLIST_IS_EMPTY( &( pxQueue->xTasksWaitingToSend ) ) == pdFALSE )
    33e6:	6923      	ldr	r3, [r4, #16]
    33e8:	2b00      	cmp	r3, #0
    33ea:	d027      	beq.n	343c <xQueueGenericReceive+0x124>
					{
						if( xTaskRemoveFromEventList( &( pxQueue->xTasksWaitingToSend ) ) == pdTRUE )
    33ec:	1c20      	adds	r0, r4, #0
    33ee:	3010      	adds	r0, #16
    33f0:	4b6e      	ldr	r3, [pc, #440]	; (35ac <xQueueGenericReceive+0x294>)
    33f2:	4798      	blx	r3
    33f4:	2801      	cmp	r0, #1
    33f6:	d121      	bne.n	343c <xQueueGenericReceive+0x124>
						{
							queueYIELD_IF_USING_PREEMPTION();
    33f8:	4b6d      	ldr	r3, [pc, #436]	; (35b0 <xQueueGenericReceive+0x298>)
    33fa:	4798      	blx	r3
    33fc:	e01e      	b.n	343c <xQueueGenericReceive+0x124>
						mtCOVERAGE_TEST_MARKER();
					}
				}
				else
				{
					traceQUEUE_PEEK( pxQueue );
    33fe:	1c20      	adds	r0, r4, #0
    3400:	4e62      	ldr	r6, [pc, #392]	; (358c <xQueueGenericReceive+0x274>)
    3402:	47b0      	blx	r6
    3404:	4d62      	ldr	r5, [pc, #392]	; (3590 <xQueueGenericReceive+0x278>)
    3406:	5c2f      	ldrb	r7, [r5, r0]
    3408:	3778      	adds	r7, #120	; 0x78
    340a:	b2ff      	uxtb	r7, r7
    340c:	1c20      	adds	r0, r4, #0
    340e:	47b0      	blx	r6
    3410:	5c2d      	ldrb	r5, [r5, r0]
    3412:	1c20      	adds	r0, r4, #0
    3414:	4b5f      	ldr	r3, [pc, #380]	; (3594 <xQueueGenericReceive+0x27c>)
    3416:	4798      	blx	r3
    3418:	1c02      	adds	r2, r0, #0
    341a:	1c38      	adds	r0, r7, #0
    341c:	1c29      	adds	r1, r5, #0
    341e:	4b5e      	ldr	r3, [pc, #376]	; (3598 <xQueueGenericReceive+0x280>)
    3420:	4798      	blx	r3

					/* The data is not being removed, so reset the read
					pointer. */
					pxQueue->u.pcReadFrom = pcOriginalReadPosition;
    3422:	4643      	mov	r3, r8
    3424:	60e3      	str	r3, [r4, #12]

					/* The data is being left in the queue, so see if there are
					any other tasks waiting for the data. */
					if( listLIST_IS_EMPTY( &( pxQueue->xTasksWaitingToReceive ) ) == pdFALSE )
    3426:	6a63      	ldr	r3, [r4, #36]	; 0x24
    3428:	2b00      	cmp	r3, #0
    342a:	d007      	beq.n	343c <xQueueGenericReceive+0x124>
					{
						/* Tasks that are removed from the event list will get added to
						the pending ready list as the scheduler is still suspended. */
						if( xTaskRemoveFromEventList( &( pxQueue->xTasksWaitingToReceive ) ) != pdFALSE )
    342c:	1c20      	adds	r0, r4, #0
    342e:	3024      	adds	r0, #36	; 0x24
    3430:	4b5e      	ldr	r3, [pc, #376]	; (35ac <xQueueGenericReceive+0x294>)
    3432:	4798      	blx	r3
    3434:	2800      	cmp	r0, #0
    3436:	d001      	beq.n	343c <xQueueGenericReceive+0x124>
						{
							/* The task waiting has a higher priority than this task. */
							queueYIELD_IF_USING_PREEMPTION();
    3438:	4b5d      	ldr	r3, [pc, #372]	; (35b0 <xQueueGenericReceive+0x298>)
    343a:	4798      	blx	r3
					{
						mtCOVERAGE_TEST_MARKER();
					}
				}

				taskEXIT_CRITICAL();
    343c:	4b5d      	ldr	r3, [pc, #372]	; (35b4 <xQueueGenericReceive+0x29c>)
    343e:	4798      	blx	r3
				return pdPASS;
    3440:	2001      	movs	r0, #1
    3442:	e096      	b.n	3572 <xQueueGenericReceive+0x25a>
			}
			else
			{
				if( xTicksToWait == ( TickType_t ) 0 )
    3444:	9b01      	ldr	r3, [sp, #4]
    3446:	2b00      	cmp	r3, #0
    3448:	d115      	bne.n	3476 <xQueueGenericReceive+0x15e>
				{
					/* The queue was empty and no block time is specified (or
					the block time has expired) so leave now. */
					taskEXIT_CRITICAL();
    344a:	4b5a      	ldr	r3, [pc, #360]	; (35b4 <xQueueGenericReceive+0x29c>)
    344c:	4798      	blx	r3
					traceQUEUE_RECEIVE_FAILED( pxQueue );
    344e:	1c20      	adds	r0, r4, #0
    3450:	4e4e      	ldr	r6, [pc, #312]	; (358c <xQueueGenericReceive+0x274>)
    3452:	47b0      	blx	r6
    3454:	4d4e      	ldr	r5, [pc, #312]	; (3590 <xQueueGenericReceive+0x278>)
    3456:	5c2f      	ldrb	r7, [r5, r0]
    3458:	3750      	adds	r7, #80	; 0x50
    345a:	b2ff      	uxtb	r7, r7
    345c:	1c20      	adds	r0, r4, #0
    345e:	47b0      	blx	r6
    3460:	5c2d      	ldrb	r5, [r5, r0]
    3462:	1c20      	adds	r0, r4, #0
    3464:	4b4b      	ldr	r3, [pc, #300]	; (3594 <xQueueGenericReceive+0x27c>)
    3466:	4798      	blx	r3
    3468:	1c02      	adds	r2, r0, #0
    346a:	1c38      	adds	r0, r7, #0
    346c:	1c29      	adds	r1, r5, #0
    346e:	4b4a      	ldr	r3, [pc, #296]	; (3598 <xQueueGenericReceive+0x280>)
    3470:	4798      	blx	r3
					return errQUEUE_EMPTY;
    3472:	2000      	movs	r0, #0
    3474:	e07d      	b.n	3572 <xQueueGenericReceive+0x25a>
				}
				else if( xEntryTimeSet == pdFALSE )
    3476:	4643      	mov	r3, r8
    3478:	2b00      	cmp	r3, #0
    347a:	d104      	bne.n	3486 <xQueueGenericReceive+0x16e>
				{
					/* The queue was empty and a block time was specified so
					configure the timeout structure. */
					vTaskSetTimeOutState( &xTimeOut );
    347c:	a802      	add	r0, sp, #8
    347e:	4b4e      	ldr	r3, [pc, #312]	; (35b8 <xQueueGenericReceive+0x2a0>)
    3480:	4798      	blx	r3
					xEntryTimeSet = pdTRUE;
    3482:	2301      	movs	r3, #1
    3484:	4698      	mov	r8, r3
					/* Entry time was already set. */
					mtCOVERAGE_TEST_MARKER();
				}
			}
		}
		taskEXIT_CRITICAL();
    3486:	4b4b      	ldr	r3, [pc, #300]	; (35b4 <xQueueGenericReceive+0x29c>)
    3488:	4798      	blx	r3

		/* Interrupts and other tasks can send to and receive from the queue
		now the critical section has been exited. */

		vTaskSuspendAll();
    348a:	4b4c      	ldr	r3, [pc, #304]	; (35bc <xQueueGenericReceive+0x2a4>)
    348c:	4798      	blx	r3
		prvLockQueue( pxQueue );
    348e:	4b3d      	ldr	r3, [pc, #244]	; (3584 <xQueueGenericReceive+0x26c>)
    3490:	4798      	blx	r3
    3492:	6c63      	ldr	r3, [r4, #68]	; 0x44
    3494:	3301      	adds	r3, #1
    3496:	d101      	bne.n	349c <xQueueGenericReceive+0x184>
    3498:	2300      	movs	r3, #0
    349a:	6463      	str	r3, [r4, #68]	; 0x44
    349c:	6ca3      	ldr	r3, [r4, #72]	; 0x48
    349e:	3301      	adds	r3, #1
    34a0:	d101      	bne.n	34a6 <xQueueGenericReceive+0x18e>
    34a2:	2300      	movs	r3, #0
    34a4:	64a3      	str	r3, [r4, #72]	; 0x48
    34a6:	4b43      	ldr	r3, [pc, #268]	; (35b4 <xQueueGenericReceive+0x29c>)
    34a8:	4798      	blx	r3

		/* Update the timeout state to see if it has expired yet. */
		if( xTaskCheckForTimeOut( &xTimeOut, &xTicksToWait ) == pdFALSE )
    34aa:	a802      	add	r0, sp, #8
    34ac:	a901      	add	r1, sp, #4
    34ae:	4b44      	ldr	r3, [pc, #272]	; (35c0 <xQueueGenericReceive+0x2a8>)
    34b0:	4798      	blx	r3
    34b2:	2800      	cmp	r0, #0
    34b4:	d145      	bne.n	3542 <xQueueGenericReceive+0x22a>

static BaseType_t prvIsQueueEmpty( const Queue_t *pxQueue )
{
BaseType_t xReturn;

	taskENTER_CRITICAL();
    34b6:	4b33      	ldr	r3, [pc, #204]	; (3584 <xQueueGenericReceive+0x26c>)
    34b8:	4798      	blx	r3
	{
		if( pxQueue->uxMessagesWaiting == ( UBaseType_t )  0 )
    34ba:	6ba5      	ldr	r5, [r4, #56]	; 0x38
		else
		{
			xReturn = pdFALSE;
		}
	}
	taskEXIT_CRITICAL();
    34bc:	4b3d      	ldr	r3, [pc, #244]	; (35b4 <xQueueGenericReceive+0x29c>)
    34be:	4798      	blx	r3
		prvLockQueue( pxQueue );

		/* Update the timeout state to see if it has expired yet. */
		if( xTaskCheckForTimeOut( &xTimeOut, &xTicksToWait ) == pdFALSE )
		{
			if( prvIsQueueEmpty( pxQueue ) != pdFALSE )
    34c0:	2d00      	cmp	r5, #0
    34c2:	d138      	bne.n	3536 <xQueueGenericReceive+0x21e>
			{
				traceBLOCKING_ON_QUEUE_RECEIVE( pxQueue );
    34c4:	1c20      	adds	r0, r4, #0
    34c6:	4e31      	ldr	r6, [pc, #196]	; (358c <xQueueGenericReceive+0x274>)
    34c8:	47b0      	blx	r6
    34ca:	4d31      	ldr	r5, [pc, #196]	; (3590 <xQueueGenericReceive+0x278>)
    34cc:	5c2b      	ldrb	r3, [r5, r0]
    34ce:	3368      	adds	r3, #104	; 0x68
    34d0:	b2db      	uxtb	r3, r3
    34d2:	469b      	mov	fp, r3
    34d4:	1c20      	adds	r0, r4, #0
    34d6:	47b0      	blx	r6
    34d8:	5c28      	ldrb	r0, [r5, r0]
    34da:	4682      	mov	sl, r0
    34dc:	1c20      	adds	r0, r4, #0
    34de:	4b2d      	ldr	r3, [pc, #180]	; (3594 <xQueueGenericReceive+0x27c>)
    34e0:	4798      	blx	r3
    34e2:	1c02      	adds	r2, r0, #0
    34e4:	4658      	mov	r0, fp
    34e6:	4651      	mov	r1, sl
    34e8:	4b2b      	ldr	r3, [pc, #172]	; (3598 <xQueueGenericReceive+0x280>)
    34ea:	4798      	blx	r3
    34ec:	1c20      	adds	r0, r4, #0
    34ee:	47b0      	blx	r6
    34f0:	5c2b      	ldrb	r3, [r5, r0]
    34f2:	2b02      	cmp	r3, #2
    34f4:	d005      	beq.n	3502 <xQueueGenericReceive+0x1ea>
    34f6:	4b29      	ldr	r3, [pc, #164]	; (359c <xQueueGenericReceive+0x284>)
    34f8:	4798      	blx	r3
    34fa:	4b29      	ldr	r3, [pc, #164]	; (35a0 <xQueueGenericReceive+0x288>)
    34fc:	4798      	blx	r3
    34fe:	4b31      	ldr	r3, [pc, #196]	; (35c4 <xQueueGenericReceive+0x2ac>)
    3500:	4798      	blx	r3

				#if ( configUSE_MUTEXES == 1 )
				{
					if( pxQueue->uxQueueType == queueQUEUE_IS_MUTEX )
    3502:	6823      	ldr	r3, [r4, #0]
    3504:	2b00      	cmp	r3, #0
    3506:	d106      	bne.n	3516 <xQueueGenericReceive+0x1fe>
					{
						taskENTER_CRITICAL();
    3508:	4b1e      	ldr	r3, [pc, #120]	; (3584 <xQueueGenericReceive+0x26c>)
    350a:	4798      	blx	r3
						{
							vTaskPriorityInherit( ( void * ) pxQueue->pxMutexHolder );
    350c:	6860      	ldr	r0, [r4, #4]
    350e:	4b2e      	ldr	r3, [pc, #184]	; (35c8 <xQueueGenericReceive+0x2b0>)
    3510:	4798      	blx	r3
						}
						taskEXIT_CRITICAL();
    3512:	4b28      	ldr	r3, [pc, #160]	; (35b4 <xQueueGenericReceive+0x29c>)
    3514:	4798      	blx	r3
						mtCOVERAGE_TEST_MARKER();
					}
				}
				#endif

				vTaskPlaceOnEventList( &( pxQueue->xTasksWaitingToReceive ), xTicksToWait );
    3516:	1c20      	adds	r0, r4, #0
    3518:	3024      	adds	r0, #36	; 0x24
    351a:	9901      	ldr	r1, [sp, #4]
    351c:	4b2b      	ldr	r3, [pc, #172]	; (35cc <xQueueGenericReceive+0x2b4>)
    351e:	4798      	blx	r3
				prvUnlockQueue( pxQueue );
    3520:	1c20      	adds	r0, r4, #0
    3522:	4b2b      	ldr	r3, [pc, #172]	; (35d0 <xQueueGenericReceive+0x2b8>)
    3524:	4798      	blx	r3
				if( xTaskResumeAll() == pdFALSE )
    3526:	4b2b      	ldr	r3, [pc, #172]	; (35d4 <xQueueGenericReceive+0x2bc>)
    3528:	4798      	blx	r3
    352a:	2800      	cmp	r0, #0
    352c:	d000      	beq.n	3530 <xQueueGenericReceive+0x218>
    352e:	e717      	b.n	3360 <xQueueGenericReceive+0x48>
				{
					portYIELD_WITHIN_API();
    3530:	4b1f      	ldr	r3, [pc, #124]	; (35b0 <xQueueGenericReceive+0x298>)
    3532:	4798      	blx	r3
    3534:	e714      	b.n	3360 <xQueueGenericReceive+0x48>
				}
			}
			else
			{
				/* Try again. */
				prvUnlockQueue( pxQueue );
    3536:	1c20      	adds	r0, r4, #0
    3538:	4b25      	ldr	r3, [pc, #148]	; (35d0 <xQueueGenericReceive+0x2b8>)
    353a:	4798      	blx	r3
				( void ) xTaskResumeAll();
    353c:	4b25      	ldr	r3, [pc, #148]	; (35d4 <xQueueGenericReceive+0x2bc>)
    353e:	4798      	blx	r3
    3540:	e70e      	b.n	3360 <xQueueGenericReceive+0x48>
			}
		}
		else
		{
			prvUnlockQueue( pxQueue );
    3542:	1c20      	adds	r0, r4, #0
    3544:	4b22      	ldr	r3, [pc, #136]	; (35d0 <xQueueGenericReceive+0x2b8>)
    3546:	4798      	blx	r3
			( void ) xTaskResumeAll();
    3548:	4b22      	ldr	r3, [pc, #136]	; (35d4 <xQueueGenericReceive+0x2bc>)
    354a:	4798      	blx	r3
			traceQUEUE_RECEIVE_FAILED( pxQueue );
    354c:	1c20      	adds	r0, r4, #0
    354e:	4e0f      	ldr	r6, [pc, #60]	; (358c <xQueueGenericReceive+0x274>)
    3550:	47b0      	blx	r6
    3552:	4d0f      	ldr	r5, [pc, #60]	; (3590 <xQueueGenericReceive+0x278>)
    3554:	5c2f      	ldrb	r7, [r5, r0]
    3556:	3750      	adds	r7, #80	; 0x50
    3558:	b2ff      	uxtb	r7, r7
    355a:	1c20      	adds	r0, r4, #0
    355c:	47b0      	blx	r6
    355e:	5c2d      	ldrb	r5, [r5, r0]
    3560:	1c20      	adds	r0, r4, #0
    3562:	4b0c      	ldr	r3, [pc, #48]	; (3594 <xQueueGenericReceive+0x27c>)
    3564:	4798      	blx	r3
    3566:	1c02      	adds	r2, r0, #0
    3568:	1c38      	adds	r0, r7, #0
    356a:	1c29      	adds	r1, r5, #0
    356c:	4b0a      	ldr	r3, [pc, #40]	; (3598 <xQueueGenericReceive+0x280>)
    356e:	4798      	blx	r3
			return errQUEUE_EMPTY;
    3570:	2000      	movs	r0, #0
		}
	}
}
    3572:	b005      	add	sp, #20
    3574:	bc3c      	pop	{r2, r3, r4, r5}
    3576:	4690      	mov	r8, r2
    3578:	4699      	mov	r9, r3
    357a:	46a2      	mov	sl, r4
    357c:	46ab      	mov	fp, r5
    357e:	bdf0      	pop	{r4, r5, r6, r7, pc}
    3580:	00004151 	.word	0x00004151
    3584:	00002a7d 	.word	0x00002a7d
    3588:	00002d51 	.word	0x00002d51
    358c:	000021d5 	.word	0x000021d5
    3590:	20000008 	.word	0x20000008
    3594:	000021c5 	.word	0x000021c5
    3598:	00001b11 	.word	0x00001b11
    359c:	000021f1 	.word	0x000021f1
    35a0:	000021e1 	.word	0x000021e1
    35a4:	00002001 	.word	0x00002001
    35a8:	00004145 	.word	0x00004145
    35ac:	0000400d 	.word	0x0000400d
    35b0:	00002a65 	.word	0x00002a65
    35b4:	00002a95 	.word	0x00002a95
    35b8:	0000409d 	.word	0x0000409d
    35bc:	00003ad1 	.word	0x00003ad1
    35c0:	000040bd 	.word	0x000040bd
    35c4:	00002185 	.word	0x00002185
    35c8:	0000416d 	.word	0x0000416d
    35cc:	00003f59 	.word	0x00003f59
    35d0:	00002d79 	.word	0x00002d79
    35d4:	00003c6d 	.word	0x00003c6d

000035d8 <uxQueueGetQueueNumber>:

#if ( configUSE_TRACE_FACILITY == 1 )

	UBaseType_t uxQueueGetQueueNumber( QueueHandle_t xQueue )
	{
		return ( ( Queue_t * ) xQueue )->uxQueueNumber;
    35d8:	6cc0      	ldr	r0, [r0, #76]	; 0x4c
	}
    35da:	4770      	bx	lr

000035dc <ucQueueGetQueueType>:

#if ( configUSE_TRACE_FACILITY == 1 )

	uint8_t ucQueueGetQueueType( QueueHandle_t xQueue )
	{
		return ( ( Queue_t * ) xQueue )->ucQueueType;
    35dc:	2350      	movs	r3, #80	; 0x50
    35de:	5cc0      	ldrb	r0, [r0, r3]
	}
    35e0:	4770      	bx	lr
    35e2:	46c0      	nop			; (mov r8, r8)

000035e4 <vQueueWaitForMessageRestricted>:
/*-----------------------------------------------------------*/

#if ( configUSE_TIMERS == 1 )

	void vQueueWaitForMessageRestricted( QueueHandle_t xQueue, TickType_t xTicksToWait )
	{
    35e4:	b538      	push	{r3, r4, r5, lr}
    35e6:	1c04      	adds	r4, r0, #0
    35e8:	1c0d      	adds	r5, r1, #0
		will not actually cause the task to block, just place it on a blocked
		list.  It will not block until the scheduler is unlocked - at which
		time a yield will be performed.  If an item is added to the queue while
		the queue is locked, and the calling task blocks on the queue, then the
		calling task will be immediately unblocked when the queue is unlocked. */
		prvLockQueue( pxQueue );
    35ea:	4b0d      	ldr	r3, [pc, #52]	; (3620 <vQueueWaitForMessageRestricted+0x3c>)
    35ec:	4798      	blx	r3
    35ee:	6c63      	ldr	r3, [r4, #68]	; 0x44
    35f0:	3301      	adds	r3, #1
    35f2:	d101      	bne.n	35f8 <vQueueWaitForMessageRestricted+0x14>
    35f4:	2300      	movs	r3, #0
    35f6:	6463      	str	r3, [r4, #68]	; 0x44
    35f8:	6ca3      	ldr	r3, [r4, #72]	; 0x48
    35fa:	3301      	adds	r3, #1
    35fc:	d101      	bne.n	3602 <vQueueWaitForMessageRestricted+0x1e>
    35fe:	2300      	movs	r3, #0
    3600:	64a3      	str	r3, [r4, #72]	; 0x48
    3602:	4b08      	ldr	r3, [pc, #32]	; (3624 <vQueueWaitForMessageRestricted+0x40>)
    3604:	4798      	blx	r3
		if( pxQueue->uxMessagesWaiting == ( UBaseType_t ) 0U )
    3606:	6ba3      	ldr	r3, [r4, #56]	; 0x38
    3608:	2b00      	cmp	r3, #0
    360a:	d104      	bne.n	3616 <vQueueWaitForMessageRestricted+0x32>
		{
			/* There is nothing in the queue, block for the specified period. */
			vTaskPlaceOnEventListRestricted( &( pxQueue->xTasksWaitingToReceive ), xTicksToWait );
    360c:	1c20      	adds	r0, r4, #0
    360e:	3024      	adds	r0, #36	; 0x24
    3610:	1c29      	adds	r1, r5, #0
    3612:	4b05      	ldr	r3, [pc, #20]	; (3628 <vQueueWaitForMessageRestricted+0x44>)
    3614:	4798      	blx	r3
		}
		else
		{
			mtCOVERAGE_TEST_MARKER();
		}
		prvUnlockQueue( pxQueue );
    3616:	1c20      	adds	r0, r4, #0
    3618:	4b04      	ldr	r3, [pc, #16]	; (362c <vQueueWaitForMessageRestricted+0x48>)
    361a:	4798      	blx	r3
	}
    361c:	bd38      	pop	{r3, r4, r5, pc}
    361e:	46c0      	nop			; (mov r8, r8)
    3620:	00002a7d 	.word	0x00002a7d
    3624:	00002a95 	.word	0x00002a95
    3628:	00003fa9 	.word	0x00003fa9
    362c:	00002d79 	.word	0x00002d79

00003630 <prvTaskIsTaskSuspended>:

		/* Accesses xPendingReadyList so must be called from a critical
		section. */

		/* It does not make sense to check if the calling task is suspended. */
		configASSERT( xTask );
    3630:	2800      	cmp	r0, #0
    3632:	d101      	bne.n	3638 <prvTaskIsTaskSuspended+0x8>
    3634:	b672      	cpsid	i
    3636:	e7fe      	b.n	3636 <prvTaskIsTaskSuspended+0x6>

#if ( INCLUDE_vTaskSuspend == 1 )

	static BaseType_t prvTaskIsTaskSuspended( const TaskHandle_t xTask )
	{
	BaseType_t xReturn = pdFALSE;
    3638:	2300      	movs	r3, #0

		/* It does not make sense to check if the calling task is suspended. */
		configASSERT( xTask );

		/* Is the task being resumed actually in the suspended list? */
		if( listIS_CONTAINED_WITHIN( &xSuspendedTaskList, &( pxTCB->xGenericListItem ) ) != pdFALSE )
    363a:	4a07      	ldr	r2, [pc, #28]	; (3658 <prvTaskIsTaskSuspended+0x28>)
    363c:	6941      	ldr	r1, [r0, #20]
    363e:	4291      	cmp	r1, r2
    3640:	d107      	bne.n	3652 <prvTaskIsTaskSuspended+0x22>
		{
			/* Has the task already been resumed from within an ISR? */
			if( listIS_CONTAINED_WITHIN( &xPendingReadyList, &( pxTCB->xEventListItem ) ) == pdFALSE )
    3642:	6a83      	ldr	r3, [r0, #40]	; 0x28
    3644:	3214      	adds	r2, #20
    3646:	4293      	cmp	r3, r2
    3648:	d002      	beq.n	3650 <prvTaskIsTaskSuspended+0x20>

#if ( INCLUDE_vTaskSuspend == 1 )

	static BaseType_t prvTaskIsTaskSuspended( const TaskHandle_t xTask )
	{
	BaseType_t xReturn = pdFALSE;
    364a:	425a      	negs	r2, r3
    364c:	4153      	adcs	r3, r2
    364e:	e000      	b.n	3652 <prvTaskIsTaskSuspended+0x22>
    3650:	2300      	movs	r3, #0
		{
			mtCOVERAGE_TEST_MARKER();
		}

		return xReturn;
	} /*lint !e818 xTask cannot be a pointer to const because it is a typedef. */
    3652:	1c18      	adds	r0, r3, #0
    3654:	4770      	bx	lr
    3656:	46c0      	nop			; (mov r8, r8)
    3658:	20001524 	.word	0x20001524

0000365c <prvResetNextTaskUnblockTime>:

static void prvResetNextTaskUnblockTime( void )
{
TCB_t *pxTCB;

	if( listLIST_IS_EMPTY( pxDelayedTaskList ) != pdFALSE )
    365c:	4b08      	ldr	r3, [pc, #32]	; (3680 <prvResetNextTaskUnblockTime+0x24>)
    365e:	6a9b      	ldr	r3, [r3, #40]	; 0x28
    3660:	681b      	ldr	r3, [r3, #0]
    3662:	2b00      	cmp	r3, #0
    3664:	d104      	bne.n	3670 <prvResetNextTaskUnblockTime+0x14>
		/* The new current delayed list is empty.  Set
		xNextTaskUnblockTime to the maximum possible value so it is
		extremely unlikely that the
		if( xTickCount >= xNextTaskUnblockTime ) test will pass until
		there is an item in the delayed list. */
		xNextTaskUnblockTime = portMAX_DELAY;
    3666:	2201      	movs	r2, #1
    3668:	4252      	negs	r2, r2
    366a:	4b06      	ldr	r3, [pc, #24]	; (3684 <prvResetNextTaskUnblockTime+0x28>)
    366c:	601a      	str	r2, [r3, #0]
    366e:	e006      	b.n	367e <prvResetNextTaskUnblockTime+0x22>
	{
		/* The new current delayed list is not empty, get the value of
		the item at the head of the delayed list.  This is the time at
		which the task at the head of the delayed list should be removed
		from the Blocked state. */
		( pxTCB ) = ( TCB_t * ) listGET_OWNER_OF_HEAD_ENTRY( pxDelayedTaskList );
    3670:	4b03      	ldr	r3, [pc, #12]	; (3680 <prvResetNextTaskUnblockTime+0x24>)
    3672:	6a9b      	ldr	r3, [r3, #40]	; 0x28
    3674:	68db      	ldr	r3, [r3, #12]
		xNextTaskUnblockTime = listGET_LIST_ITEM_VALUE( &( ( pxTCB )->xGenericListItem ) );
    3676:	68db      	ldr	r3, [r3, #12]
    3678:	685a      	ldr	r2, [r3, #4]
    367a:	4b02      	ldr	r3, [pc, #8]	; (3684 <prvResetNextTaskUnblockTime+0x28>)
    367c:	601a      	str	r2, [r3, #0]
	}
}
    367e:	4770      	bx	lr
    3680:	20001524 	.word	0x20001524
    3684:	20000014 	.word	0x20000014

00003688 <prvAddCurrentTaskToDelayedList>:
	#endif /* vTaskDelete */
}
/*-----------------------------------------------------------*/

static void prvAddCurrentTaskToDelayedList( const TickType_t xTimeToWake )
{
    3688:	b510      	push	{r4, lr}
    368a:	1c04      	adds	r4, r0, #0
	/* The list item will be inserted in wake time order. */
	listSET_LIST_ITEM_VALUE( &( pxCurrentTCB->xGenericListItem ), xTimeToWake );
    368c:	4b0c      	ldr	r3, [pc, #48]	; (36c0 <prvAddCurrentTaskToDelayedList+0x38>)
    368e:	6ada      	ldr	r2, [r3, #44]	; 0x2c
    3690:	6050      	str	r0, [r2, #4]

	if( xTimeToWake < xTickCount )
    3692:	6b1b      	ldr	r3, [r3, #48]	; 0x30
    3694:	4298      	cmp	r0, r3
    3696:	d206      	bcs.n	36a6 <prvAddCurrentTaskToDelayedList+0x1e>
	{
		/* Wake time has overflowed.  Place this item in the overflow list. */
		vListInsert( pxOverflowDelayedTaskList, &( pxCurrentTCB->xGenericListItem ) );
    3698:	4b09      	ldr	r3, [pc, #36]	; (36c0 <prvAddCurrentTaskToDelayedList+0x38>)
    369a:	6b58      	ldr	r0, [r3, #52]	; 0x34
    369c:	6ad9      	ldr	r1, [r3, #44]	; 0x2c
    369e:	3104      	adds	r1, #4
    36a0:	4b08      	ldr	r3, [pc, #32]	; (36c4 <prvAddCurrentTaskToDelayedList+0x3c>)
    36a2:	4798      	blx	r3
    36a4:	e00b      	b.n	36be <prvAddCurrentTaskToDelayedList+0x36>
	}
	else
	{
		/* The wake time has not overflowed, so the current block list is used. */
		vListInsert( pxDelayedTaskList, &( pxCurrentTCB->xGenericListItem ) );
    36a6:	4b06      	ldr	r3, [pc, #24]	; (36c0 <prvAddCurrentTaskToDelayedList+0x38>)
    36a8:	6a98      	ldr	r0, [r3, #40]	; 0x28
    36aa:	6ad9      	ldr	r1, [r3, #44]	; 0x2c
    36ac:	3104      	adds	r1, #4
    36ae:	4b05      	ldr	r3, [pc, #20]	; (36c4 <prvAddCurrentTaskToDelayedList+0x3c>)
    36b0:	4798      	blx	r3

		/* If the task entering the blocked state was placed at the head of the
		list of blocked tasks then xNextTaskUnblockTime needs to be updated
		too. */
		if( xTimeToWake < xNextTaskUnblockTime )
    36b2:	4b05      	ldr	r3, [pc, #20]	; (36c8 <prvAddCurrentTaskToDelayedList+0x40>)
    36b4:	681b      	ldr	r3, [r3, #0]
    36b6:	429c      	cmp	r4, r3
    36b8:	d201      	bcs.n	36be <prvAddCurrentTaskToDelayedList+0x36>
		{
			xNextTaskUnblockTime = xTimeToWake;
    36ba:	4b03      	ldr	r3, [pc, #12]	; (36c8 <prvAddCurrentTaskToDelayedList+0x40>)
    36bc:	601c      	str	r4, [r3, #0]
		else
		{
			mtCOVERAGE_TEST_MARKER();
		}
	}
}
    36be:	bd10      	pop	{r4, pc}
    36c0:	20001524 	.word	0x20001524
    36c4:	000029b9 	.word	0x000029b9
    36c8:	20000014 	.word	0x20000014

000036cc <xTaskGenericCreate>:
static void prvResetNextTaskUnblockTime( void );

/*-----------------------------------------------------------*/

BaseType_t xTaskGenericCreate( TaskFunction_t pxTaskCode, const char * const pcName, const uint16_t usStackDepth, void * const pvParameters, UBaseType_t uxPriority, TaskHandle_t * const pxCreatedTask, StackType_t * const puxStackBuffer, const MemoryRegion_t * const xRegions ) /*lint !e971 Unqualified char types are allowed for strings and single characters only. */
{
    36cc:	b5f8      	push	{r3, r4, r5, r6, r7, lr}
    36ce:	465f      	mov	r7, fp
    36d0:	4656      	mov	r6, sl
    36d2:	464d      	mov	r5, r9
    36d4:	4644      	mov	r4, r8
    36d6:	b4f0      	push	{r4, r5, r6, r7}
    36d8:	4680      	mov	r8, r0
    36da:	1c0f      	adds	r7, r1, #0
    36dc:	1c16      	adds	r6, r2, #0
    36de:	469a      	mov	sl, r3
    36e0:	9d0a      	ldr	r5, [sp, #40]	; 0x28
BaseType_t xReturn;
TCB_t * pxNewTCB;

	configASSERT( pxTaskCode );
    36e2:	2800      	cmp	r0, #0
    36e4:	d101      	bne.n	36ea <xTaskGenericCreate+0x1e>
    36e6:	b672      	cpsid	i
    36e8:	e7fe      	b.n	36e8 <xTaskGenericCreate+0x1c>
	configASSERT( ( ( uxPriority & ( ~portPRIVILEGE_BIT ) ) < configMAX_PRIORITIES ) );
    36ea:	2d04      	cmp	r5, #4
    36ec:	d901      	bls.n	36f2 <xTaskGenericCreate+0x26>
    36ee:	b672      	cpsid	i
    36f0:	e7fe      	b.n	36f0 <xTaskGenericCreate+0x24>
{
TCB_t *pxNewTCB;

	/* Allocate space for the TCB.  Where the memory comes from depends on
	the implementation of the port malloc function. */
	pxNewTCB = ( TCB_t * ) pvPortMalloc( sizeof( TCB_t ) );
    36f2:	2048      	movs	r0, #72	; 0x48
    36f4:	4b75      	ldr	r3, [pc, #468]	; (38cc <xTaskGenericCreate+0x200>)
    36f6:	4798      	blx	r3
    36f8:	1e04      	subs	r4, r0, #0

	if( pxNewTCB != NULL )
    36fa:	d100      	bne.n	36fe <xTaskGenericCreate+0x32>
    36fc:	e0ac      	b.n	3858 <xTaskGenericCreate+0x18c>
	{
		/* Allocate space for the stack used by the task being created.
		The base of the stack memory stored in the TCB so the task can
		be deleted later if required. */
		pxNewTCB->pxStack = ( StackType_t * ) pvPortMallocAligned( ( ( ( size_t ) usStackDepth ) * sizeof( StackType_t ) ), puxStackBuffer ); /*lint !e961 MISRA exception as the casts are only redundant for some ports. */
    36fe:	990c      	ldr	r1, [sp, #48]	; 0x30
    3700:	2900      	cmp	r1, #0
    3702:	d000      	beq.n	3706 <xTaskGenericCreate+0x3a>
    3704:	e0a4      	b.n	3850 <xTaskGenericCreate+0x184>
    3706:	00b0      	lsls	r0, r6, #2
    3708:	4b70      	ldr	r3, [pc, #448]	; (38cc <xTaskGenericCreate+0x200>)
    370a:	4798      	blx	r3
    370c:	6320      	str	r0, [r4, #48]	; 0x30

		if( pxNewTCB->pxStack == NULL )
    370e:	2800      	cmp	r0, #0
    3710:	d103      	bne.n	371a <xTaskGenericCreate+0x4e>
		{
			/* Could not allocate the stack.  Delete the allocated TCB. */
			vPortFree( pxNewTCB );
    3712:	1c20      	adds	r0, r4, #0
    3714:	4b6e      	ldr	r3, [pc, #440]	; (38d0 <xTaskGenericCreate+0x204>)
    3716:	4798      	blx	r3
    3718:	e09e      	b.n	3858 <xTaskGenericCreate+0x18c>
		{
			/* Avoid dependency on memset() if it is not required. */
			#if( ( configCHECK_FOR_STACK_OVERFLOW > 1 ) || ( configUSE_TRACE_FACILITY == 1 ) || ( INCLUDE_uxTaskGetStackHighWaterMark == 1 ) )
			{
				/* Just to help debugging. */
				( void ) memset( pxNewTCB->pxStack, ( int ) tskSTACK_FILL_BYTE, ( size_t ) usStackDepth * sizeof( StackType_t ) );
    371a:	00b2      	lsls	r2, r6, #2
    371c:	21a5      	movs	r1, #165	; 0xa5
    371e:	4b6d      	ldr	r3, [pc, #436]	; (38d4 <xTaskGenericCreate+0x208>)
    3720:	4798      	blx	r3
		stack grows from high memory to low (as per the 80x86) or vice versa.
		portSTACK_GROWTH is used to make the result positive or negative as
		required by the port. */
		#if( portSTACK_GROWTH < 0 )
		{
			pxTopOfStack = pxNewTCB->pxStack + ( usStackDepth - ( uint16_t ) 1 );
    3722:	4a6d      	ldr	r2, [pc, #436]	; (38d8 <xTaskGenericCreate+0x20c>)
    3724:	18b3      	adds	r3, r6, r2
    3726:	009b      	lsls	r3, r3, #2
    3728:	6b21      	ldr	r1, [r4, #48]	; 0x30
    372a:	18cb      	adds	r3, r1, r3
			pxTopOfStack = ( StackType_t * ) ( ( ( portPOINTER_SIZE_TYPE ) pxTopOfStack ) & ( ( portPOINTER_SIZE_TYPE ) ~portBYTE_ALIGNMENT_MASK  ) ); /*lint !e923 MISRA exception.  Avoiding casts between pointers and integers is not practical.  Size differences accounted for using portPOINTER_SIZE_TYPE type. */
    372c:	2207      	movs	r2, #7
    372e:	4393      	bics	r3, r2
    3730:	469b      	mov	fp, r3
UBaseType_t x;

	/* Store the task name in the TCB. */
	for( x = ( UBaseType_t ) 0; x < ( UBaseType_t ) configMAX_TASK_NAME_LEN; x++ )
	{
		pxTCB->pcTaskName[ x ] = pcName[ x ];
    3732:	783a      	ldrb	r2, [r7, #0]
    3734:	2334      	movs	r3, #52	; 0x34
    3736:	54e2      	strb	r2, [r4, r3]

		/* Don't copy all configMAX_TASK_NAME_LEN if the string is shorter than
		configMAX_TASK_NAME_LEN characters just in case the memory after the
		string is not accessible (extremely unlikely). */
		if( pcName[ x ] == 0x00 )
    3738:	783b      	ldrb	r3, [r7, #0]
    373a:	2b00      	cmp	r3, #0
    373c:	d00a      	beq.n	3754 <xTaskGenericCreate+0x88>
static void prvInitialiseTCBVariables( TCB_t * const pxTCB, const char * const pcName, UBaseType_t uxPriority, const MemoryRegion_t * const xRegions, const uint16_t usStackDepth ) /*lint !e971 Unqualified char types are allowed for strings and single characters only. */
{
UBaseType_t x;

	/* Store the task name in the TCB. */
	for( x = ( UBaseType_t ) 0; x < ( UBaseType_t ) configMAX_TASK_NAME_LEN; x++ )
    373e:	2301      	movs	r3, #1
	{
		pxTCB->pcTaskName[ x ] = pcName[ x ];
    3740:	5cf9      	ldrb	r1, [r7, r3]
    3742:	18e2      	adds	r2, r4, r3
    3744:	3234      	adds	r2, #52	; 0x34
    3746:	7011      	strb	r1, [r2, #0]

		/* Don't copy all configMAX_TASK_NAME_LEN if the string is shorter than
		configMAX_TASK_NAME_LEN characters just in case the memory after the
		string is not accessible (extremely unlikely). */
		if( pcName[ x ] == 0x00 )
    3748:	5cfa      	ldrb	r2, [r7, r3]
    374a:	2a00      	cmp	r2, #0
    374c:	d002      	beq.n	3754 <xTaskGenericCreate+0x88>
static void prvInitialiseTCBVariables( TCB_t * const pxTCB, const char * const pcName, UBaseType_t uxPriority, const MemoryRegion_t * const xRegions, const uint16_t usStackDepth ) /*lint !e971 Unqualified char types are allowed for strings and single characters only. */
{
UBaseType_t x;

	/* Store the task name in the TCB. */
	for( x = ( UBaseType_t ) 0; x < ( UBaseType_t ) configMAX_TASK_NAME_LEN; x++ )
    374e:	3301      	adds	r3, #1
    3750:	2b05      	cmp	r3, #5
    3752:	d1f5      	bne.n	3740 <xTaskGenericCreate+0x74>
		}
	}

	/* Ensure the name string is terminated in the case that the string length
	was greater or equal to configMAX_TASK_NAME_LEN. */
	pxTCB->pcTaskName[ configMAX_TASK_NAME_LEN - 1 ] = '\0';
    3754:	2200      	movs	r2, #0
    3756:	2338      	movs	r3, #56	; 0x38
    3758:	54e2      	strb	r2, [r4, r3]
    375a:	1e2e      	subs	r6, r5, #0
    375c:	2e04      	cmp	r6, #4
    375e:	d900      	bls.n	3762 <xTaskGenericCreate+0x96>
    3760:	2604      	movs	r6, #4
	else
	{
		mtCOVERAGE_TEST_MARKER();
	}

	pxTCB->uxPriority = uxPriority;
    3762:	62e6      	str	r6, [r4, #44]	; 0x2c
	#if ( configUSE_MUTEXES == 1 )
	{
		pxTCB->uxBasePriority = uxPriority;
    3764:	6466      	str	r6, [r4, #68]	; 0x44
	}
	#endif /* configUSE_MUTEXES */

	vListInitialiseItem( &( pxTCB->xGenericListItem ) );
    3766:	1d27      	adds	r7, r4, #4
    3768:	1c38      	adds	r0, r7, #0
    376a:	4a5c      	ldr	r2, [pc, #368]	; (38dc <xTaskGenericCreate+0x210>)
    376c:	4691      	mov	r9, r2
    376e:	4790      	blx	r2
	vListInitialiseItem( &( pxTCB->xEventListItem ) );
    3770:	1c20      	adds	r0, r4, #0
    3772:	3018      	adds	r0, #24
    3774:	47c8      	blx	r9

	/* Set the pxTCB as a link back from the ListItem_t.  This is so we can get
	back to	the containing TCB from a generic item in a list. */
	listSET_LIST_ITEM_OWNER( &( pxTCB->xGenericListItem ), pxTCB );
    3776:	6124      	str	r4, [r4, #16]

	/* Event lists are always in priority order. */
	listSET_LIST_ITEM_VALUE( &( pxTCB->xEventListItem ), ( TickType_t ) configMAX_PRIORITIES - ( TickType_t ) uxPriority ); /*lint !e961 MISRA exception as the casts are only redundant for some ports. */
    3778:	2305      	movs	r3, #5
    377a:	1b9e      	subs	r6, r3, r6
    377c:	61a6      	str	r6, [r4, #24]
	listSET_LIST_ITEM_OWNER( &( pxTCB->xEventListItem ), pxTCB );
    377e:	6264      	str	r4, [r4, #36]	; 0x24
		{
			pxNewTCB->pxTopOfStack = pxPortInitialiseStack( pxTopOfStack, pxTaskCode, pvParameters, xRunPrivileged );
		}
		#else /* portUSING_MPU_WRAPPERS */
		{
			pxNewTCB->pxTopOfStack = pxPortInitialiseStack( pxTopOfStack, pxTaskCode, pvParameters );
    3780:	4658      	mov	r0, fp
    3782:	4641      	mov	r1, r8
    3784:	4652      	mov	r2, sl
    3786:	4b56      	ldr	r3, [pc, #344]	; (38e0 <xTaskGenericCreate+0x214>)
    3788:	4798      	blx	r3
    378a:	6020      	str	r0, [r4, #0]
		}
		#endif /* portUSING_MPU_WRAPPERS */

		if( ( void * ) pxCreatedTask != NULL )
    378c:	9b0b      	ldr	r3, [sp, #44]	; 0x2c
    378e:	2b00      	cmp	r3, #0
    3790:	d000      	beq.n	3794 <xTaskGenericCreate+0xc8>
		{
			/* Pass the TCB out - in an anonymous way.  The calling function/
			task can use this as a handle to delete the task later if
			required.*/
			*pxCreatedTask = ( TaskHandle_t ) pxNewTCB;
    3792:	601c      	str	r4, [r3, #0]
			mtCOVERAGE_TEST_MARKER();
		}

		/* Ensure interrupts don't access the task lists while they are being
		updated. */
		taskENTER_CRITICAL();
    3794:	4b53      	ldr	r3, [pc, #332]	; (38e4 <xTaskGenericCreate+0x218>)
    3796:	4798      	blx	r3
		{
			uxCurrentNumberOfTasks++;
    3798:	4b53      	ldr	r3, [pc, #332]	; (38e8 <xTaskGenericCreate+0x21c>)
    379a:	6b9a      	ldr	r2, [r3, #56]	; 0x38
    379c:	3201      	adds	r2, #1
    379e:	639a      	str	r2, [r3, #56]	; 0x38
			if( pxCurrentTCB == NULL )
    37a0:	6adb      	ldr	r3, [r3, #44]	; 0x2c
    37a2:	2b00      	cmp	r3, #0
    37a4:	d12d      	bne.n	3802 <xTaskGenericCreate+0x136>
			{
				/* There are no other tasks, or all the other tasks are in
				the suspended state - make this the current task. */
				pxCurrentTCB =  pxNewTCB;
    37a6:	4b50      	ldr	r3, [pc, #320]	; (38e8 <xTaskGenericCreate+0x21c>)
    37a8:	62dc      	str	r4, [r3, #44]	; 0x2c

				if( uxCurrentNumberOfTasks == ( UBaseType_t ) 1 )
    37aa:	6b9b      	ldr	r3, [r3, #56]	; 0x38
    37ac:	2b01      	cmp	r3, #1
    37ae:	d15b      	bne.n	3868 <xTaskGenericCreate+0x19c>
    37b0:	4b4d      	ldr	r3, [pc, #308]	; (38e8 <xTaskGenericCreate+0x21c>)
    37b2:	1c1e      	adds	r6, r3, #0
    37b4:	363c      	adds	r6, #60	; 0x3c
    37b6:	33a0      	adds	r3, #160	; 0xa0
    37b8:	4699      	mov	r9, r3
{
UBaseType_t uxPriority;

	for( uxPriority = ( UBaseType_t ) 0U; uxPriority < ( UBaseType_t ) configMAX_PRIORITIES; uxPriority++ )
	{
		vListInitialise( &( pxReadyTasksLists[ uxPriority ] ) );
    37ba:	494c      	ldr	r1, [pc, #304]	; (38ec <xTaskGenericCreate+0x220>)
    37bc:	4688      	mov	r8, r1
    37be:	1c30      	adds	r0, r6, #0
    37c0:	47c0      	blx	r8
    37c2:	3614      	adds	r6, #20

static void prvInitialiseTaskLists( void )
{
UBaseType_t uxPriority;

	for( uxPriority = ( UBaseType_t ) 0U; uxPriority < ( UBaseType_t ) configMAX_PRIORITIES; uxPriority++ )
    37c4:	454e      	cmp	r6, r9
    37c6:	d1fa      	bne.n	37be <xTaskGenericCreate+0xf2>
	{
		vListInitialise( &( pxReadyTasksLists[ uxPriority ] ) );
	}

	vListInitialise( &xDelayedTaskList1 );
    37c8:	4a49      	ldr	r2, [pc, #292]	; (38f0 <xTaskGenericCreate+0x224>)
    37ca:	4691      	mov	r9, r2
    37cc:	2320      	movs	r3, #32
    37ce:	469b      	mov	fp, r3
    37d0:	44cb      	add	fp, r9
    37d2:	4658      	mov	r0, fp
    37d4:	4e45      	ldr	r6, [pc, #276]	; (38ec <xTaskGenericCreate+0x220>)
    37d6:	47b0      	blx	r6
	vListInitialise( &xDelayedTaskList2 );
    37d8:	2134      	movs	r1, #52	; 0x34
    37da:	468a      	mov	sl, r1
    37dc:	44ca      	add	sl, r9
    37de:	4650      	mov	r0, sl
    37e0:	47b0      	blx	r6
	vListInitialise( &xPendingReadyList );
    37e2:	4a41      	ldr	r2, [pc, #260]	; (38e8 <xTaskGenericCreate+0x21c>)
    37e4:	4690      	mov	r8, r2
    37e6:	1c10      	adds	r0, r2, #0
    37e8:	3014      	adds	r0, #20
    37ea:	47b0      	blx	r6

	#if ( INCLUDE_vTaskDelete == 1 )
	{
		vListInitialise( &xTasksWaitingTermination );
    37ec:	4648      	mov	r0, r9
    37ee:	3048      	adds	r0, #72	; 0x48
    37f0:	47b0      	blx	r6
	}
	#endif /* INCLUDE_vTaskDelete */

	#if ( INCLUDE_vTaskSuspend == 1 )
	{
		vListInitialise( &xSuspendedTaskList );
    37f2:	4640      	mov	r0, r8
    37f4:	47b0      	blx	r6
	}
	#endif /* INCLUDE_vTaskSuspend */

	/* Start with pxDelayedTaskList using list1 and the pxOverflowDelayedTaskList
	using list2. */
	pxDelayedTaskList = &xDelayedTaskList1;
    37f6:	465b      	mov	r3, fp
    37f8:	4641      	mov	r1, r8
    37fa:	628b      	str	r3, [r1, #40]	; 0x28
	pxOverflowDelayedTaskList = &xDelayedTaskList2;
    37fc:	4652      	mov	r2, sl
    37fe:	634a      	str	r2, [r1, #52]	; 0x34
    3800:	e032      	b.n	3868 <xTaskGenericCreate+0x19c>
			else
			{
				/* If the scheduler is not already running, make this task the
				current task if it is the highest priority task to be created
				so far. */
				if( xSchedulerRunning == pdFALSE )
    3802:	4b3b      	ldr	r3, [pc, #236]	; (38f0 <xTaskGenericCreate+0x224>)
    3804:	6ddb      	ldr	r3, [r3, #92]	; 0x5c
    3806:	2b00      	cmp	r3, #0
    3808:	d12e      	bne.n	3868 <xTaskGenericCreate+0x19c>
				{
					if( pxCurrentTCB->uxPriority <= uxPriority )
    380a:	4b37      	ldr	r3, [pc, #220]	; (38e8 <xTaskGenericCreate+0x21c>)
    380c:	6adb      	ldr	r3, [r3, #44]	; 0x2c
    380e:	6adb      	ldr	r3, [r3, #44]	; 0x2c
    3810:	429d      	cmp	r5, r3
    3812:	d329      	bcc.n	3868 <xTaskGenericCreate+0x19c>
					{
						pxCurrentTCB = pxNewTCB;
    3814:	4b34      	ldr	r3, [pc, #208]	; (38e8 <xTaskGenericCreate+0x21c>)
    3816:	62dc      	str	r4, [r3, #44]	; 0x2c
    3818:	e026      	b.n	3868 <xTaskGenericCreate+0x19c>
				pxNewTCB->uxTCBNumber = uxTaskNumber;
			}
			#endif /* configUSE_TRACE_FACILITY */
			traceTASK_CREATE( pxNewTCB );

			prvAddTaskToReadyList( pxNewTCB );
    381a:	4a35      	ldr	r2, [pc, #212]	; (38f0 <xTaskGenericCreate+0x224>)
    381c:	6613      	str	r3, [r2, #96]	; 0x60
    381e:	009a      	lsls	r2, r3, #2
    3820:	18d3      	adds	r3, r2, r3
    3822:	009b      	lsls	r3, r3, #2
    3824:	4830      	ldr	r0, [pc, #192]	; (38e8 <xTaskGenericCreate+0x21c>)
    3826:	303c      	adds	r0, #60	; 0x3c
    3828:	18c0      	adds	r0, r0, r3
    382a:	1c39      	adds	r1, r7, #0
    382c:	4b31      	ldr	r3, [pc, #196]	; (38f4 <xTaskGenericCreate+0x228>)
    382e:	4798      	blx	r3

			xReturn = pdPASS;
			portSETUP_TCB( pxNewTCB );
		}
		taskEXIT_CRITICAL();
    3830:	4b31      	ldr	r3, [pc, #196]	; (38f8 <xTaskGenericCreate+0x22c>)
    3832:	4798      	blx	r3
		traceTASK_CREATE_FAILED();
	}

	if( xReturn == pdPASS )
	{
		if( xSchedulerRunning != pdFALSE )
    3834:	4b2e      	ldr	r3, [pc, #184]	; (38f0 <xTaskGenericCreate+0x224>)
    3836:	6ddb      	ldr	r3, [r3, #92]	; 0x5c
			#endif /* configUSE_TRACE_FACILITY */
			traceTASK_CREATE( pxNewTCB );

			prvAddTaskToReadyList( pxNewTCB );

			xReturn = pdPASS;
    3838:	2001      	movs	r0, #1
		traceTASK_CREATE_FAILED();
	}

	if( xReturn == pdPASS )
	{
		if( xSchedulerRunning != pdFALSE )
    383a:	2b00      	cmp	r3, #0
    383c:	d040      	beq.n	38c0 <xTaskGenericCreate+0x1f4>
		{
			/* If the created task is of a higher priority than the current task
			then it should run now. */
			if( pxCurrentTCB->uxPriority < uxPriority )
    383e:	4b2a      	ldr	r3, [pc, #168]	; (38e8 <xTaskGenericCreate+0x21c>)
    3840:	6adb      	ldr	r3, [r3, #44]	; 0x2c
    3842:	6adb      	ldr	r3, [r3, #44]	; 0x2c
    3844:	429d      	cmp	r5, r3
    3846:	d93b      	bls.n	38c0 <xTaskGenericCreate+0x1f4>
			{
				taskYIELD_IF_USING_PREEMPTION();
    3848:	4b2c      	ldr	r3, [pc, #176]	; (38fc <xTaskGenericCreate+0x230>)
    384a:	4798      	blx	r3
			#endif /* configUSE_TRACE_FACILITY */
			traceTASK_CREATE( pxNewTCB );

			prvAddTaskToReadyList( pxNewTCB );

			xReturn = pdPASS;
    384c:	2001      	movs	r0, #1
    384e:	e037      	b.n	38c0 <xTaskGenericCreate+0x1f4>
	if( pxNewTCB != NULL )
	{
		/* Allocate space for the stack used by the task being created.
		The base of the stack memory stored in the TCB so the task can
		be deleted later if required. */
		pxNewTCB->pxStack = ( StackType_t * ) pvPortMallocAligned( ( ( ( size_t ) usStackDepth ) * sizeof( StackType_t ) ), puxStackBuffer ); /*lint !e961 MISRA exception as the casts are only redundant for some ports. */
    3850:	9b0c      	ldr	r3, [sp, #48]	; 0x30
    3852:	6303      	str	r3, [r0, #48]	; 0x30
    3854:	1c18      	adds	r0, r3, #0
    3856:	e760      	b.n	371a <xTaskGenericCreate+0x4e>
		taskEXIT_CRITICAL();
	}
	else
	{
		xReturn = errCOULD_NOT_ALLOCATE_REQUIRED_MEMORY;
		traceTASK_CREATE_FAILED();
    3858:	2043      	movs	r0, #67	; 0x43
    385a:	2103      	movs	r1, #3
    385c:	2200      	movs	r2, #0
    385e:	4b28      	ldr	r3, [pc, #160]	; (3900 <xTaskGenericCreate+0x234>)
    3860:	4798      	blx	r3
		}
		taskEXIT_CRITICAL();
	}
	else
	{
		xReturn = errCOULD_NOT_ALLOCATE_REQUIRED_MEMORY;
    3862:	2001      	movs	r0, #1
    3864:	4240      	negs	r0, r0
    3866:	e02b      	b.n	38c0 <xTaskGenericCreate+0x1f4>
				{
					mtCOVERAGE_TEST_MARKER();
				}
			}

			uxTaskNumber++;
    3868:	4921      	ldr	r1, [pc, #132]	; (38f0 <xTaskGenericCreate+0x224>)
    386a:	4688      	mov	r8, r1
    386c:	6e4b      	ldr	r3, [r1, #100]	; 0x64
    386e:	3301      	adds	r3, #1
    3870:	664b      	str	r3, [r1, #100]	; 0x64

			#if ( configUSE_TRACE_FACILITY == 1 )
			{
				/* Add a counter into the TCB for tracing only. */
				pxNewTCB->uxTCBNumber = uxTaskNumber;
    3872:	63e3      	str	r3, [r4, #60]	; 0x3c
			}
			#endif /* configUSE_TRACE_FACILITY */
			traceTASK_CREATE( pxNewTCB );
    3874:	2003      	movs	r0, #3
    3876:	4b23      	ldr	r3, [pc, #140]	; (3904 <xTaskGenericCreate+0x238>)
    3878:	4798      	blx	r3
    387a:	6420      	str	r0, [r4, #64]	; 0x40
    387c:	1c20      	adds	r0, r4, #0
    387e:	4e22      	ldr	r6, [pc, #136]	; (3908 <xTaskGenericCreate+0x23c>)
    3880:	47b0      	blx	r6
    3882:	1c01      	adds	r1, r0, #0
    3884:	1c22      	adds	r2, r4, #0
    3886:	3234      	adds	r2, #52	; 0x34
    3888:	2003      	movs	r0, #3
    388a:	4b20      	ldr	r3, [pc, #128]	; (390c <xTaskGenericCreate+0x240>)
    388c:	4798      	blx	r3
    388e:	1c20      	adds	r0, r4, #0
    3890:	47b0      	blx	r6
    3892:	1c01      	adds	r1, r0, #0
    3894:	6ae3      	ldr	r3, [r4, #44]	; 0x2c
    3896:	b2da      	uxtb	r2, r3
    3898:	2003      	movs	r0, #3
    389a:	4b1d      	ldr	r3, [pc, #116]	; (3910 <xTaskGenericCreate+0x244>)
    389c:	4798      	blx	r3
    389e:	1c20      	adds	r0, r4, #0
    38a0:	47b0      	blx	r6
    38a2:	1c02      	adds	r2, r0, #0
    38a4:	201b      	movs	r0, #27
    38a6:	2103      	movs	r1, #3
    38a8:	4b15      	ldr	r3, [pc, #84]	; (3900 <xTaskGenericCreate+0x234>)
    38aa:	4798      	blx	r3

			prvAddTaskToReadyList( pxNewTCB );
    38ac:	1c20      	adds	r0, r4, #0
    38ae:	47b0      	blx	r6
    38b0:	4b18      	ldr	r3, [pc, #96]	; (3914 <xTaskGenericCreate+0x248>)
    38b2:	4798      	blx	r3
    38b4:	6ae3      	ldr	r3, [r4, #44]	; 0x2c
    38b6:	4641      	mov	r1, r8
    38b8:	6e0a      	ldr	r2, [r1, #96]	; 0x60
    38ba:	4293      	cmp	r3, r2
    38bc:	d8ad      	bhi.n	381a <xTaskGenericCreate+0x14e>
    38be:	e7ae      	b.n	381e <xTaskGenericCreate+0x152>
			mtCOVERAGE_TEST_MARKER();
		}
	}

	return xReturn;
}
    38c0:	bc3c      	pop	{r2, r3, r4, r5}
    38c2:	4690      	mov	r8, r2
    38c4:	4699      	mov	r9, r3
    38c6:	46a2      	mov	sl, r4
    38c8:	46ab      	mov	fp, r5
    38ca:	bdf8      	pop	{r3, r4, r5, r6, r7, pc}
    38cc:	00002ba1 	.word	0x00002ba1
    38d0:	00002c05 	.word	0x00002c05
    38d4:	00005409 	.word	0x00005409
    38d8:	3fffffff 	.word	0x3fffffff
    38dc:	00002999 	.word	0x00002999
    38e0:	00002a41 	.word	0x00002a41
    38e4:	00002a7d 	.word	0x00002a7d
    38e8:	20001524 	.word	0x20001524
    38ec:	00002981 	.word	0x00002981
    38f0:	200015a4 	.word	0x200015a4
    38f4:	000029a1 	.word	0x000029a1
    38f8:	00002a95 	.word	0x00002a95
    38fc:	00002a65 	.word	0x00002a65
    3900:	00001b11 	.word	0x00001b11
    3904:	000012cd 	.word	0x000012cd
    3908:	000021e1 	.word	0x000021e1
    390c:	00001491 	.word	0x00001491
    3910:	00001f4d 	.word	0x00001f4d
    3914:	00001a59 	.word	0x00001a59

00003918 <vTaskResume>:
/*-----------------------------------------------------------*/

#if ( INCLUDE_vTaskSuspend == 1 )

	void vTaskResume( TaskHandle_t xTaskToResume )
	{
    3918:	b570      	push	{r4, r5, r6, lr}
    391a:	1e04      	subs	r4, r0, #0
	TCB_t * const pxTCB = ( TCB_t * ) xTaskToResume;

		/* It does not make sense to resume the calling task. */
		configASSERT( xTaskToResume );
    391c:	d101      	bne.n	3922 <vTaskResume+0xa>
    391e:	b672      	cpsid	i
    3920:	e7fe      	b.n	3920 <vTaskResume+0x8>

		/* The parameter cannot be NULL as it is impossible to resume the
		currently executing task. */
		if( ( pxTCB != NULL ) && ( pxTCB != pxCurrentTCB ) )
    3922:	4b1b      	ldr	r3, [pc, #108]	; (3990 <vTaskResume+0x78>)
    3924:	6adb      	ldr	r3, [r3, #44]	; 0x2c
    3926:	4298      	cmp	r0, r3
    3928:	d030      	beq.n	398c <vTaskResume+0x74>
		{
			taskENTER_CRITICAL();
    392a:	4b1a      	ldr	r3, [pc, #104]	; (3994 <vTaskResume+0x7c>)
    392c:	4798      	blx	r3
			{
				if( prvTaskIsTaskSuspended( pxTCB ) == pdTRUE )
    392e:	1c20      	adds	r0, r4, #0
    3930:	4b19      	ldr	r3, [pc, #100]	; (3998 <vTaskResume+0x80>)
    3932:	4798      	blx	r3
    3934:	2801      	cmp	r0, #1
    3936:	d127      	bne.n	3988 <vTaskResume+0x70>
				{
					traceTASK_RESUME( pxTCB );
    3938:	1c20      	adds	r0, r4, #0
    393a:	4d18      	ldr	r5, [pc, #96]	; (399c <vTaskResume+0x84>)
    393c:	47a8      	blx	r5
    393e:	1c02      	adds	r2, r0, #0
    3940:	208b      	movs	r0, #139	; 0x8b
    3942:	2103      	movs	r1, #3
    3944:	4b16      	ldr	r3, [pc, #88]	; (39a0 <vTaskResume+0x88>)
    3946:	4798      	blx	r3

					/* As we are in a critical section we can access the ready
					lists even if the scheduler is suspended. */
					( void ) uxListRemove(  &( pxTCB->xGenericListItem ) );
    3948:	1d26      	adds	r6, r4, #4
    394a:	1c30      	adds	r0, r6, #0
    394c:	4b15      	ldr	r3, [pc, #84]	; (39a4 <vTaskResume+0x8c>)
    394e:	4798      	blx	r3
					prvAddTaskToReadyList( pxTCB );
    3950:	1c20      	adds	r0, r4, #0
    3952:	47a8      	blx	r5
    3954:	4b14      	ldr	r3, [pc, #80]	; (39a8 <vTaskResume+0x90>)
    3956:	4798      	blx	r3
    3958:	6ae3      	ldr	r3, [r4, #44]	; 0x2c
    395a:	4a14      	ldr	r2, [pc, #80]	; (39ac <vTaskResume+0x94>)
    395c:	6e12      	ldr	r2, [r2, #96]	; 0x60
    395e:	4293      	cmp	r3, r2
    3960:	d901      	bls.n	3966 <vTaskResume+0x4e>
    3962:	4a12      	ldr	r2, [pc, #72]	; (39ac <vTaskResume+0x94>)
    3964:	6613      	str	r3, [r2, #96]	; 0x60
    3966:	4d0a      	ldr	r5, [pc, #40]	; (3990 <vTaskResume+0x78>)
    3968:	1c28      	adds	r0, r5, #0
    396a:	303c      	adds	r0, #60	; 0x3c
    396c:	009a      	lsls	r2, r3, #2
    396e:	18d3      	adds	r3, r2, r3
    3970:	009b      	lsls	r3, r3, #2
    3972:	18c0      	adds	r0, r0, r3
    3974:	1c31      	adds	r1, r6, #0
    3976:	4b0e      	ldr	r3, [pc, #56]	; (39b0 <vTaskResume+0x98>)
    3978:	4798      	blx	r3

					/* We may have just resumed a higher priority task. */
					if( pxTCB->uxPriority >= pxCurrentTCB->uxPriority )
    397a:	6aeb      	ldr	r3, [r5, #44]	; 0x2c
    397c:	6ae2      	ldr	r2, [r4, #44]	; 0x2c
    397e:	6adb      	ldr	r3, [r3, #44]	; 0x2c
    3980:	429a      	cmp	r2, r3
    3982:	d301      	bcc.n	3988 <vTaskResume+0x70>
					{
						/* This yield may not cause the task just resumed to run,
						but will leave the lists in the correct state for the
						next yield. */
						taskYIELD_IF_USING_PREEMPTION();
    3984:	4b0b      	ldr	r3, [pc, #44]	; (39b4 <vTaskResume+0x9c>)
    3986:	4798      	blx	r3
				else
				{
					mtCOVERAGE_TEST_MARKER();
				}
			}
			taskEXIT_CRITICAL();
    3988:	4b0b      	ldr	r3, [pc, #44]	; (39b8 <vTaskResume+0xa0>)
    398a:	4798      	blx	r3
		}
		else
		{
			mtCOVERAGE_TEST_MARKER();
		}
	}
    398c:	bd70      	pop	{r4, r5, r6, pc}
    398e:	46c0      	nop			; (mov r8, r8)
    3990:	20001524 	.word	0x20001524
    3994:	00002a7d 	.word	0x00002a7d
    3998:	00003631 	.word	0x00003631
    399c:	000021e1 	.word	0x000021e1
    39a0:	00001b11 	.word	0x00001b11
    39a4:	000029e9 	.word	0x000029e9
    39a8:	00001a59 	.word	0x00001a59
    39ac:	200015a4 	.word	0x200015a4
    39b0:	000029a1 	.word	0x000029a1
    39b4:	00002a65 	.word	0x00002a65
    39b8:	00002a95 	.word	0x00002a95

000039bc <xTaskResumeFromISR>:
/*-----------------------------------------------------------*/

#if ( ( INCLUDE_xTaskResumeFromISR == 1 ) && ( INCLUDE_vTaskSuspend == 1 ) )

	BaseType_t xTaskResumeFromISR( TaskHandle_t xTaskToResume )
	{
    39bc:	b5f8      	push	{r3, r4, r5, r6, r7, lr}
    39be:	1e04      	subs	r4, r0, #0
	BaseType_t xYieldRequired = pdFALSE;
	TCB_t * const pxTCB = ( TCB_t * ) xTaskToResume;
	UBaseType_t uxSavedInterruptStatus;

		configASSERT( xTaskToResume );
    39c0:	d101      	bne.n	39c6 <xTaskResumeFromISR+0xa>
    39c2:	b672      	cpsid	i
    39c4:	e7fe      	b.n	39c4 <xTaskResumeFromISR+0x8>
		simple as possible.  More information (albeit Cortex-M specific) is
		provided on the following link:
		http://www.freertos.org/RTOS-Cortex-M3-M4.html */
		portASSERT_IF_INTERRUPT_PRIORITY_INVALID();

		uxSavedInterruptStatus = portSET_INTERRUPT_MASK_FROM_ISR();
    39c6:	4b20      	ldr	r3, [pc, #128]	; (3a48 <xTaskResumeFromISR+0x8c>)
    39c8:	4798      	blx	r3
    39ca:	1c07      	adds	r7, r0, #0
		{
			if( prvTaskIsTaskSuspended( pxTCB ) == pdTRUE )
    39cc:	1c20      	adds	r0, r4, #0
    39ce:	4b1f      	ldr	r3, [pc, #124]	; (3a4c <xTaskResumeFromISR+0x90>)
    39d0:	4798      	blx	r3

#if ( ( INCLUDE_xTaskResumeFromISR == 1 ) && ( INCLUDE_vTaskSuspend == 1 ) )

	BaseType_t xTaskResumeFromISR( TaskHandle_t xTaskToResume )
	{
	BaseType_t xYieldRequired = pdFALSE;
    39d2:	2500      	movs	r5, #0
		http://www.freertos.org/RTOS-Cortex-M3-M4.html */
		portASSERT_IF_INTERRUPT_PRIORITY_INVALID();

		uxSavedInterruptStatus = portSET_INTERRUPT_MASK_FROM_ISR();
		{
			if( prvTaskIsTaskSuspended( pxTCB ) == pdTRUE )
    39d4:	2801      	cmp	r0, #1
    39d6:	d132      	bne.n	3a3e <xTaskResumeFromISR+0x82>
			{
				traceTASK_RESUME_FROM_ISR( pxTCB );
    39d8:	1c20      	adds	r0, r4, #0
    39da:	4b1d      	ldr	r3, [pc, #116]	; (3a50 <xTaskResumeFromISR+0x94>)
    39dc:	4798      	blx	r3
    39de:	1c02      	adds	r2, r0, #0
    39e0:	208c      	movs	r0, #140	; 0x8c
    39e2:	2103      	movs	r1, #3
    39e4:	4b1b      	ldr	r3, [pc, #108]	; (3a54 <xTaskResumeFromISR+0x98>)
    39e6:	4798      	blx	r3

				/* Check the ready lists can be accessed. */
				if( uxSchedulerSuspended == ( UBaseType_t ) pdFALSE )
    39e8:	4b1b      	ldr	r3, [pc, #108]	; (3a58 <xTaskResumeFromISR+0x9c>)
    39ea:	6edb      	ldr	r3, [r3, #108]	; 0x6c
    39ec:	2b00      	cmp	r3, #0
    39ee:	d11f      	bne.n	3a30 <xTaskResumeFromISR+0x74>
				{
					/* Ready lists can be accessed so move the task from the
					suspended list to the ready list directly. */
					if( pxTCB->uxPriority >= pxCurrentTCB->uxPriority )
    39f0:	4b1a      	ldr	r3, [pc, #104]	; (3a5c <xTaskResumeFromISR+0xa0>)
    39f2:	6adb      	ldr	r3, [r3, #44]	; 0x2c
    39f4:	6adb      	ldr	r3, [r3, #44]	; 0x2c
    39f6:	6ae2      	ldr	r2, [r4, #44]	; 0x2c
    39f8:	429a      	cmp	r2, r3
    39fa:	416d      	adcs	r5, r5
					else
					{
						mtCOVERAGE_TEST_MARKER();
					}

					( void ) uxListRemove(  &( pxTCB->xGenericListItem ) );
    39fc:	1d26      	adds	r6, r4, #4
    39fe:	1c30      	adds	r0, r6, #0
    3a00:	4b17      	ldr	r3, [pc, #92]	; (3a60 <xTaskResumeFromISR+0xa4>)
    3a02:	4798      	blx	r3
					prvAddTaskToReadyList( pxTCB );
    3a04:	1c20      	adds	r0, r4, #0
    3a06:	4b12      	ldr	r3, [pc, #72]	; (3a50 <xTaskResumeFromISR+0x94>)
    3a08:	4798      	blx	r3
    3a0a:	4b16      	ldr	r3, [pc, #88]	; (3a64 <xTaskResumeFromISR+0xa8>)
    3a0c:	4798      	blx	r3
    3a0e:	6ae3      	ldr	r3, [r4, #44]	; 0x2c
    3a10:	4a11      	ldr	r2, [pc, #68]	; (3a58 <xTaskResumeFromISR+0x9c>)
    3a12:	6e12      	ldr	r2, [r2, #96]	; 0x60
    3a14:	4293      	cmp	r3, r2
    3a16:	d901      	bls.n	3a1c <xTaskResumeFromISR+0x60>
    3a18:	4a0f      	ldr	r2, [pc, #60]	; (3a58 <xTaskResumeFromISR+0x9c>)
    3a1a:	6613      	str	r3, [r2, #96]	; 0x60
    3a1c:	009a      	lsls	r2, r3, #2
    3a1e:	18d3      	adds	r3, r2, r3
    3a20:	009b      	lsls	r3, r3, #2
    3a22:	480e      	ldr	r0, [pc, #56]	; (3a5c <xTaskResumeFromISR+0xa0>)
    3a24:	303c      	adds	r0, #60	; 0x3c
    3a26:	18c0      	adds	r0, r0, r3
    3a28:	1c31      	adds	r1, r6, #0
    3a2a:	4b0f      	ldr	r3, [pc, #60]	; (3a68 <xTaskResumeFromISR+0xac>)
    3a2c:	4798      	blx	r3
    3a2e:	e006      	b.n	3a3e <xTaskResumeFromISR+0x82>
				else
				{
					/* The delayed or ready lists cannot be accessed so the task
					is held in the pending ready list until the scheduler is
					unsuspended. */
					vListInsertEnd( &( xPendingReadyList ), &( pxTCB->xEventListItem ) );
    3a30:	1c21      	adds	r1, r4, #0
    3a32:	3118      	adds	r1, #24
    3a34:	4809      	ldr	r0, [pc, #36]	; (3a5c <xTaskResumeFromISR+0xa0>)
    3a36:	3014      	adds	r0, #20
    3a38:	4b0b      	ldr	r3, [pc, #44]	; (3a68 <xTaskResumeFromISR+0xac>)
    3a3a:	4798      	blx	r3

#if ( ( INCLUDE_xTaskResumeFromISR == 1 ) && ( INCLUDE_vTaskSuspend == 1 ) )

	BaseType_t xTaskResumeFromISR( TaskHandle_t xTaskToResume )
	{
	BaseType_t xYieldRequired = pdFALSE;
    3a3c:	2500      	movs	r5, #0
			else
			{
				mtCOVERAGE_TEST_MARKER();
			}
		}
		portCLEAR_INTERRUPT_MASK_FROM_ISR( uxSavedInterruptStatus );
    3a3e:	1c38      	adds	r0, r7, #0
    3a40:	4b0a      	ldr	r3, [pc, #40]	; (3a6c <xTaskResumeFromISR+0xb0>)
    3a42:	4798      	blx	r3

		return xYieldRequired;
	}
    3a44:	1c28      	adds	r0, r5, #0
    3a46:	bdf8      	pop	{r3, r4, r5, r6, r7, pc}
    3a48:	00002ab5 	.word	0x00002ab5
    3a4c:	00003631 	.word	0x00003631
    3a50:	000021e1 	.word	0x000021e1
    3a54:	00001b11 	.word	0x00001b11
    3a58:	200015a4 	.word	0x200015a4
    3a5c:	20001524 	.word	0x20001524
    3a60:	000029e9 	.word	0x000029e9
    3a64:	00001a59 	.word	0x00001a59
    3a68:	000029a1 	.word	0x000029a1
    3a6c:	00002ac1 	.word	0x00002ac1

00003a70 <vTaskStartScheduler>:

#endif /* ( ( INCLUDE_xTaskResumeFromISR == 1 ) && ( INCLUDE_vTaskSuspend == 1 ) ) */
/*-----------------------------------------------------------*/

void vTaskStartScheduler( void )
{
    3a70:	b510      	push	{r4, lr}
    3a72:	b084      	sub	sp, #16
		xReturn = xTaskCreate( prvIdleTask, "IDLE", tskIDLE_STACK_SIZE, ( void * ) NULL, ( tskIDLE_PRIORITY | portPRIVILEGE_BIT ), &xIdleTaskHandle ); /*lint !e961 MISRA exception, justified as it is not a redundant explicit cast to all supported compilers. */
	}
	#else
	{
		/* Create the idle task without storing its handle. */
		xReturn = xTaskCreate( prvIdleTask, "IDLE", tskIDLE_STACK_SIZE, ( void * ) NULL, ( tskIDLE_PRIORITY | portPRIVILEGE_BIT ), NULL );  /*lint !e961 MISRA exception, justified as it is not a redundant explicit cast to all supported compilers. */
    3a74:	2300      	movs	r3, #0
    3a76:	9300      	str	r3, [sp, #0]
    3a78:	9301      	str	r3, [sp, #4]
    3a7a:	9302      	str	r3, [sp, #8]
    3a7c:	9303      	str	r3, [sp, #12]
    3a7e:	480d      	ldr	r0, [pc, #52]	; (3ab4 <vTaskStartScheduler+0x44>)
    3a80:	490d      	ldr	r1, [pc, #52]	; (3ab8 <vTaskStartScheduler+0x48>)
    3a82:	228c      	movs	r2, #140	; 0x8c
    3a84:	4c0d      	ldr	r4, [pc, #52]	; (3abc <vTaskStartScheduler+0x4c>)
    3a86:	47a0      	blx	r4
	}
	#endif /* INCLUDE_xTaskGetIdleTaskHandle */

	#if ( configUSE_TIMERS == 1 )
	{
		if( xReturn == pdPASS )
    3a88:	2801      	cmp	r0, #1
    3a8a:	d10d      	bne.n	3aa8 <vTaskStartScheduler+0x38>
		{
			xReturn = xTimerCreateTimerTask();
    3a8c:	4b0c      	ldr	r3, [pc, #48]	; (3ac0 <vTaskStartScheduler+0x50>)
    3a8e:	4798      	blx	r3
			mtCOVERAGE_TEST_MARKER();
		}
	}
	#endif /* configUSE_TIMERS */

	if( xReturn == pdPASS )
    3a90:	2801      	cmp	r0, #1
    3a92:	d109      	bne.n	3aa8 <vTaskStartScheduler+0x38>
		/* Interrupts are turned off here, to ensure a tick does not occur
		before or during the call to xPortStartScheduler().  The stacks of
		the created tasks contain a status word with interrupts switched on
		so interrupts will automatically get re-enabled when the first task
		starts to run. */
		portDISABLE_INTERRUPTS();
    3a94:	b672      	cpsid	i
			structure specific to the task that will run first. */
			_impure_ptr = &( pxCurrentTCB->xNewLib_reent );
		}
		#endif /* configUSE_NEWLIB_REENTRANT */

		xSchedulerRunning = pdTRUE;
    3a96:	2201      	movs	r2, #1
    3a98:	4b0a      	ldr	r3, [pc, #40]	; (3ac4 <vTaskStartScheduler+0x54>)
    3a9a:	65da      	str	r2, [r3, #92]	; 0x5c
		xTickCount = ( TickType_t ) 0U;
    3a9c:	2200      	movs	r2, #0
    3a9e:	4b0a      	ldr	r3, [pc, #40]	; (3ac8 <vTaskStartScheduler+0x58>)
    3aa0:	631a      	str	r2, [r3, #48]	; 0x30
		the run time counter time base. */
		portCONFIGURE_TIMER_FOR_RUN_TIME_STATS();

		/* Setting up the timer tick is hardware specific and thus in the
		portable interface. */
		if( xPortStartScheduler() != pdFALSE )
    3aa2:	4b0a      	ldr	r3, [pc, #40]	; (3acc <vTaskStartScheduler+0x5c>)
    3aa4:	4798      	blx	r3
    3aa6:	e003      	b.n	3ab0 <vTaskStartScheduler+0x40>
	else
	{
		/* This line will only be reached if the kernel could not be started,
		because there was not enough FreeRTOS heap to create the idle task
		or the timer task. */
		configASSERT( xReturn );
    3aa8:	2800      	cmp	r0, #0
    3aaa:	d101      	bne.n	3ab0 <vTaskStartScheduler+0x40>
    3aac:	b672      	cpsid	i
    3aae:	e7fe      	b.n	3aae <vTaskStartScheduler+0x3e>
	}
}
    3ab0:	b004      	add	sp, #16
    3ab2:	bd10      	pop	{r4, pc}
    3ab4:	00003d69 	.word	0x00003d69
    3ab8:	00006a98 	.word	0x00006a98
    3abc:	000036cd 	.word	0x000036cd
    3ac0:	00004385 	.word	0x00004385
    3ac4:	200015a4 	.word	0x200015a4
    3ac8:	20001524 	.word	0x20001524
    3acc:	00002b61 	.word	0x00002b61

00003ad0 <vTaskSuspendAll>:
{
	/* A critical section is not required as the variable is of type
	BaseType_t.  Please read Richard Barry's reply in the following link to a
	post in the FreeRTOS support forum before reporting this as a bug! -
	http://goo.gl/wu4acr */
	++uxSchedulerSuspended;
    3ad0:	4b02      	ldr	r3, [pc, #8]	; (3adc <vTaskSuspendAll+0xc>)
    3ad2:	6eda      	ldr	r2, [r3, #108]	; 0x6c
    3ad4:	3201      	adds	r2, #1
    3ad6:	66da      	str	r2, [r3, #108]	; 0x6c
}
    3ad8:	4770      	bx	lr
    3ada:	46c0      	nop			; (mov r8, r8)
    3adc:	200015a4 	.word	0x200015a4

00003ae0 <xTaskGetTickCount>:
	return xAlreadyYielded;
}
/*-----------------------------------------------------------*/

TickType_t xTaskGetTickCount( void )
{
    3ae0:	b510      	push	{r4, lr}
TickType_t xTicks;

	/* Critical section required if running on a 16 bit processor. */
	taskENTER_CRITICAL();
    3ae2:	4b04      	ldr	r3, [pc, #16]	; (3af4 <xTaskGetTickCount+0x14>)
    3ae4:	4798      	blx	r3
	{
		xTicks = xTickCount;
    3ae6:	4b04      	ldr	r3, [pc, #16]	; (3af8 <xTaskGetTickCount+0x18>)
    3ae8:	6b1c      	ldr	r4, [r3, #48]	; 0x30
	}
	taskEXIT_CRITICAL();
    3aea:	4b04      	ldr	r3, [pc, #16]	; (3afc <xTaskGetTickCount+0x1c>)
    3aec:	4798      	blx	r3

	return xTicks;
}
    3aee:	1c20      	adds	r0, r4, #0
    3af0:	bd10      	pop	{r4, pc}
    3af2:	46c0      	nop			; (mov r8, r8)
    3af4:	00002a7d 	.word	0x00002a7d
    3af8:	20001524 	.word	0x20001524
    3afc:	00002a95 	.word	0x00002a95

00003b00 <xTaskGetTickCountFromISR>:
/*-----------------------------------------------------------*/

TickType_t xTaskGetTickCountFromISR( void )
{
    3b00:	b510      	push	{r4, lr}
	safe API to ensure interrupt entry is as fast and as simple as possible.
	More information (albeit Cortex-M specific) is provided on the following
	link: http://www.freertos.org/RTOS-Cortex-M3-M4.html */
	portASSERT_IF_INTERRUPT_PRIORITY_INVALID();

	uxSavedInterruptStatus = portSET_INTERRUPT_MASK_FROM_ISR();
    3b02:	4b04      	ldr	r3, [pc, #16]	; (3b14 <xTaskGetTickCountFromISR+0x14>)
    3b04:	4798      	blx	r3
	{
		xReturn = xTickCount;
    3b06:	4b04      	ldr	r3, [pc, #16]	; (3b18 <xTaskGetTickCountFromISR+0x18>)
    3b08:	6b1c      	ldr	r4, [r3, #48]	; 0x30
	}
	portCLEAR_INTERRUPT_MASK_FROM_ISR( uxSavedInterruptStatus );
    3b0a:	4b04      	ldr	r3, [pc, #16]	; (3b1c <xTaskGetTickCountFromISR+0x1c>)
    3b0c:	4798      	blx	r3

	return xReturn;
}
    3b0e:	1c20      	adds	r0, r4, #0
    3b10:	bd10      	pop	{r4, pc}
    3b12:	46c0      	nop			; (mov r8, r8)
    3b14:	00002ab5 	.word	0x00002ab5
    3b18:	20001524 	.word	0x20001524
    3b1c:	00002ac1 	.word	0x00002ac1

00003b20 <xTaskIncrementTick>:

#endif /* configUSE_TICKLESS_IDLE */
/*----------------------------------------------------------*/

BaseType_t xTaskIncrementTick( void )
{
    3b20:	b5f8      	push	{r3, r4, r5, r6, r7, lr}
    3b22:	4657      	mov	r7, sl
    3b24:	464e      	mov	r6, r9
    3b26:	b4c0      	push	{r6, r7}
BaseType_t xSwitchRequired = pdFALSE;

	/* Called by the portable layer each time a tick interrupt occurs.
	Increments the tick then checks to see if the new tick value will cause any
	tasks to be unblocked. */
	traceTASK_INCREMENT_TICK( xTickCount );
    3b28:	4b46      	ldr	r3, [pc, #280]	; (3c44 <xTaskIncrementTick+0x124>)
    3b2a:	6edb      	ldr	r3, [r3, #108]	; 0x6c
    3b2c:	2b01      	cmp	r3, #1
    3b2e:	d003      	beq.n	3b38 <xTaskIncrementTick+0x18>
    3b30:	4b44      	ldr	r3, [pc, #272]	; (3c44 <xTaskIncrementTick+0x124>)
    3b32:	6f1b      	ldr	r3, [r3, #112]	; 0x70
    3b34:	2b00      	cmp	r3, #0
    3b36:	d106      	bne.n	3b46 <xTaskIncrementTick+0x26>
    3b38:	4b43      	ldr	r3, [pc, #268]	; (3c48 <xTaskIncrementTick+0x128>)
    3b3a:	681a      	ldr	r2, [r3, #0]
    3b3c:	3201      	adds	r2, #1
    3b3e:	601a      	str	r2, [r3, #0]
    3b40:	2000      	movs	r0, #0
    3b42:	4b42      	ldr	r3, [pc, #264]	; (3c4c <xTaskIncrementTick+0x12c>)
    3b44:	4798      	blx	r3
    3b46:	4b3f      	ldr	r3, [pc, #252]	; (3c44 <xTaskIncrementTick+0x124>)
    3b48:	6eda      	ldr	r2, [r3, #108]	; 0x6c
	if( uxSchedulerSuspended == ( UBaseType_t ) pdFALSE )
    3b4a:	6edb      	ldr	r3, [r3, #108]	; 0x6c
    3b4c:	2b00      	cmp	r3, #0
    3b4e:	d167      	bne.n	3c20 <xTaskIncrementTick+0x100>
	{
		/* Increment the RTOS tick, switching the delayed and overflowed
		delayed lists if it wraps to 0. */
		++xTickCount;
    3b50:	4b3f      	ldr	r3, [pc, #252]	; (3c50 <xTaskIncrementTick+0x130>)
    3b52:	6b1a      	ldr	r2, [r3, #48]	; 0x30
    3b54:	3201      	adds	r2, #1
    3b56:	631a      	str	r2, [r3, #48]	; 0x30

		{
			/* Minor optimisation.  The tick count cannot change in this
			block. */
			const TickType_t xConstTickCount = xTickCount;
    3b58:	6b1f      	ldr	r7, [r3, #48]	; 0x30

			if( xConstTickCount == ( TickType_t ) 0U )
    3b5a:	2f00      	cmp	r7, #0
    3b5c:	d110      	bne.n	3b80 <xTaskIncrementTick+0x60>
			{
				taskSWITCH_DELAYED_LISTS();
    3b5e:	6a9b      	ldr	r3, [r3, #40]	; 0x28
    3b60:	681b      	ldr	r3, [r3, #0]
    3b62:	2b00      	cmp	r3, #0
    3b64:	d001      	beq.n	3b6a <xTaskIncrementTick+0x4a>
    3b66:	b672      	cpsid	i
    3b68:	e7fe      	b.n	3b68 <xTaskIncrementTick+0x48>
    3b6a:	4b39      	ldr	r3, [pc, #228]	; (3c50 <xTaskIncrementTick+0x130>)
    3b6c:	6a9a      	ldr	r2, [r3, #40]	; 0x28
    3b6e:	6b59      	ldr	r1, [r3, #52]	; 0x34
    3b70:	6299      	str	r1, [r3, #40]	; 0x28
    3b72:	635a      	str	r2, [r3, #52]	; 0x34
    3b74:	4b33      	ldr	r3, [pc, #204]	; (3c44 <xTaskIncrementTick+0x124>)
    3b76:	6f5a      	ldr	r2, [r3, #116]	; 0x74
    3b78:	3201      	adds	r2, #1
    3b7a:	675a      	str	r2, [r3, #116]	; 0x74
    3b7c:	4b35      	ldr	r3, [pc, #212]	; (3c54 <xTaskIncrementTick+0x134>)
    3b7e:	4798      	blx	r3

			/* See if this tick has made a timeout expire.  Tasks are stored in
			the	queue in the order of their wake time - meaning once one task
			has been found whose block time has not expired there is no need to
			look any further	down the list. */
			if( xConstTickCount >= xNextTaskUnblockTime )
    3b80:	4b35      	ldr	r3, [pc, #212]	; (3c58 <xTaskIncrementTick+0x138>)
    3b82:	681b      	ldr	r3, [r3, #0]

BaseType_t xTaskIncrementTick( void )
{
TCB_t * pxTCB;
TickType_t xItemValue;
BaseType_t xSwitchRequired = pdFALSE;
    3b84:	2500      	movs	r5, #0

			/* See if this tick has made a timeout expire.  Tasks are stored in
			the	queue in the order of their wake time - meaning once one task
			has been found whose block time has not expired there is no need to
			look any further	down the list. */
			if( xConstTickCount >= xNextTaskUnblockTime )
    3b86:	429f      	cmp	r7, r3
    3b88:	d33f      	bcc.n	3c0a <xTaskIncrementTick+0xea>
			{
				for( ;; )
				{
					if( listLIST_IS_EMPTY( pxDelayedTaskList ) != pdFALSE )
    3b8a:	4a31      	ldr	r2, [pc, #196]	; (3c50 <xTaskIncrementTick+0x130>)
    3b8c:	4692      	mov	sl, r2
							mtCOVERAGE_TEST_MARKER();
						}

						/* Place the unblocked task into the appropriate ready
						list. */
						prvAddTaskToReadyList( pxTCB );
    3b8e:	4691      	mov	r9, r2
    3b90:	233c      	movs	r3, #60	; 0x3c
    3b92:	4499      	add	r9, r3
    3b94:	e000      	b.n	3b98 <xTaskIncrementTick+0x78>
							only be performed if the unblocked task has a
							priority that is equal to or higher than the
							currently executing task. */
							if( pxTCB->uxPriority >= pxCurrentTCB->uxPriority )
							{
								xSwitchRequired = pdTRUE;
    3b96:	2501      	movs	r5, #1
			look any further	down the list. */
			if( xConstTickCount >= xNextTaskUnblockTime )
			{
				for( ;; )
				{
					if( listLIST_IS_EMPTY( pxDelayedTaskList ) != pdFALSE )
    3b98:	4652      	mov	r2, sl
    3b9a:	6a93      	ldr	r3, [r2, #40]	; 0x28
    3b9c:	681b      	ldr	r3, [r3, #0]
    3b9e:	2b00      	cmp	r3, #0
    3ba0:	d104      	bne.n	3bac <xTaskIncrementTick+0x8c>
						/* The delayed list is empty.  Set xNextTaskUnblockTime
						to the maximum possible value so it is extremely
						unlikely that the
						if( xTickCount >= xNextTaskUnblockTime ) test will pass
						next time through. */
						xNextTaskUnblockTime = portMAX_DELAY;
    3ba2:	2201      	movs	r2, #1
    3ba4:	4252      	negs	r2, r2
    3ba6:	4b2c      	ldr	r3, [pc, #176]	; (3c58 <xTaskIncrementTick+0x138>)
    3ba8:	601a      	str	r2, [r3, #0]
						break;
    3baa:	e02e      	b.n	3c0a <xTaskIncrementTick+0xea>
					{
						/* The delayed list is not empty, get the value of the
						item at the head of the delayed list.  This is the time
						at which the task at the head of the delayed list must
						be removed from the Blocked state. */
						pxTCB = ( TCB_t * ) listGET_OWNER_OF_HEAD_ENTRY( pxDelayedTaskList );
    3bac:	4b28      	ldr	r3, [pc, #160]	; (3c50 <xTaskIncrementTick+0x130>)
    3bae:	6a9b      	ldr	r3, [r3, #40]	; 0x28
    3bb0:	68db      	ldr	r3, [r3, #12]
    3bb2:	68dc      	ldr	r4, [r3, #12]
						xItemValue = listGET_LIST_ITEM_VALUE( &( pxTCB->xGenericListItem ) );
    3bb4:	6863      	ldr	r3, [r4, #4]

						if( xConstTickCount < xItemValue )
    3bb6:	429f      	cmp	r7, r3
    3bb8:	d202      	bcs.n	3bc0 <xTaskIncrementTick+0xa0>
							/* It is not time to unblock this item yet, but the
							item value is the time at which the task at the head
							of the blocked list must be removed from the Blocked
							state -	so record the item value in
							xNextTaskUnblockTime. */
							xNextTaskUnblockTime = xItemValue;
    3bba:	4a27      	ldr	r2, [pc, #156]	; (3c58 <xTaskIncrementTick+0x138>)
    3bbc:	6013      	str	r3, [r2, #0]
							break;
    3bbe:	e024      	b.n	3c0a <xTaskIncrementTick+0xea>
						{
							mtCOVERAGE_TEST_MARKER();
						}

						/* It is time to remove the item from the Blocked state. */
						( void ) uxListRemove( &( pxTCB->xGenericListItem ) );
    3bc0:	1d26      	adds	r6, r4, #4
    3bc2:	1c30      	adds	r0, r6, #0
    3bc4:	4b25      	ldr	r3, [pc, #148]	; (3c5c <xTaskIncrementTick+0x13c>)
    3bc6:	4798      	blx	r3

						/* Is the task waiting on an event also?  If so remove
						it from the event list. */
						if( listLIST_ITEM_CONTAINER( &( pxTCB->xEventListItem ) ) != NULL )
    3bc8:	6aa3      	ldr	r3, [r4, #40]	; 0x28
    3bca:	2b00      	cmp	r3, #0
    3bcc:	d003      	beq.n	3bd6 <xTaskIncrementTick+0xb6>
						{
							( void ) uxListRemove( &( pxTCB->xEventListItem ) );
    3bce:	1c20      	adds	r0, r4, #0
    3bd0:	3018      	adds	r0, #24
    3bd2:	4b22      	ldr	r3, [pc, #136]	; (3c5c <xTaskIncrementTick+0x13c>)
    3bd4:	4798      	blx	r3
							mtCOVERAGE_TEST_MARKER();
						}

						/* Place the unblocked task into the appropriate ready
						list. */
						prvAddTaskToReadyList( pxTCB );
    3bd6:	1c20      	adds	r0, r4, #0
    3bd8:	4b21      	ldr	r3, [pc, #132]	; (3c60 <xTaskIncrementTick+0x140>)
    3bda:	4798      	blx	r3
    3bdc:	4b21      	ldr	r3, [pc, #132]	; (3c64 <xTaskIncrementTick+0x144>)
    3bde:	4798      	blx	r3
    3be0:	6ae3      	ldr	r3, [r4, #44]	; 0x2c
    3be2:	4a18      	ldr	r2, [pc, #96]	; (3c44 <xTaskIncrementTick+0x124>)
    3be4:	6e12      	ldr	r2, [r2, #96]	; 0x60
    3be6:	4293      	cmp	r3, r2
    3be8:	d901      	bls.n	3bee <xTaskIncrementTick+0xce>
    3bea:	4a16      	ldr	r2, [pc, #88]	; (3c44 <xTaskIncrementTick+0x124>)
    3bec:	6613      	str	r3, [r2, #96]	; 0x60
    3bee:	0098      	lsls	r0, r3, #2
    3bf0:	18c0      	adds	r0, r0, r3
    3bf2:	0080      	lsls	r0, r0, #2
    3bf4:	4448      	add	r0, r9
    3bf6:	1c31      	adds	r1, r6, #0
    3bf8:	4b1b      	ldr	r3, [pc, #108]	; (3c68 <xTaskIncrementTick+0x148>)
    3bfa:	4798      	blx	r3
						{
							/* Preemption is on, but a context switch should
							only be performed if the unblocked task has a
							priority that is equal to or higher than the
							currently executing task. */
							if( pxTCB->uxPriority >= pxCurrentTCB->uxPriority )
    3bfc:	4a14      	ldr	r2, [pc, #80]	; (3c50 <xTaskIncrementTick+0x130>)
    3bfe:	6ad3      	ldr	r3, [r2, #44]	; 0x2c
    3c00:	6ae2      	ldr	r2, [r4, #44]	; 0x2c
    3c02:	6adb      	ldr	r3, [r3, #44]	; 0x2c
    3c04:	429a      	cmp	r2, r3
    3c06:	d2c6      	bcs.n	3b96 <xTaskIncrementTick+0x76>
    3c08:	e7c6      	b.n	3b98 <xTaskIncrementTick+0x78>
		/* Tasks of equal priority to the currently running task will share
		processing time (time slice) if preemption is on, and the application
		writer has not explicitly turned time slicing off. */
		#if ( ( configUSE_PREEMPTION == 1 ) && ( configUSE_TIME_SLICING == 1 ) )
		{
			if( listCURRENT_LIST_LENGTH( &( pxReadyTasksLists[ pxCurrentTCB->uxPriority ] ) ) > ( UBaseType_t ) 1 )
    3c0a:	4b11      	ldr	r3, [pc, #68]	; (3c50 <xTaskIncrementTick+0x130>)
    3c0c:	6ada      	ldr	r2, [r3, #44]	; 0x2c
    3c0e:	6ad2      	ldr	r2, [r2, #44]	; 0x2c
    3c10:	0091      	lsls	r1, r2, #2
    3c12:	188a      	adds	r2, r1, r2
    3c14:	0092      	lsls	r2, r2, #2
    3c16:	189b      	adds	r3, r3, r2
    3c18:	6bdb      	ldr	r3, [r3, #60]	; 0x3c
    3c1a:	2b01      	cmp	r3, #1
    3c1c:	d806      	bhi.n	3c2c <xTaskIncrementTick+0x10c>
    3c1e:	e006      	b.n	3c2e <xTaskIncrementTick+0x10e>
		}
		#endif /* configUSE_TICK_HOOK */
	}
	else
	{
		++uxPendedTicks;
    3c20:	4b08      	ldr	r3, [pc, #32]	; (3c44 <xTaskIncrementTick+0x124>)
    3c22:	6f1a      	ldr	r2, [r3, #112]	; 0x70
    3c24:	3201      	adds	r2, #1
    3c26:	671a      	str	r2, [r3, #112]	; 0x70

BaseType_t xTaskIncrementTick( void )
{
TCB_t * pxTCB;
TickType_t xItemValue;
BaseType_t xSwitchRequired = pdFALSE;
    3c28:	2500      	movs	r5, #0
    3c2a:	e000      	b.n	3c2e <xTaskIncrementTick+0x10e>
		writer has not explicitly turned time slicing off. */
		#if ( ( configUSE_PREEMPTION == 1 ) && ( configUSE_TIME_SLICING == 1 ) )
		{
			if( listCURRENT_LIST_LENGTH( &( pxReadyTasksLists[ pxCurrentTCB->uxPriority ] ) ) > ( UBaseType_t ) 1 )
			{
				xSwitchRequired = pdTRUE;
    3c2c:	2501      	movs	r5, #1
		#endif
	}

	#if ( configUSE_PREEMPTION == 1 )
	{
		if( xYieldPending != pdFALSE )
    3c2e:	4b05      	ldr	r3, [pc, #20]	; (3c44 <xTaskIncrementTick+0x124>)
    3c30:	6f9b      	ldr	r3, [r3, #120]	; 0x78
    3c32:	2b00      	cmp	r3, #0
    3c34:	d000      	beq.n	3c38 <xTaskIncrementTick+0x118>
		{
			xSwitchRequired = pdTRUE;
    3c36:	2501      	movs	r5, #1
		}
	}
	#endif /* configUSE_PREEMPTION */

	return xSwitchRequired;
}
    3c38:	1c28      	adds	r0, r5, #0
    3c3a:	bc0c      	pop	{r2, r3}
    3c3c:	4691      	mov	r9, r2
    3c3e:	469a      	mov	sl, r3
    3c40:	bdf8      	pop	{r3, r4, r5, r6, r7, pc}
    3c42:	46c0      	nop			; (mov r8, r8)
    3c44:	200015a4 	.word	0x200015a4
    3c48:	2000056c 	.word	0x2000056c
    3c4c:	000019e1 	.word	0x000019e1
    3c50:	20001524 	.word	0x20001524
    3c54:	0000365d 	.word	0x0000365d
    3c58:	20000014 	.word	0x20000014
    3c5c:	000029e9 	.word	0x000029e9
    3c60:	000021e1 	.word	0x000021e1
    3c64:	00001a59 	.word	0x00001a59
    3c68:	000029a1 	.word	0x000029a1

00003c6c <xTaskResumeAll>:

#endif /* configUSE_TICKLESS_IDLE */
/*----------------------------------------------------------*/

BaseType_t xTaskResumeAll( void )
{
    3c6c:	b5f0      	push	{r4, r5, r6, r7, lr}
    3c6e:	4647      	mov	r7, r8
    3c70:	b480      	push	{r7}
TCB_t *pxTCB;
BaseType_t xAlreadyYielded = pdFALSE;

	/* If uxSchedulerSuspended is zero then this function does not match a
	previous call to vTaskSuspendAll(). */
	configASSERT( uxSchedulerSuspended );
    3c72:	4b33      	ldr	r3, [pc, #204]	; (3d40 <xTaskResumeAll+0xd4>)
    3c74:	6edb      	ldr	r3, [r3, #108]	; 0x6c
    3c76:	2b00      	cmp	r3, #0
    3c78:	d101      	bne.n	3c7e <xTaskResumeAll+0x12>
    3c7a:	b672      	cpsid	i
    3c7c:	e7fe      	b.n	3c7c <xTaskResumeAll+0x10>
	/* It is possible that an ISR caused a task to be removed from an event
	list while the scheduler was suspended.  If this was the case then the
	removed task will have been added to the xPendingReadyList.  Once the
	scheduler has been resumed it is safe to move all the pending ready
	tasks from this list into their appropriate ready list. */
	taskENTER_CRITICAL();
    3c7e:	4b31      	ldr	r3, [pc, #196]	; (3d44 <xTaskResumeAll+0xd8>)
    3c80:	4798      	blx	r3
	{
		--uxSchedulerSuspended;
    3c82:	4b2f      	ldr	r3, [pc, #188]	; (3d40 <xTaskResumeAll+0xd4>)
    3c84:	6eda      	ldr	r2, [r3, #108]	; 0x6c
    3c86:	3a01      	subs	r2, #1
    3c88:	66da      	str	r2, [r3, #108]	; 0x6c

		if( uxSchedulerSuspended == ( UBaseType_t ) pdFALSE )
    3c8a:	6edb      	ldr	r3, [r3, #108]	; 0x6c
/*----------------------------------------------------------*/

BaseType_t xTaskResumeAll( void )
{
TCB_t *pxTCB;
BaseType_t xAlreadyYielded = pdFALSE;
    3c8c:	2400      	movs	r4, #0
	tasks from this list into their appropriate ready list. */
	taskENTER_CRITICAL();
	{
		--uxSchedulerSuspended;

		if( uxSchedulerSuspended == ( UBaseType_t ) pdFALSE )
    3c8e:	2b00      	cmp	r3, #0
    3c90:	d14f      	bne.n	3d32 <xTaskResumeAll+0xc6>
		{
			if( uxCurrentNumberOfTasks > ( UBaseType_t ) 0U )
    3c92:	4b2d      	ldr	r3, [pc, #180]	; (3d48 <xTaskResumeAll+0xdc>)
    3c94:	6b9b      	ldr	r3, [r3, #56]	; 0x38
    3c96:	2b00      	cmp	r3, #0
    3c98:	d04b      	beq.n	3d32 <xTaskResumeAll+0xc6>
			{
				/* Move any readied tasks from the pending list into the
				appropriate ready list. */
				while( listLIST_IS_EMPTY( &xPendingReadyList ) == pdFALSE )
    3c9a:	4d2b      	ldr	r5, [pc, #172]	; (3d48 <xTaskResumeAll+0xdc>)
				{
					pxTCB = ( TCB_t * ) listGET_OWNER_OF_HEAD_ENTRY( ( &xPendingReadyList ) );
					( void ) uxListRemove( &( pxTCB->xEventListItem ) );
					( void ) uxListRemove( &( pxTCB->xGenericListItem ) );
					prvAddTaskToReadyList( pxTCB );
    3c9c:	46a8      	mov	r8, r5
    3c9e:	223c      	movs	r2, #60	; 0x3c
    3ca0:	4490      	add	r8, r2
    3ca2:	e025      	b.n	3cf0 <xTaskResumeAll+0x84>
			{
				/* Move any readied tasks from the pending list into the
				appropriate ready list. */
				while( listLIST_IS_EMPTY( &xPendingReadyList ) == pdFALSE )
				{
					pxTCB = ( TCB_t * ) listGET_OWNER_OF_HEAD_ENTRY( ( &xPendingReadyList ) );
    3ca4:	4b28      	ldr	r3, [pc, #160]	; (3d48 <xTaskResumeAll+0xdc>)
    3ca6:	6a1b      	ldr	r3, [r3, #32]
    3ca8:	68dc      	ldr	r4, [r3, #12]
					( void ) uxListRemove( &( pxTCB->xEventListItem ) );
    3caa:	1c20      	adds	r0, r4, #0
    3cac:	3018      	adds	r0, #24
    3cae:	4f27      	ldr	r7, [pc, #156]	; (3d4c <xTaskResumeAll+0xe0>)
    3cb0:	47b8      	blx	r7
					( void ) uxListRemove( &( pxTCB->xGenericListItem ) );
    3cb2:	1d26      	adds	r6, r4, #4
    3cb4:	1c30      	adds	r0, r6, #0
    3cb6:	47b8      	blx	r7
					prvAddTaskToReadyList( pxTCB );
    3cb8:	1c20      	adds	r0, r4, #0
    3cba:	4b25      	ldr	r3, [pc, #148]	; (3d50 <xTaskResumeAll+0xe4>)
    3cbc:	4798      	blx	r3
    3cbe:	4b25      	ldr	r3, [pc, #148]	; (3d54 <xTaskResumeAll+0xe8>)
    3cc0:	4798      	blx	r3
    3cc2:	6ae3      	ldr	r3, [r4, #44]	; 0x2c
    3cc4:	4a1e      	ldr	r2, [pc, #120]	; (3d40 <xTaskResumeAll+0xd4>)
    3cc6:	6e12      	ldr	r2, [r2, #96]	; 0x60
    3cc8:	4293      	cmp	r3, r2
    3cca:	d901      	bls.n	3cd0 <xTaskResumeAll+0x64>
    3ccc:	4a1c      	ldr	r2, [pc, #112]	; (3d40 <xTaskResumeAll+0xd4>)
    3cce:	6613      	str	r3, [r2, #96]	; 0x60
    3cd0:	0098      	lsls	r0, r3, #2
    3cd2:	18c0      	adds	r0, r0, r3
    3cd4:	0080      	lsls	r0, r0, #2
    3cd6:	4440      	add	r0, r8
    3cd8:	1c31      	adds	r1, r6, #0
    3cda:	4b1f      	ldr	r3, [pc, #124]	; (3d58 <xTaskResumeAll+0xec>)
    3cdc:	4798      	blx	r3

					/* If we have moved a task that has a priority higher than
					the current task then we should yield. */
					if( pxTCB->uxPriority >= pxCurrentTCB->uxPriority )
    3cde:	4a1a      	ldr	r2, [pc, #104]	; (3d48 <xTaskResumeAll+0xdc>)
    3ce0:	6ad3      	ldr	r3, [r2, #44]	; 0x2c
    3ce2:	6ae2      	ldr	r2, [r4, #44]	; 0x2c
    3ce4:	6adb      	ldr	r3, [r3, #44]	; 0x2c
    3ce6:	429a      	cmp	r2, r3
    3ce8:	d302      	bcc.n	3cf0 <xTaskResumeAll+0x84>
					{
						xYieldPending = pdTRUE;
    3cea:	2201      	movs	r2, #1
    3cec:	4b14      	ldr	r3, [pc, #80]	; (3d40 <xTaskResumeAll+0xd4>)
    3cee:	679a      	str	r2, [r3, #120]	; 0x78
		{
			if( uxCurrentNumberOfTasks > ( UBaseType_t ) 0U )
			{
				/* Move any readied tasks from the pending list into the
				appropriate ready list. */
				while( listLIST_IS_EMPTY( &xPendingReadyList ) == pdFALSE )
    3cf0:	696b      	ldr	r3, [r5, #20]
    3cf2:	2b00      	cmp	r3, #0
    3cf4:	d1d6      	bne.n	3ca4 <xTaskResumeAll+0x38>

				/* If any ticks occurred while the scheduler was suspended then
				they should be processed now.  This ensures the tick count does
				not	slip, and that any delayed tasks are resumed at the correct
				time. */
				if( uxPendedTicks > ( UBaseType_t ) 0U )
    3cf6:	4b12      	ldr	r3, [pc, #72]	; (3d40 <xTaskResumeAll+0xd4>)
    3cf8:	6f1b      	ldr	r3, [r3, #112]	; 0x70
    3cfa:	2b00      	cmp	r3, #0
    3cfc:	d011      	beq.n	3d22 <xTaskResumeAll+0xb6>
				{
					while( uxPendedTicks > ( UBaseType_t ) 0U )
    3cfe:	4b10      	ldr	r3, [pc, #64]	; (3d40 <xTaskResumeAll+0xd4>)
    3d00:	6f1b      	ldr	r3, [r3, #112]	; 0x70
    3d02:	2b00      	cmp	r3, #0
    3d04:	d00d      	beq.n	3d22 <xTaskResumeAll+0xb6>
					{
						if( xTaskIncrementTick() != pdFALSE )
    3d06:	4e15      	ldr	r6, [pc, #84]	; (3d5c <xTaskResumeAll+0xf0>)
						{
							xYieldPending = pdTRUE;
    3d08:	4d0d      	ldr	r5, [pc, #52]	; (3d40 <xTaskResumeAll+0xd4>)
						}
						else
						{
							mtCOVERAGE_TEST_MARKER();
						}
						--uxPendedTicks;
    3d0a:	1c2c      	adds	r4, r5, #0
				time. */
				if( uxPendedTicks > ( UBaseType_t ) 0U )
				{
					while( uxPendedTicks > ( UBaseType_t ) 0U )
					{
						if( xTaskIncrementTick() != pdFALSE )
    3d0c:	47b0      	blx	r6
    3d0e:	2800      	cmp	r0, #0
    3d10:	d001      	beq.n	3d16 <xTaskResumeAll+0xaa>
						{
							xYieldPending = pdTRUE;
    3d12:	2301      	movs	r3, #1
    3d14:	67ab      	str	r3, [r5, #120]	; 0x78
						}
						else
						{
							mtCOVERAGE_TEST_MARKER();
						}
						--uxPendedTicks;
    3d16:	6f23      	ldr	r3, [r4, #112]	; 0x70
    3d18:	3b01      	subs	r3, #1
    3d1a:	6723      	str	r3, [r4, #112]	; 0x70
				they should be processed now.  This ensures the tick count does
				not	slip, and that any delayed tasks are resumed at the correct
				time. */
				if( uxPendedTicks > ( UBaseType_t ) 0U )
				{
					while( uxPendedTicks > ( UBaseType_t ) 0U )
    3d1c:	6f23      	ldr	r3, [r4, #112]	; 0x70
    3d1e:	2b00      	cmp	r3, #0
    3d20:	d1f4      	bne.n	3d0c <xTaskResumeAll+0xa0>
				else
				{
					mtCOVERAGE_TEST_MARKER();
				}

				if( xYieldPending == pdTRUE )
    3d22:	4b07      	ldr	r3, [pc, #28]	; (3d40 <xTaskResumeAll+0xd4>)
    3d24:	6f9b      	ldr	r3, [r3, #120]	; 0x78
/*----------------------------------------------------------*/

BaseType_t xTaskResumeAll( void )
{
TCB_t *pxTCB;
BaseType_t xAlreadyYielded = pdFALSE;
    3d26:	2400      	movs	r4, #0
				else
				{
					mtCOVERAGE_TEST_MARKER();
				}

				if( xYieldPending == pdTRUE )
    3d28:	2b01      	cmp	r3, #1
    3d2a:	d102      	bne.n	3d32 <xTaskResumeAll+0xc6>
					#if( configUSE_PREEMPTION != 0 )
					{
						xAlreadyYielded = pdTRUE;
					}
					#endif
					taskYIELD_IF_USING_PREEMPTION();
    3d2c:	4b0c      	ldr	r3, [pc, #48]	; (3d60 <xTaskResumeAll+0xf4>)
    3d2e:	4798      	blx	r3

				if( xYieldPending == pdTRUE )
				{
					#if( configUSE_PREEMPTION != 0 )
					{
						xAlreadyYielded = pdTRUE;
    3d30:	2401      	movs	r4, #1
		else
		{
			mtCOVERAGE_TEST_MARKER();
		}
	}
	taskEXIT_CRITICAL();
    3d32:	4b0c      	ldr	r3, [pc, #48]	; (3d64 <xTaskResumeAll+0xf8>)
    3d34:	4798      	blx	r3

	return xAlreadyYielded;
}
    3d36:	1c20      	adds	r0, r4, #0
    3d38:	bc04      	pop	{r2}
    3d3a:	4690      	mov	r8, r2
    3d3c:	bdf0      	pop	{r4, r5, r6, r7, pc}
    3d3e:	46c0      	nop			; (mov r8, r8)
    3d40:	200015a4 	.word	0x200015a4
    3d44:	00002a7d 	.word	0x00002a7d
    3d48:	20001524 	.word	0x20001524
    3d4c:	000029e9 	.word	0x000029e9
    3d50:	000021e1 	.word	0x000021e1
    3d54:	00001a59 	.word	0x00001a59
    3d58:	000029a1 	.word	0x000029a1
    3d5c:	00003b21 	.word	0x00003b21
    3d60:	00002a65 	.word	0x00002a65
    3d64:	00002a95 	.word	0x00002a95

00003d68 <prvIdleTask>:
 *
 * void prvIdleTask( void *pvParameters );
 *
 */
static portTASK_FUNCTION( prvIdleTask, pvParameters )
{
    3d68:	b5f8      	push	{r3, r4, r5, r6, r7, lr}
	{
		BaseType_t xListIsEmpty;

		/* ucTasksDeleted is used to prevent vTaskSuspendAll() being called
		too often in the idle task. */
		while( uxTasksDeleted > ( UBaseType_t ) 0U )
    3d6a:	4e15      	ldr	r6, [pc, #84]	; (3dc0 <prvIdleTask+0x58>)

			A critical region is not required here as we are just reading from
			the list, and an occasional incorrect value will not matter.  If
			the ready list at the idle priority contains more than one task
			then a task other than the idle task is ready to execute. */
			if( listCURRENT_LIST_LENGTH( &( pxReadyTasksLists[ tskIDLE_PRIORITY ] ) ) > ( UBaseType_t ) 1 )
    3d6c:	4f15      	ldr	r7, [pc, #84]	; (3dc4 <prvIdleTask+0x5c>)
    3d6e:	e01d      	b.n	3dac <prvIdleTask+0x44>

		/* ucTasksDeleted is used to prevent vTaskSuspendAll() being called
		too often in the idle task. */
		while( uxTasksDeleted > ( UBaseType_t ) 0U )
		{
			vTaskSuspendAll();
    3d70:	4b15      	ldr	r3, [pc, #84]	; (3dc8 <prvIdleTask+0x60>)
    3d72:	4798      	blx	r3
			{
				xListIsEmpty = listLIST_IS_EMPTY( &xTasksWaitingTermination );
    3d74:	4b12      	ldr	r3, [pc, #72]	; (3dc0 <prvIdleTask+0x58>)
    3d76:	6c9c      	ldr	r4, [r3, #72]	; 0x48
			}
			( void ) xTaskResumeAll();
    3d78:	4b14      	ldr	r3, [pc, #80]	; (3dcc <prvIdleTask+0x64>)
    3d7a:	4798      	blx	r3

			if( xListIsEmpty == pdFALSE )
    3d7c:	2c00      	cmp	r4, #0
    3d7e:	d015      	beq.n	3dac <prvIdleTask+0x44>
			{
				TCB_t *pxTCB;

				taskENTER_CRITICAL();
    3d80:	4b13      	ldr	r3, [pc, #76]	; (3dd0 <prvIdleTask+0x68>)
    3d82:	4798      	blx	r3
				{
					pxTCB = ( TCB_t * ) listGET_OWNER_OF_HEAD_ENTRY( ( &xTasksWaitingTermination ) );
    3d84:	4d0e      	ldr	r5, [pc, #56]	; (3dc0 <prvIdleTask+0x58>)
    3d86:	6d6b      	ldr	r3, [r5, #84]	; 0x54
    3d88:	68dc      	ldr	r4, [r3, #12]
					( void ) uxListRemove( &( pxTCB->xGenericListItem ) );
    3d8a:	1d20      	adds	r0, r4, #4
    3d8c:	4b11      	ldr	r3, [pc, #68]	; (3dd4 <prvIdleTask+0x6c>)
    3d8e:	4798      	blx	r3
					--uxCurrentNumberOfTasks;
    3d90:	4b0c      	ldr	r3, [pc, #48]	; (3dc4 <prvIdleTask+0x5c>)
    3d92:	6b9a      	ldr	r2, [r3, #56]	; 0x38
    3d94:	3a01      	subs	r2, #1
    3d96:	639a      	str	r2, [r3, #56]	; 0x38
					--uxTasksDeleted;
    3d98:	6eab      	ldr	r3, [r5, #104]	; 0x68
    3d9a:	3b01      	subs	r3, #1
    3d9c:	66ab      	str	r3, [r5, #104]	; 0x68
				}
				taskEXIT_CRITICAL();
    3d9e:	4b0e      	ldr	r3, [pc, #56]	; (3dd8 <prvIdleTask+0x70>)
    3da0:	4798      	blx	r3
		#if ( configUSE_NEWLIB_REENTRANT == 1 )
		{
			_reclaim_reent( &( pxTCB->xNewLib_reent ) );
		}
		#endif /* configUSE_NEWLIB_REENTRANT */
		vPortFreeAligned( pxTCB->pxStack );
    3da2:	6b20      	ldr	r0, [r4, #48]	; 0x30
    3da4:	4d0d      	ldr	r5, [pc, #52]	; (3ddc <prvIdleTask+0x74>)
    3da6:	47a8      	blx	r5
		vPortFree( pxTCB );
    3da8:	1c20      	adds	r0, r4, #0
    3daa:	47a8      	blx	r5
	{
		BaseType_t xListIsEmpty;

		/* ucTasksDeleted is used to prevent vTaskSuspendAll() being called
		too often in the idle task. */
		while( uxTasksDeleted > ( UBaseType_t ) 0U )
    3dac:	6eb3      	ldr	r3, [r6, #104]	; 0x68
    3dae:	2b00      	cmp	r3, #0
    3db0:	d1de      	bne.n	3d70 <prvIdleTask+0x8>

			A critical region is not required here as we are just reading from
			the list, and an occasional incorrect value will not matter.  If
			the ready list at the idle priority contains more than one task
			then a task other than the idle task is ready to execute. */
			if( listCURRENT_LIST_LENGTH( &( pxReadyTasksLists[ tskIDLE_PRIORITY ] ) ) > ( UBaseType_t ) 1 )
    3db2:	6bfb      	ldr	r3, [r7, #60]	; 0x3c
    3db4:	2b01      	cmp	r3, #1
    3db6:	d9f9      	bls.n	3dac <prvIdleTask+0x44>
			{
				taskYIELD();
    3db8:	4b09      	ldr	r3, [pc, #36]	; (3de0 <prvIdleTask+0x78>)
    3dba:	4798      	blx	r3
    3dbc:	e7f6      	b.n	3dac <prvIdleTask+0x44>
    3dbe:	46c0      	nop			; (mov r8, r8)
    3dc0:	200015a4 	.word	0x200015a4
    3dc4:	20001524 	.word	0x20001524
    3dc8:	00003ad1 	.word	0x00003ad1
    3dcc:	00003c6d 	.word	0x00003c6d
    3dd0:	00002a7d 	.word	0x00002a7d
    3dd4:	000029e9 	.word	0x000029e9
    3dd8:	00002a95 	.word	0x00002a95
    3ddc:	00002c05 	.word	0x00002c05
    3de0:	00002a65 	.word	0x00002a65

00003de4 <vTaskSwitchContext>:

#endif /* configUSE_APPLICATION_TASK_TAG */
/*-----------------------------------------------------------*/

void vTaskSwitchContext( void )
{
    3de4:	b510      	push	{r4, lr}
	if( uxSchedulerSuspended != ( UBaseType_t ) pdFALSE )
    3de6:	4b24      	ldr	r3, [pc, #144]	; (3e78 <vTaskSwitchContext+0x94>)
    3de8:	6edb      	ldr	r3, [r3, #108]	; 0x6c
    3dea:	2b00      	cmp	r3, #0
    3dec:	d003      	beq.n	3df6 <vTaskSwitchContext+0x12>
	{
		/* The scheduler is currently suspended - do not allow a context
		switch. */
		xYieldPending = pdTRUE;
    3dee:	2201      	movs	r2, #1
    3df0:	4b21      	ldr	r3, [pc, #132]	; (3e78 <vTaskSwitchContext+0x94>)
    3df2:	679a      	str	r2, [r3, #120]	; 0x78
    3df4:	e03e      	b.n	3e74 <vTaskSwitchContext+0x90>
	}
	else
	{
		xYieldPending = pdFALSE;
    3df6:	4b20      	ldr	r3, [pc, #128]	; (3e78 <vTaskSwitchContext+0x94>)
    3df8:	2200      	movs	r2, #0
    3dfa:	679a      	str	r2, [r3, #120]	; 0x78
		#endif /* configGENERATE_RUN_TIME_STATS */

		taskFIRST_CHECK_FOR_STACK_OVERFLOW();
		taskSECOND_CHECK_FOR_STACK_OVERFLOW();

		taskSELECT_HIGHEST_PRIORITY_TASK();
    3dfc:	6e1b      	ldr	r3, [r3, #96]	; 0x60
    3dfe:	009a      	lsls	r2, r3, #2
    3e00:	18d3      	adds	r3, r2, r3
    3e02:	009b      	lsls	r3, r3, #2
    3e04:	4a1d      	ldr	r2, [pc, #116]	; (3e7c <vTaskSwitchContext+0x98>)
    3e06:	18d3      	adds	r3, r2, r3
    3e08:	6bdb      	ldr	r3, [r3, #60]	; 0x3c
    3e0a:	2b00      	cmp	r3, #0
    3e0c:	d117      	bne.n	3e3e <vTaskSwitchContext+0x5a>
    3e0e:	4b1a      	ldr	r3, [pc, #104]	; (3e78 <vTaskSwitchContext+0x94>)
    3e10:	6e1b      	ldr	r3, [r3, #96]	; 0x60
    3e12:	2b00      	cmp	r3, #0
    3e14:	d105      	bne.n	3e22 <vTaskSwitchContext+0x3e>
    3e16:	e002      	b.n	3e1e <vTaskSwitchContext+0x3a>
    3e18:	6e02      	ldr	r2, [r0, #96]	; 0x60
    3e1a:	2a00      	cmp	r2, #0
    3e1c:	d104      	bne.n	3e28 <vTaskSwitchContext+0x44>
    3e1e:	b672      	cpsid	i
    3e20:	e7fe      	b.n	3e20 <vTaskSwitchContext+0x3c>
    3e22:	4b15      	ldr	r3, [pc, #84]	; (3e78 <vTaskSwitchContext+0x94>)
    3e24:	4c15      	ldr	r4, [pc, #84]	; (3e7c <vTaskSwitchContext+0x98>)
    3e26:	1c18      	adds	r0, r3, #0
    3e28:	6e1a      	ldr	r2, [r3, #96]	; 0x60
    3e2a:	3a01      	subs	r2, #1
    3e2c:	661a      	str	r2, [r3, #96]	; 0x60
    3e2e:	6e1a      	ldr	r2, [r3, #96]	; 0x60
    3e30:	0091      	lsls	r1, r2, #2
    3e32:	188a      	adds	r2, r1, r2
    3e34:	0092      	lsls	r2, r2, #2
    3e36:	18a2      	adds	r2, r4, r2
    3e38:	6bd2      	ldr	r2, [r2, #60]	; 0x3c
    3e3a:	2a00      	cmp	r2, #0
    3e3c:	d0ec      	beq.n	3e18 <vTaskSwitchContext+0x34>
    3e3e:	4b0e      	ldr	r3, [pc, #56]	; (3e78 <vTaskSwitchContext+0x94>)
    3e40:	6e1b      	ldr	r3, [r3, #96]	; 0x60
    3e42:	009a      	lsls	r2, r3, #2
    3e44:	18d3      	adds	r3, r2, r3
    3e46:	009b      	lsls	r3, r3, #2
    3e48:	4a0c      	ldr	r2, [pc, #48]	; (3e7c <vTaskSwitchContext+0x98>)
    3e4a:	323c      	adds	r2, #60	; 0x3c
    3e4c:	18d3      	adds	r3, r2, r3
    3e4e:	685a      	ldr	r2, [r3, #4]
    3e50:	6852      	ldr	r2, [r2, #4]
    3e52:	605a      	str	r2, [r3, #4]
    3e54:	1c19      	adds	r1, r3, #0
    3e56:	3108      	adds	r1, #8
    3e58:	428a      	cmp	r2, r1
    3e5a:	d101      	bne.n	3e60 <vTaskSwitchContext+0x7c>
    3e5c:	6852      	ldr	r2, [r2, #4]
    3e5e:	605a      	str	r2, [r3, #4]
    3e60:	685b      	ldr	r3, [r3, #4]
    3e62:	68da      	ldr	r2, [r3, #12]
    3e64:	4b05      	ldr	r3, [pc, #20]	; (3e7c <vTaskSwitchContext+0x98>)
    3e66:	62da      	str	r2, [r3, #44]	; 0x2c

		traceTASK_SWITCHED_IN();
    3e68:	4b05      	ldr	r3, [pc, #20]	; (3e80 <vTaskSwitchContext+0x9c>)
    3e6a:	4798      	blx	r3
    3e6c:	4b05      	ldr	r3, [pc, #20]	; (3e84 <vTaskSwitchContext+0xa0>)
    3e6e:	4798      	blx	r3
    3e70:	4b05      	ldr	r3, [pc, #20]	; (3e88 <vTaskSwitchContext+0xa4>)
    3e72:	4798      	blx	r3
			structure specific to this task. */
			_impure_ptr = &( pxCurrentTCB->xNewLib_reent );
		}
		#endif /* configUSE_NEWLIB_REENTRANT */
	}
}
    3e74:	bd10      	pop	{r4, pc}
    3e76:	46c0      	nop			; (mov r8, r8)
    3e78:	200015a4 	.word	0x200015a4
    3e7c:	20001524 	.word	0x20001524
    3e80:	000021f1 	.word	0x000021f1
    3e84:	000021e1 	.word	0x000021e1
    3e88:	000020b5 	.word	0x000020b5

00003e8c <vTaskSuspend>:
/*-----------------------------------------------------------*/

#if ( INCLUDE_vTaskSuspend == 1 )

	void vTaskSuspend( TaskHandle_t xTaskToSuspend )
	{
    3e8c:	b570      	push	{r4, r5, r6, lr}
    3e8e:	1c04      	adds	r4, r0, #0
	TCB_t *pxTCB;

		taskENTER_CRITICAL();
    3e90:	4b25      	ldr	r3, [pc, #148]	; (3f28 <vTaskSuspend+0x9c>)
    3e92:	4798      	blx	r3
		{
			/* If null is passed in here then it is the running task that is
			being suspended. */
			pxTCB = prvGetTCBFromHandle( xTaskToSuspend );
    3e94:	2c00      	cmp	r4, #0
    3e96:	d101      	bne.n	3e9c <vTaskSuspend+0x10>
    3e98:	4b24      	ldr	r3, [pc, #144]	; (3f2c <vTaskSuspend+0xa0>)
    3e9a:	6adc      	ldr	r4, [r3, #44]	; 0x2c

			traceTASK_SUSPEND( pxTCB );
    3e9c:	1c20      	adds	r0, r4, #0
    3e9e:	4d24      	ldr	r5, [pc, #144]	; (3f30 <vTaskSuspend+0xa4>)
    3ea0:	47a8      	blx	r5
    3ea2:	1c02      	adds	r2, r0, #0
    3ea4:	208a      	movs	r0, #138	; 0x8a
    3ea6:	2103      	movs	r1, #3
    3ea8:	4b22      	ldr	r3, [pc, #136]	; (3f34 <vTaskSuspend+0xa8>)
    3eaa:	4798      	blx	r3
    3eac:	1c20      	adds	r0, r4, #0
    3eae:	47a8      	blx	r5
    3eb0:	4b21      	ldr	r3, [pc, #132]	; (3f38 <vTaskSuspend+0xac>)
    3eb2:	4798      	blx	r3

			/* Remove task from the ready/delayed list and place in the
			suspended list. */
			if( uxListRemove( &( pxTCB->xGenericListItem ) ) == ( UBaseType_t ) 0 )
    3eb4:	1d26      	adds	r6, r4, #4
    3eb6:	1c30      	adds	r0, r6, #0
    3eb8:	4b20      	ldr	r3, [pc, #128]	; (3f3c <vTaskSuspend+0xb0>)
    3eba:	4798      	blx	r3
			{
				mtCOVERAGE_TEST_MARKER();
			}

			/* Is the task waiting on an event also? */
			if( listLIST_ITEM_CONTAINER( &( pxTCB->xEventListItem ) ) != NULL )
    3ebc:	6aa3      	ldr	r3, [r4, #40]	; 0x28
    3ebe:	2b00      	cmp	r3, #0
    3ec0:	d003      	beq.n	3eca <vTaskSuspend+0x3e>
			{
				( void ) uxListRemove( &( pxTCB->xEventListItem ) );
    3ec2:	1c20      	adds	r0, r4, #0
    3ec4:	3018      	adds	r0, #24
    3ec6:	4b1d      	ldr	r3, [pc, #116]	; (3f3c <vTaskSuspend+0xb0>)
    3ec8:	4798      	blx	r3
			else
			{
				mtCOVERAGE_TEST_MARKER();
			}

			vListInsertEnd( &xSuspendedTaskList, &( pxTCB->xGenericListItem ) );
    3eca:	4d18      	ldr	r5, [pc, #96]	; (3f2c <vTaskSuspend+0xa0>)
    3ecc:	1c28      	adds	r0, r5, #0
    3ece:	1c31      	adds	r1, r6, #0
    3ed0:	4b1b      	ldr	r3, [pc, #108]	; (3f40 <vTaskSuspend+0xb4>)
    3ed2:	4798      	blx	r3
		}
		taskEXIT_CRITICAL();
    3ed4:	4b1b      	ldr	r3, [pc, #108]	; (3f44 <vTaskSuspend+0xb8>)
    3ed6:	4798      	blx	r3

		if( pxTCB == pxCurrentTCB )
    3ed8:	6aeb      	ldr	r3, [r5, #44]	; 0x2c
    3eda:	429c      	cmp	r4, r3
    3edc:	d118      	bne.n	3f10 <vTaskSuspend+0x84>
		{
			if( xSchedulerRunning != pdFALSE )
    3ede:	4b1a      	ldr	r3, [pc, #104]	; (3f48 <vTaskSuspend+0xbc>)
    3ee0:	6ddb      	ldr	r3, [r3, #92]	; 0x5c
    3ee2:	2b00      	cmp	r3, #0
    3ee4:	d008      	beq.n	3ef8 <vTaskSuspend+0x6c>
			{
				/* The current task has just been suspended. */
				configASSERT( uxSchedulerSuspended == 0 );
    3ee6:	4b18      	ldr	r3, [pc, #96]	; (3f48 <vTaskSuspend+0xbc>)
    3ee8:	6edb      	ldr	r3, [r3, #108]	; 0x6c
    3eea:	2b00      	cmp	r3, #0
    3eec:	d001      	beq.n	3ef2 <vTaskSuspend+0x66>
    3eee:	b672      	cpsid	i
    3ef0:	e7fe      	b.n	3ef0 <vTaskSuspend+0x64>
				portYIELD_WITHIN_API();
    3ef2:	4b16      	ldr	r3, [pc, #88]	; (3f4c <vTaskSuspend+0xc0>)
    3ef4:	4798      	blx	r3
    3ef6:	e015      	b.n	3f24 <vTaskSuspend+0x98>
			else
			{
				/* The scheduler is not running, but the task that was pointed
				to by pxCurrentTCB has just been suspended and pxCurrentTCB
				must be adjusted to point to a different task. */
				if( listCURRENT_LIST_LENGTH( &xSuspendedTaskList ) == uxCurrentNumberOfTasks )
    3ef8:	4b0c      	ldr	r3, [pc, #48]	; (3f2c <vTaskSuspend+0xa0>)
    3efa:	6b9a      	ldr	r2, [r3, #56]	; 0x38
    3efc:	681b      	ldr	r3, [r3, #0]
    3efe:	4293      	cmp	r3, r2
    3f00:	d103      	bne.n	3f0a <vTaskSuspend+0x7e>
				{
					/* No other tasks are ready, so set pxCurrentTCB back to
					NULL so when the next task is created pxCurrentTCB will
					be set to point to it no matter what its relative priority
					is. */
					pxCurrentTCB = NULL;
    3f02:	2200      	movs	r2, #0
    3f04:	4b09      	ldr	r3, [pc, #36]	; (3f2c <vTaskSuspend+0xa0>)
    3f06:	62da      	str	r2, [r3, #44]	; 0x2c
    3f08:	e00c      	b.n	3f24 <vTaskSuspend+0x98>
				}
				else
				{
					vTaskSwitchContext();
    3f0a:	4b11      	ldr	r3, [pc, #68]	; (3f50 <vTaskSuspend+0xc4>)
    3f0c:	4798      	blx	r3
    3f0e:	e009      	b.n	3f24 <vTaskSuspend+0x98>
				}
			}
		}
		else
		{
			if( xSchedulerRunning != pdFALSE )
    3f10:	4b0d      	ldr	r3, [pc, #52]	; (3f48 <vTaskSuspend+0xbc>)
    3f12:	6ddb      	ldr	r3, [r3, #92]	; 0x5c
    3f14:	2b00      	cmp	r3, #0
    3f16:	d005      	beq.n	3f24 <vTaskSuspend+0x98>
			{
				/* A task other than the currently running task was suspended,
				reset the next expected unblock time in case it referred to the
				task that is now in the Suspended state. */
				taskENTER_CRITICAL();
    3f18:	4b03      	ldr	r3, [pc, #12]	; (3f28 <vTaskSuspend+0x9c>)
    3f1a:	4798      	blx	r3
				{
					prvResetNextTaskUnblockTime();
    3f1c:	4b0d      	ldr	r3, [pc, #52]	; (3f54 <vTaskSuspend+0xc8>)
    3f1e:	4798      	blx	r3
				}
				taskEXIT_CRITICAL();
    3f20:	4b08      	ldr	r3, [pc, #32]	; (3f44 <vTaskSuspend+0xb8>)
    3f22:	4798      	blx	r3
			else
			{
				mtCOVERAGE_TEST_MARKER();
			}
		}
	}
    3f24:	bd70      	pop	{r4, r5, r6, pc}
    3f26:	46c0      	nop			; (mov r8, r8)
    3f28:	00002a7d 	.word	0x00002a7d
    3f2c:	20001524 	.word	0x20001524
    3f30:	000021e1 	.word	0x000021e1
    3f34:	00001b11 	.word	0x00001b11
    3f38:	00002185 	.word	0x00002185
    3f3c:	000029e9 	.word	0x000029e9
    3f40:	000029a1 	.word	0x000029a1
    3f44:	00002a95 	.word	0x00002a95
    3f48:	200015a4 	.word	0x200015a4
    3f4c:	00002a65 	.word	0x00002a65
    3f50:	00003de5 	.word	0x00003de5
    3f54:	0000365d 	.word	0x0000365d

00003f58 <vTaskPlaceOnEventList>:
	}
}
/*-----------------------------------------------------------*/

void vTaskPlaceOnEventList( List_t * const pxEventList, const TickType_t xTicksToWait )
{
    3f58:	b538      	push	{r3, r4, r5, lr}
    3f5a:	1c0c      	adds	r4, r1, #0
TickType_t xTimeToWake;

	configASSERT( pxEventList );
    3f5c:	2800      	cmp	r0, #0
    3f5e:	d101      	bne.n	3f64 <vTaskPlaceOnEventList+0xc>
    3f60:	b672      	cpsid	i
    3f62:	e7fe      	b.n	3f62 <vTaskPlaceOnEventList+0xa>

	/* Place the event list item of the TCB in the appropriate event list.
	This is placed in the list in priority order so the highest priority task
	is the first to be woken by the event.  The queue that contains the event
	list is locked, preventing simultaneous access from interrupts. */
	vListInsert( pxEventList, &( pxCurrentTCB->xEventListItem ) );
    3f64:	4d0b      	ldr	r5, [pc, #44]	; (3f94 <vTaskPlaceOnEventList+0x3c>)
    3f66:	6ae9      	ldr	r1, [r5, #44]	; 0x2c
    3f68:	3118      	adds	r1, #24
    3f6a:	4b0b      	ldr	r3, [pc, #44]	; (3f98 <vTaskPlaceOnEventList+0x40>)
    3f6c:	4798      	blx	r3

	/* The task must be removed from from the ready list before it is added to
	the blocked list as the same list item is used for both lists.  Exclusive
	access to the ready lists guaranteed because the scheduler is locked. */
	if( uxListRemove( &( pxCurrentTCB->xGenericListItem ) ) == ( UBaseType_t ) 0 )
    3f6e:	6ae8      	ldr	r0, [r5, #44]	; 0x2c
    3f70:	3004      	adds	r0, #4
    3f72:	4b0a      	ldr	r3, [pc, #40]	; (3f9c <vTaskPlaceOnEventList+0x44>)
    3f74:	4798      	blx	r3
		mtCOVERAGE_TEST_MARKER();
	}

	#if ( INCLUDE_vTaskSuspend == 1 )
	{
		if( xTicksToWait == portMAX_DELAY )
    3f76:	1c63      	adds	r3, r4, #1
    3f78:	d105      	bne.n	3f86 <vTaskPlaceOnEventList+0x2e>
		{
			/* Add the task to the suspended task list instead of a delayed task
			list to ensure the task is not woken by a timing event.  It will
			block indefinitely. */
			vListInsertEnd( &xSuspendedTaskList, &( pxCurrentTCB->xGenericListItem ) );
    3f7a:	4806      	ldr	r0, [pc, #24]	; (3f94 <vTaskPlaceOnEventList+0x3c>)
    3f7c:	6ac1      	ldr	r1, [r0, #44]	; 0x2c
    3f7e:	3104      	adds	r1, #4
    3f80:	4b07      	ldr	r3, [pc, #28]	; (3fa0 <vTaskPlaceOnEventList+0x48>)
    3f82:	4798      	blx	r3
    3f84:	e004      	b.n	3f90 <vTaskPlaceOnEventList+0x38>
		else
		{
			/* Calculate the time at which the task should be woken if the event
			does not occur.  This may overflow but this doesn't matter, the
			scheduler will handle it. */
			xTimeToWake = xTickCount + xTicksToWait;
    3f86:	4b03      	ldr	r3, [pc, #12]	; (3f94 <vTaskPlaceOnEventList+0x3c>)
    3f88:	6b18      	ldr	r0, [r3, #48]	; 0x30
    3f8a:	1820      	adds	r0, r4, r0
			prvAddCurrentTaskToDelayedList( xTimeToWake );
    3f8c:	4b05      	ldr	r3, [pc, #20]	; (3fa4 <vTaskPlaceOnEventList+0x4c>)
    3f8e:	4798      	blx	r3
			will handle it. */
			xTimeToWake = xTickCount + xTicksToWait;
			prvAddCurrentTaskToDelayedList( xTimeToWake );
	}
	#endif /* INCLUDE_vTaskSuspend */
}
    3f90:	bd38      	pop	{r3, r4, r5, pc}
    3f92:	46c0      	nop			; (mov r8, r8)
    3f94:	20001524 	.word	0x20001524
    3f98:	000029b9 	.word	0x000029b9
    3f9c:	000029e9 	.word	0x000029e9
    3fa0:	000029a1 	.word	0x000029a1
    3fa4:	00003689 	.word	0x00003689

00003fa8 <vTaskPlaceOnEventListRestricted>:
/*-----------------------------------------------------------*/

#if configUSE_TIMERS == 1

	void vTaskPlaceOnEventListRestricted( List_t * const pxEventList, const TickType_t xTicksToWait )
	{
    3fa8:	b570      	push	{r4, r5, r6, lr}
    3faa:	1c0d      	adds	r5, r1, #0
	TickType_t xTimeToWake;

		configASSERT( pxEventList );
    3fac:	2800      	cmp	r0, #0
    3fae:	d101      	bne.n	3fb4 <vTaskPlaceOnEventListRestricted+0xc>
    3fb0:	b672      	cpsid	i
    3fb2:	e7fe      	b.n	3fb2 <vTaskPlaceOnEventListRestricted+0xa>

		/* Place the event list item of the TCB in the appropriate event list.
		In this case it is assume that this is the only task that is going to
		be waiting on this event list, so the faster vListInsertEnd() function
		can be used in place of vListInsert. */
		vListInsertEnd( pxEventList, &( pxCurrentTCB->xEventListItem ) );
    3fb4:	4c0d      	ldr	r4, [pc, #52]	; (3fec <vTaskPlaceOnEventListRestricted+0x44>)
    3fb6:	6ae1      	ldr	r1, [r4, #44]	; 0x2c
    3fb8:	3118      	adds	r1, #24
    3fba:	4b0d      	ldr	r3, [pc, #52]	; (3ff0 <vTaskPlaceOnEventListRestricted+0x48>)
    3fbc:	4798      	blx	r3

		/* We must remove this task from the ready list before adding it to the
		blocked list as the same list item is used for both lists.  This
		function is called form a critical section. */
		if( uxListRemove( &( pxCurrentTCB->xGenericListItem ) ) == ( UBaseType_t ) 0 )
    3fbe:	6ae0      	ldr	r0, [r4, #44]	; 0x2c
    3fc0:	3004      	adds	r0, #4
    3fc2:	4b0c      	ldr	r3, [pc, #48]	; (3ff4 <vTaskPlaceOnEventListRestricted+0x4c>)
    3fc4:	4798      	blx	r3
			mtCOVERAGE_TEST_MARKER();
		}

		/* Calculate the time at which the task should be woken if the event does
		not occur.  This may overflow but this doesn't matter. */
		xTimeToWake = xTickCount + xTicksToWait;
    3fc6:	6b23      	ldr	r3, [r4, #48]	; 0x30
    3fc8:	18ed      	adds	r5, r5, r3

		traceTASK_DELAY_UNTIL();
    3fca:	2088      	movs	r0, #136	; 0x88
    3fcc:	1c29      	adds	r1, r5, #0
    3fce:	4b0a      	ldr	r3, [pc, #40]	; (3ff8 <vTaskPlaceOnEventListRestricted+0x50>)
    3fd0:	4798      	blx	r3
    3fd2:	6ae0      	ldr	r0, [r4, #44]	; 0x2c
    3fd4:	4e09      	ldr	r6, [pc, #36]	; (3ffc <vTaskPlaceOnEventListRestricted+0x54>)
    3fd6:	47b0      	blx	r6
    3fd8:	4c09      	ldr	r4, [pc, #36]	; (4000 <vTaskPlaceOnEventListRestricted+0x58>)
    3fda:	47a0      	blx	r4
    3fdc:	4b09      	ldr	r3, [pc, #36]	; (4004 <vTaskPlaceOnEventListRestricted+0x5c>)
    3fde:	4798      	blx	r3
    3fe0:	47b0      	blx	r6
    3fe2:	47a0      	blx	r4
		prvAddCurrentTaskToDelayedList( xTimeToWake );
    3fe4:	1c28      	adds	r0, r5, #0
    3fe6:	4b08      	ldr	r3, [pc, #32]	; (4008 <vTaskPlaceOnEventListRestricted+0x60>)
    3fe8:	4798      	blx	r3
	}
    3fea:	bd70      	pop	{r4, r5, r6, pc}
    3fec:	20001524 	.word	0x20001524
    3ff0:	000029a1 	.word	0x000029a1
    3ff4:	000029e9 	.word	0x000029e9
    3ff8:	00001d49 	.word	0x00001d49
    3ffc:	000021e1 	.word	0x000021e1
    4000:	00002185 	.word	0x00002185
    4004:	000021f1 	.word	0x000021f1
    4008:	00003689 	.word	0x00003689

0000400c <xTaskRemoveFromEventList>:

#endif /* configUSE_TIMERS */
/*-----------------------------------------------------------*/

BaseType_t xTaskRemoveFromEventList( const List_t * const pxEventList )
{
    400c:	b538      	push	{r3, r4, r5, lr}
	get called - the lock count on the queue will get modified instead.  This
	means exclusive access to the event list is guaranteed here.

	This function assumes that a check has already been made to ensure that
	pxEventList is not empty. */
	pxUnblockedTCB = ( TCB_t * ) listGET_OWNER_OF_HEAD_ENTRY( pxEventList );
    400e:	68c3      	ldr	r3, [r0, #12]
    4010:	68dc      	ldr	r4, [r3, #12]
	configASSERT( pxUnblockedTCB );
    4012:	2c00      	cmp	r4, #0
    4014:	d101      	bne.n	401a <xTaskRemoveFromEventList+0xe>
    4016:	b672      	cpsid	i
    4018:	e7fe      	b.n	4018 <xTaskRemoveFromEventList+0xc>
	( void ) uxListRemove( &( pxUnblockedTCB->xEventListItem ) );
    401a:	1c25      	adds	r5, r4, #0
    401c:	3518      	adds	r5, #24
    401e:	1c28      	adds	r0, r5, #0
    4020:	4b18      	ldr	r3, [pc, #96]	; (4084 <xTaskRemoveFromEventList+0x78>)
    4022:	4798      	blx	r3

	if( uxSchedulerSuspended == ( UBaseType_t ) pdFALSE )
    4024:	4b18      	ldr	r3, [pc, #96]	; (4088 <xTaskRemoveFromEventList+0x7c>)
    4026:	6edb      	ldr	r3, [r3, #108]	; 0x6c
    4028:	2b00      	cmp	r3, #0
    402a:	d119      	bne.n	4060 <xTaskRemoveFromEventList+0x54>
	{
		( void ) uxListRemove( &( pxUnblockedTCB->xGenericListItem ) );
    402c:	1d25      	adds	r5, r4, #4
    402e:	1c28      	adds	r0, r5, #0
    4030:	4b14      	ldr	r3, [pc, #80]	; (4084 <xTaskRemoveFromEventList+0x78>)
    4032:	4798      	blx	r3
		prvAddTaskToReadyList( pxUnblockedTCB );
    4034:	1c20      	adds	r0, r4, #0
    4036:	4b15      	ldr	r3, [pc, #84]	; (408c <xTaskRemoveFromEventList+0x80>)
    4038:	4798      	blx	r3
    403a:	4b15      	ldr	r3, [pc, #84]	; (4090 <xTaskRemoveFromEventList+0x84>)
    403c:	4798      	blx	r3
    403e:	6ae3      	ldr	r3, [r4, #44]	; 0x2c
    4040:	4a11      	ldr	r2, [pc, #68]	; (4088 <xTaskRemoveFromEventList+0x7c>)
    4042:	6e12      	ldr	r2, [r2, #96]	; 0x60
    4044:	4293      	cmp	r3, r2
    4046:	d901      	bls.n	404c <xTaskRemoveFromEventList+0x40>
    4048:	4a0f      	ldr	r2, [pc, #60]	; (4088 <xTaskRemoveFromEventList+0x7c>)
    404a:	6613      	str	r3, [r2, #96]	; 0x60
    404c:	009a      	lsls	r2, r3, #2
    404e:	18d3      	adds	r3, r2, r3
    4050:	009b      	lsls	r3, r3, #2
    4052:	4810      	ldr	r0, [pc, #64]	; (4094 <xTaskRemoveFromEventList+0x88>)
    4054:	303c      	adds	r0, #60	; 0x3c
    4056:	18c0      	adds	r0, r0, r3
    4058:	1c29      	adds	r1, r5, #0
    405a:	4b0f      	ldr	r3, [pc, #60]	; (4098 <xTaskRemoveFromEventList+0x8c>)
    405c:	4798      	blx	r3
    405e:	e004      	b.n	406a <xTaskRemoveFromEventList+0x5e>
	}
	else
	{
		/* The delayed and ready lists cannot be accessed, so hold this task
		pending until the scheduler is resumed. */
		vListInsertEnd( &( xPendingReadyList ), &( pxUnblockedTCB->xEventListItem ) );
    4060:	480c      	ldr	r0, [pc, #48]	; (4094 <xTaskRemoveFromEventList+0x88>)
    4062:	3014      	adds	r0, #20
    4064:	1c29      	adds	r1, r5, #0
    4066:	4b0c      	ldr	r3, [pc, #48]	; (4098 <xTaskRemoveFromEventList+0x8c>)
    4068:	4798      	blx	r3
	}

	if( pxUnblockedTCB->uxPriority > pxCurrentTCB->uxPriority )
    406a:	4b0a      	ldr	r3, [pc, #40]	; (4094 <xTaskRemoveFromEventList+0x88>)
    406c:	6adb      	ldr	r3, [r3, #44]	; 0x2c
    406e:	6ae2      	ldr	r2, [r4, #44]	; 0x2c
    4070:	6adb      	ldr	r3, [r3, #44]	; 0x2c
		"xHigherPriorityTaskWoken" parameter to an ISR safe FreeRTOS function. */
		xYieldPending = pdTRUE;
	}
	else
	{
		xReturn = pdFALSE;
    4072:	2000      	movs	r0, #0
		/* The delayed and ready lists cannot be accessed, so hold this task
		pending until the scheduler is resumed. */
		vListInsertEnd( &( xPendingReadyList ), &( pxUnblockedTCB->xEventListItem ) );
	}

	if( pxUnblockedTCB->uxPriority > pxCurrentTCB->uxPriority )
    4074:	429a      	cmp	r2, r3
    4076:	d903      	bls.n	4080 <xTaskRemoveFromEventList+0x74>
		it should force a context switch now. */
		xReturn = pdTRUE;

		/* Mark that a yield is pending in case the user is not using the
		"xHigherPriorityTaskWoken" parameter to an ISR safe FreeRTOS function. */
		xYieldPending = pdTRUE;
    4078:	2201      	movs	r2, #1
    407a:	4b03      	ldr	r3, [pc, #12]	; (4088 <xTaskRemoveFromEventList+0x7c>)
    407c:	679a      	str	r2, [r3, #120]	; 0x78
	if( pxUnblockedTCB->uxPriority > pxCurrentTCB->uxPriority )
	{
		/* Return true if the task removed from the event list has a higher
		priority than the calling task.  This allows the calling task to know if
		it should force a context switch now. */
		xReturn = pdTRUE;
    407e:	2001      	movs	r0, #1
	{
		xReturn = pdFALSE;
	}

	return xReturn;
}
    4080:	bd38      	pop	{r3, r4, r5, pc}
    4082:	46c0      	nop			; (mov r8, r8)
    4084:	000029e9 	.word	0x000029e9
    4088:	200015a4 	.word	0x200015a4
    408c:	000021e1 	.word	0x000021e1
    4090:	00001a59 	.word	0x00001a59
    4094:	20001524 	.word	0x20001524
    4098:	000029a1 	.word	0x000029a1

0000409c <vTaskSetTimeOutState>:
}
/*-----------------------------------------------------------*/

void vTaskSetTimeOutState( TimeOut_t * const pxTimeOut )
{
	configASSERT( pxTimeOut );
    409c:	2800      	cmp	r0, #0
    409e:	d101      	bne.n	40a4 <vTaskSetTimeOutState+0x8>
    40a0:	b672      	cpsid	i
    40a2:	e7fe      	b.n	40a2 <vTaskSetTimeOutState+0x6>
	pxTimeOut->xOverflowCount = xNumOfOverflows;
    40a4:	4b03      	ldr	r3, [pc, #12]	; (40b4 <vTaskSetTimeOutState+0x18>)
    40a6:	6f5b      	ldr	r3, [r3, #116]	; 0x74
    40a8:	6003      	str	r3, [r0, #0]
	pxTimeOut->xTimeOnEntering = xTickCount;
    40aa:	4b03      	ldr	r3, [pc, #12]	; (40b8 <vTaskSetTimeOutState+0x1c>)
    40ac:	6b1b      	ldr	r3, [r3, #48]	; 0x30
    40ae:	6043      	str	r3, [r0, #4]
}
    40b0:	4770      	bx	lr
    40b2:	46c0      	nop			; (mov r8, r8)
    40b4:	200015a4 	.word	0x200015a4
    40b8:	20001524 	.word	0x20001524

000040bc <xTaskCheckForTimeOut>:
/*-----------------------------------------------------------*/

BaseType_t xTaskCheckForTimeOut( TimeOut_t * const pxTimeOut, TickType_t * const pxTicksToWait )
{
    40bc:	b570      	push	{r4, r5, r6, lr}
    40be:	1c04      	adds	r4, r0, #0
    40c0:	1c0e      	adds	r6, r1, #0
BaseType_t xReturn;

	configASSERT( pxTimeOut );
    40c2:	2800      	cmp	r0, #0
    40c4:	d101      	bne.n	40ca <xTaskCheckForTimeOut+0xe>
    40c6:	b672      	cpsid	i
    40c8:	e7fe      	b.n	40c8 <xTaskCheckForTimeOut+0xc>
	configASSERT( pxTicksToWait );
    40ca:	2900      	cmp	r1, #0
    40cc:	d101      	bne.n	40d2 <xTaskCheckForTimeOut+0x16>
    40ce:	b672      	cpsid	i
    40d0:	e7fe      	b.n	40d0 <xTaskCheckForTimeOut+0x14>

	taskENTER_CRITICAL();
    40d2:	4b11      	ldr	r3, [pc, #68]	; (4118 <xTaskCheckForTimeOut+0x5c>)
    40d4:	4798      	blx	r3
	{
		/* Minor optimisation.  The tick count cannot change in this block. */
		const TickType_t xConstTickCount = xTickCount;
    40d6:	4b11      	ldr	r3, [pc, #68]	; (411c <xTaskCheckForTimeOut+0x60>)
    40d8:	6b1a      	ldr	r2, [r3, #48]	; 0x30

		#if ( INCLUDE_vTaskSuspend == 1 )
			/* If INCLUDE_vTaskSuspend is set to 1 and the block time specified is
			the maximum block time then the task should block indefinitely, and
			therefore never time out. */
			if( *pxTicksToWait == portMAX_DELAY )
    40da:	6833      	ldr	r3, [r6, #0]
    40dc:	1c58      	adds	r0, r3, #1
    40de:	d015      	beq.n	410c <xTaskCheckForTimeOut+0x50>
				xReturn = pdFALSE;
			}
			else /* We are not blocking indefinitely, perform the checks below. */
		#endif

		if( ( xNumOfOverflows != pxTimeOut->xOverflowCount ) && ( xConstTickCount >= pxTimeOut->xTimeOnEntering ) ) /*lint !e525 Indentation preferred as is to make code within pre-processor directives clearer. */
    40e0:	490f      	ldr	r1, [pc, #60]	; (4120 <xTaskCheckForTimeOut+0x64>)
    40e2:	6f49      	ldr	r1, [r1, #116]	; 0x74
    40e4:	6820      	ldr	r0, [r4, #0]
    40e6:	4288      	cmp	r0, r1
    40e8:	d003      	beq.n	40f2 <xTaskCheckForTimeOut+0x36>
		{
			/* The tick count is greater than the time at which vTaskSetTimeout()
			was called, but has also overflowed since vTaskSetTimeOut() was called.
			It must have wrapped all the way around and gone past us again. This
			passed since vTaskSetTimeout() was called. */
			xReturn = pdTRUE;
    40ea:	2501      	movs	r5, #1
				xReturn = pdFALSE;
			}
			else /* We are not blocking indefinitely, perform the checks below. */
		#endif

		if( ( xNumOfOverflows != pxTimeOut->xOverflowCount ) && ( xConstTickCount >= pxTimeOut->xTimeOnEntering ) ) /*lint !e525 Indentation preferred as is to make code within pre-processor directives clearer. */
    40ec:	6861      	ldr	r1, [r4, #4]
    40ee:	428a      	cmp	r2, r1
    40f0:	d20d      	bcs.n	410e <xTaskCheckForTimeOut+0x52>
			was called, but has also overflowed since vTaskSetTimeOut() was called.
			It must have wrapped all the way around and gone past us again. This
			passed since vTaskSetTimeout() was called. */
			xReturn = pdTRUE;
		}
		else if( ( xConstTickCount - pxTimeOut->xTimeOnEntering ) < *pxTicksToWait )
    40f2:	6861      	ldr	r1, [r4, #4]
    40f4:	1a50      	subs	r0, r2, r1
			vTaskSetTimeOutState( pxTimeOut );
			xReturn = pdFALSE;
		}
		else
		{
			xReturn = pdTRUE;
    40f6:	2501      	movs	r5, #1
			was called, but has also overflowed since vTaskSetTimeOut() was called.
			It must have wrapped all the way around and gone past us again. This
			passed since vTaskSetTimeout() was called. */
			xReturn = pdTRUE;
		}
		else if( ( xConstTickCount - pxTimeOut->xTimeOnEntering ) < *pxTicksToWait )
    40f8:	4283      	cmp	r3, r0
    40fa:	d908      	bls.n	410e <xTaskCheckForTimeOut+0x52>
		{
			/* Not a genuine timeout. Adjust parameters for time remaining. */
			*pxTicksToWait -= ( xConstTickCount -  pxTimeOut->xTimeOnEntering );
    40fc:	1a8a      	subs	r2, r1, r2
    40fe:	18d3      	adds	r3, r2, r3
    4100:	6033      	str	r3, [r6, #0]
			vTaskSetTimeOutState( pxTimeOut );
    4102:	1c20      	adds	r0, r4, #0
    4104:	4b07      	ldr	r3, [pc, #28]	; (4124 <xTaskCheckForTimeOut+0x68>)
    4106:	4798      	blx	r3
			xReturn = pdFALSE;
    4108:	2500      	movs	r5, #0
    410a:	e000      	b.n	410e <xTaskCheckForTimeOut+0x52>
			/* If INCLUDE_vTaskSuspend is set to 1 and the block time specified is
			the maximum block time then the task should block indefinitely, and
			therefore never time out. */
			if( *pxTicksToWait == portMAX_DELAY )
			{
				xReturn = pdFALSE;
    410c:	2500      	movs	r5, #0
		else
		{
			xReturn = pdTRUE;
		}
	}
	taskEXIT_CRITICAL();
    410e:	4b06      	ldr	r3, [pc, #24]	; (4128 <xTaskCheckForTimeOut+0x6c>)
    4110:	4798      	blx	r3

	return xReturn;
}
    4112:	1c28      	adds	r0, r5, #0
    4114:	bd70      	pop	{r4, r5, r6, pc}
    4116:	46c0      	nop			; (mov r8, r8)
    4118:	00002a7d 	.word	0x00002a7d
    411c:	20001524 	.word	0x20001524
    4120:	200015a4 	.word	0x200015a4
    4124:	0000409d 	.word	0x0000409d
    4128:	00002a95 	.word	0x00002a95

0000412c <vTaskMissedYield>:
/*-----------------------------------------------------------*/

void vTaskMissedYield( void )
{
	xYieldPending = pdTRUE;
    412c:	2201      	movs	r2, #1
    412e:	4b01      	ldr	r3, [pc, #4]	; (4134 <vTaskMissedYield+0x8>)
    4130:	679a      	str	r2, [r3, #120]	; 0x78
}
    4132:	4770      	bx	lr
    4134:	200015a4 	.word	0x200015a4

00004138 <uxTaskGetTaskNumber>:
	UBaseType_t uxTaskGetTaskNumber( TaskHandle_t xTask )
	{
	UBaseType_t uxReturn;
	TCB_t *pxTCB;

		if( xTask != NULL )
    4138:	2800      	cmp	r0, #0
    413a:	d001      	beq.n	4140 <uxTaskGetTaskNumber+0x8>
		{
			pxTCB = ( TCB_t * ) xTask;
			uxReturn = pxTCB->uxTaskNumber;
    413c:	6c00      	ldr	r0, [r0, #64]	; 0x40
    413e:	e000      	b.n	4142 <uxTaskGetTaskNumber+0xa>
		}
		else
		{
			uxReturn = 0U;
    4140:	2000      	movs	r0, #0
		}

		return uxReturn;
	}
    4142:	4770      	bx	lr

00004144 <xTaskGetCurrentTaskHandle>:
	TaskHandle_t xReturn;

		/* A critical section is not required as this is not called from
		an interrupt and the current TCB will always be the same for any
		individual execution thread. */
		xReturn = pxCurrentTCB;
    4144:	4b01      	ldr	r3, [pc, #4]	; (414c <xTaskGetCurrentTaskHandle+0x8>)
    4146:	6ad8      	ldr	r0, [r3, #44]	; 0x2c

		return xReturn;
	}
    4148:	4770      	bx	lr
    414a:	46c0      	nop			; (mov r8, r8)
    414c:	20001524 	.word	0x20001524

00004150 <xTaskGetSchedulerState>:

	BaseType_t xTaskGetSchedulerState( void )
	{
	BaseType_t xReturn;

		if( xSchedulerRunning == pdFALSE )
    4150:	4b05      	ldr	r3, [pc, #20]	; (4168 <xTaskGetSchedulerState+0x18>)
    4152:	6ddb      	ldr	r3, [r3, #92]	; 0x5c
		{
			xReturn = taskSCHEDULER_NOT_STARTED;
    4154:	2001      	movs	r0, #1

	BaseType_t xTaskGetSchedulerState( void )
	{
	BaseType_t xReturn;

		if( xSchedulerRunning == pdFALSE )
    4156:	2b00      	cmp	r3, #0
    4158:	d004      	beq.n	4164 <xTaskGetSchedulerState+0x14>
		{
			xReturn = taskSCHEDULER_NOT_STARTED;
		}
		else
		{
			if( uxSchedulerSuspended == ( UBaseType_t ) pdFALSE )
    415a:	4b03      	ldr	r3, [pc, #12]	; (4168 <xTaskGetSchedulerState+0x18>)
    415c:	6ed8      	ldr	r0, [r3, #108]	; 0x6c
			{
				xReturn = taskSCHEDULER_RUNNING;
    415e:	4243      	negs	r3, r0
    4160:	4158      	adcs	r0, r3
    4162:	0040      	lsls	r0, r0, #1
				xReturn = taskSCHEDULER_SUSPENDED;
			}
		}

		return xReturn;
	}
    4164:	4770      	bx	lr
    4166:	46c0      	nop			; (mov r8, r8)
    4168:	200015a4 	.word	0x200015a4

0000416c <vTaskPriorityInherit>:
/*-----------------------------------------------------------*/

#if ( configUSE_MUTEXES == 1 )

	void vTaskPriorityInherit( TaskHandle_t const pxMutexHolder )
	{
    416c:	b570      	push	{r4, r5, r6, lr}
    416e:	1e04      	subs	r4, r0, #0
	TCB_t * const pxTCB = ( TCB_t * ) pxMutexHolder;

		/* If the mutex was given back by an interrupt while the queue was
		locked then the mutex holder might now be NULL. */
		if( pxMutexHolder != NULL )
    4170:	d053      	beq.n	421a <vTaskPriorityInherit+0xae>
		{
			if( pxTCB->uxPriority < pxCurrentTCB->uxPriority )
    4172:	6ac3      	ldr	r3, [r0, #44]	; 0x2c
    4174:	4a29      	ldr	r2, [pc, #164]	; (421c <vTaskPriorityInherit+0xb0>)
    4176:	6ad2      	ldr	r2, [r2, #44]	; 0x2c
    4178:	6ad2      	ldr	r2, [r2, #44]	; 0x2c
    417a:	4293      	cmp	r3, r2
    417c:	d24d      	bcs.n	421a <vTaskPriorityInherit+0xae>
			{
				/* Adjust the mutex holder state to account for its new
				priority.  Only reset the event list item value if the value is
				not	being used for anything else. */
				if( ( listGET_LIST_ITEM_VALUE( &( pxTCB->xEventListItem ) ) & taskEVENT_LIST_ITEM_VALUE_IN_USE ) == 0UL )
    417e:	6982      	ldr	r2, [r0, #24]
    4180:	2a00      	cmp	r2, #0
    4182:	db05      	blt.n	4190 <vTaskPriorityInherit+0x24>
				{
					listSET_LIST_ITEM_VALUE( &( pxTCB->xEventListItem ), ( TickType_t ) configMAX_PRIORITIES - ( TickType_t ) pxCurrentTCB->uxPriority ); /*lint !e961 MISRA exception as the casts are only redundant for some ports. */
    4184:	4a25      	ldr	r2, [pc, #148]	; (421c <vTaskPriorityInherit+0xb0>)
    4186:	6ad2      	ldr	r2, [r2, #44]	; 0x2c
    4188:	6ad2      	ldr	r2, [r2, #44]	; 0x2c
    418a:	2105      	movs	r1, #5
    418c:	1a8a      	subs	r2, r1, r2
    418e:	6182      	str	r2, [r0, #24]
					mtCOVERAGE_TEST_MARKER();
				}

				/* If the task being modified is in the ready state it will need to
				be moved into a new list. */
				if( listIS_CONTAINED_WITHIN( &( pxReadyTasksLists[ pxTCB->uxPriority ] ), &( pxTCB->xGenericListItem ) ) != pdFALSE )
    4190:	009a      	lsls	r2, r3, #2
    4192:	18d3      	adds	r3, r2, r3
    4194:	009b      	lsls	r3, r3, #2
    4196:	4a21      	ldr	r2, [pc, #132]	; (421c <vTaskPriorityInherit+0xb0>)
    4198:	323c      	adds	r2, #60	; 0x3c
    419a:	18d3      	adds	r3, r2, r3
    419c:	6962      	ldr	r2, [r4, #20]
    419e:	429a      	cmp	r2, r3
    41a0:	d11d      	bne.n	41de <vTaskPriorityInherit+0x72>
				{
					if( uxListRemove( &( pxTCB->xGenericListItem ) ) == ( UBaseType_t ) 0 )
    41a2:	1d25      	adds	r5, r4, #4
    41a4:	1c28      	adds	r0, r5, #0
    41a6:	4b1e      	ldr	r3, [pc, #120]	; (4220 <vTaskPriorityInherit+0xb4>)
    41a8:	4798      	blx	r3
					{
						mtCOVERAGE_TEST_MARKER();
					}

					/* Inherit the priority before being moved into the new list. */
					pxTCB->uxPriority = pxCurrentTCB->uxPriority;
    41aa:	4b1c      	ldr	r3, [pc, #112]	; (421c <vTaskPriorityInherit+0xb0>)
    41ac:	6adb      	ldr	r3, [r3, #44]	; 0x2c
    41ae:	6adb      	ldr	r3, [r3, #44]	; 0x2c
    41b0:	62e3      	str	r3, [r4, #44]	; 0x2c
					prvAddTaskToReadyList( pxTCB );
    41b2:	1c20      	adds	r0, r4, #0
    41b4:	4b1b      	ldr	r3, [pc, #108]	; (4224 <vTaskPriorityInherit+0xb8>)
    41b6:	4798      	blx	r3
    41b8:	4b1b      	ldr	r3, [pc, #108]	; (4228 <vTaskPriorityInherit+0xbc>)
    41ba:	4798      	blx	r3
    41bc:	6ae3      	ldr	r3, [r4, #44]	; 0x2c
    41be:	4a1b      	ldr	r2, [pc, #108]	; (422c <vTaskPriorityInherit+0xc0>)
    41c0:	6e12      	ldr	r2, [r2, #96]	; 0x60
    41c2:	4293      	cmp	r3, r2
    41c4:	d901      	bls.n	41ca <vTaskPriorityInherit+0x5e>
    41c6:	4a19      	ldr	r2, [pc, #100]	; (422c <vTaskPriorityInherit+0xc0>)
    41c8:	6613      	str	r3, [r2, #96]	; 0x60
    41ca:	0098      	lsls	r0, r3, #2
    41cc:	18c3      	adds	r3, r0, r3
    41ce:	009b      	lsls	r3, r3, #2
    41d0:	4812      	ldr	r0, [pc, #72]	; (421c <vTaskPriorityInherit+0xb0>)
    41d2:	303c      	adds	r0, #60	; 0x3c
    41d4:	18c0      	adds	r0, r0, r3
    41d6:	1c29      	adds	r1, r5, #0
    41d8:	4b15      	ldr	r3, [pc, #84]	; (4230 <vTaskPriorityInherit+0xc4>)
    41da:	4798      	blx	r3
    41dc:	e003      	b.n	41e6 <vTaskPriorityInherit+0x7a>
				}
				else
				{
					/* Just inherit the priority. */
					pxTCB->uxPriority = pxCurrentTCB->uxPriority;
    41de:	4b0f      	ldr	r3, [pc, #60]	; (421c <vTaskPriorityInherit+0xb0>)
    41e0:	6adb      	ldr	r3, [r3, #44]	; 0x2c
    41e2:	6adb      	ldr	r3, [r3, #44]	; 0x2c
    41e4:	62e3      	str	r3, [r4, #44]	; 0x2c
				}

				traceTASK_PRIORITY_INHERIT( pxTCB, pxCurrentTCB->uxPriority );
    41e6:	1c20      	adds	r0, r4, #0
    41e8:	4d0e      	ldr	r5, [pc, #56]	; (4224 <vTaskPriorityInherit+0xb8>)
    41ea:	47a8      	blx	r5
    41ec:	1c06      	adds	r6, r0, #0
    41ee:	1c20      	adds	r0, r4, #0
    41f0:	47a8      	blx	r5
    41f2:	1c01      	adds	r1, r0, #0
    41f4:	2003      	movs	r0, #3
    41f6:	4b0f      	ldr	r3, [pc, #60]	; (4234 <vTaskPriorityInherit+0xc8>)
    41f8:	4798      	blx	r3
    41fa:	1c03      	adds	r3, r0, #0
    41fc:	208e      	movs	r0, #142	; 0x8e
    41fe:	2103      	movs	r1, #3
    4200:	1c32      	adds	r2, r6, #0
    4202:	4e0d      	ldr	r6, [pc, #52]	; (4238 <vTaskPriorityInherit+0xcc>)
    4204:	47b0      	blx	r6
    4206:	1c20      	adds	r0, r4, #0
    4208:	47a8      	blx	r5
    420a:	1c01      	adds	r1, r0, #0
    420c:	4b03      	ldr	r3, [pc, #12]	; (421c <vTaskPriorityInherit+0xb0>)
    420e:	6adb      	ldr	r3, [r3, #44]	; 0x2c
    4210:	6ada      	ldr	r2, [r3, #44]	; 0x2c
    4212:	b2d2      	uxtb	r2, r2
    4214:	2003      	movs	r0, #3
    4216:	4b09      	ldr	r3, [pc, #36]	; (423c <vTaskPriorityInherit+0xd0>)
    4218:	4798      	blx	r3
		}
		else
		{
			mtCOVERAGE_TEST_MARKER();
		}
	}
    421a:	bd70      	pop	{r4, r5, r6, pc}
    421c:	20001524 	.word	0x20001524
    4220:	000029e9 	.word	0x000029e9
    4224:	000021e1 	.word	0x000021e1
    4228:	00001a59 	.word	0x00001a59
    422c:	200015a4 	.word	0x200015a4
    4230:	000029a1 	.word	0x000029a1
    4234:	00001fa5 	.word	0x00001fa5
    4238:	00001c15 	.word	0x00001c15
    423c:	00001f4d 	.word	0x00001f4d

00004240 <vTaskPriorityDisinherit>:
/*-----------------------------------------------------------*/

#if ( configUSE_MUTEXES == 1 )

	void vTaskPriorityDisinherit( TaskHandle_t const pxMutexHolder )
	{
    4240:	b5f8      	push	{r3, r4, r5, r6, r7, lr}
    4242:	1e04      	subs	r4, r0, #0
	TCB_t * const pxTCB = ( TCB_t * ) pxMutexHolder;

		if( pxMutexHolder != NULL )
    4244:	d03c      	beq.n	42c0 <vTaskPriorityDisinherit+0x80>
		{
			if( pxTCB->uxPriority != pxTCB->uxBasePriority )
    4246:	6ac2      	ldr	r2, [r0, #44]	; 0x2c
    4248:	6c43      	ldr	r3, [r0, #68]	; 0x44
    424a:	429a      	cmp	r2, r3
    424c:	d038      	beq.n	42c0 <vTaskPriorityDisinherit+0x80>
			{
				/* We must be the running task to be able to give the mutex back.
				Remove ourselves from the ready list we currently appear in. */
				if( uxListRemove( &( pxTCB->xGenericListItem ) ) == ( UBaseType_t ) 0 )
    424e:	1d06      	adds	r6, r0, #4
    4250:	1c30      	adds	r0, r6, #0
    4252:	4b1c      	ldr	r3, [pc, #112]	; (42c4 <vTaskPriorityDisinherit+0x84>)
    4254:	4798      	blx	r3
					mtCOVERAGE_TEST_MARKER();
				}

				/* Disinherit the priority before adding the task into the new
				ready list. */
				traceTASK_PRIORITY_DISINHERIT( pxTCB, pxTCB->uxBasePriority );
    4256:	1c20      	adds	r0, r4, #0
    4258:	4d1b      	ldr	r5, [pc, #108]	; (42c8 <vTaskPriorityDisinherit+0x88>)
    425a:	47a8      	blx	r5
    425c:	1c07      	adds	r7, r0, #0
    425e:	1c20      	adds	r0, r4, #0
    4260:	47a8      	blx	r5
    4262:	1c01      	adds	r1, r0, #0
    4264:	2003      	movs	r0, #3
    4266:	4b19      	ldr	r3, [pc, #100]	; (42cc <vTaskPriorityDisinherit+0x8c>)
    4268:	4798      	blx	r3
    426a:	1c03      	adds	r3, r0, #0
    426c:	208f      	movs	r0, #143	; 0x8f
    426e:	2103      	movs	r1, #3
    4270:	1c3a      	adds	r2, r7, #0
    4272:	4f17      	ldr	r7, [pc, #92]	; (42d0 <vTaskPriorityDisinherit+0x90>)
    4274:	47b8      	blx	r7
    4276:	1c20      	adds	r0, r4, #0
    4278:	47a8      	blx	r5
    427a:	1c01      	adds	r1, r0, #0
    427c:	6c63      	ldr	r3, [r4, #68]	; 0x44
    427e:	b2da      	uxtb	r2, r3
    4280:	2003      	movs	r0, #3
    4282:	4b14      	ldr	r3, [pc, #80]	; (42d4 <vTaskPriorityDisinherit+0x94>)
    4284:	4798      	blx	r3
				pxTCB->uxPriority = pxTCB->uxBasePriority;
    4286:	6c63      	ldr	r3, [r4, #68]	; 0x44
    4288:	62e3      	str	r3, [r4, #44]	; 0x2c

				/* Only reset the event list item value if the value is not
				being used for anything else. */
				if( ( listGET_LIST_ITEM_VALUE( &( pxTCB->xEventListItem ) ) & taskEVENT_LIST_ITEM_VALUE_IN_USE ) == 0UL )
    428a:	69a2      	ldr	r2, [r4, #24]
    428c:	2a00      	cmp	r2, #0
    428e:	db02      	blt.n	4296 <vTaskPriorityDisinherit+0x56>
				{
					listSET_LIST_ITEM_VALUE( &( pxTCB->xEventListItem ), ( TickType_t ) configMAX_PRIORITIES - ( TickType_t ) pxTCB->uxPriority ); /*lint !e961 MISRA exception as the casts are only redundant for some ports. */
    4290:	2205      	movs	r2, #5
    4292:	1ad3      	subs	r3, r2, r3
    4294:	61a3      	str	r3, [r4, #24]
				}
				else
				{
					mtCOVERAGE_TEST_MARKER();
				}
				prvAddTaskToReadyList( pxTCB );
    4296:	1c20      	adds	r0, r4, #0
    4298:	4b0b      	ldr	r3, [pc, #44]	; (42c8 <vTaskPriorityDisinherit+0x88>)
    429a:	4798      	blx	r3
    429c:	4b0e      	ldr	r3, [pc, #56]	; (42d8 <vTaskPriorityDisinherit+0x98>)
    429e:	4798      	blx	r3
    42a0:	6ae3      	ldr	r3, [r4, #44]	; 0x2c
    42a2:	4a0e      	ldr	r2, [pc, #56]	; (42dc <vTaskPriorityDisinherit+0x9c>)
    42a4:	6e12      	ldr	r2, [r2, #96]	; 0x60
    42a6:	4293      	cmp	r3, r2
    42a8:	d901      	bls.n	42ae <vTaskPriorityDisinherit+0x6e>
    42aa:	4a0c      	ldr	r2, [pc, #48]	; (42dc <vTaskPriorityDisinherit+0x9c>)
    42ac:	6613      	str	r3, [r2, #96]	; 0x60
    42ae:	0098      	lsls	r0, r3, #2
    42b0:	18c3      	adds	r3, r0, r3
    42b2:	009b      	lsls	r3, r3, #2
    42b4:	480a      	ldr	r0, [pc, #40]	; (42e0 <vTaskPriorityDisinherit+0xa0>)
    42b6:	303c      	adds	r0, #60	; 0x3c
    42b8:	18c0      	adds	r0, r0, r3
    42ba:	1c31      	adds	r1, r6, #0
    42bc:	4b09      	ldr	r3, [pc, #36]	; (42e4 <vTaskPriorityDisinherit+0xa4>)
    42be:	4798      	blx	r3
		}
		else
		{
			mtCOVERAGE_TEST_MARKER();
		}
	}
    42c0:	bdf8      	pop	{r3, r4, r5, r6, r7, pc}
    42c2:	46c0      	nop			; (mov r8, r8)
    42c4:	000029e9 	.word	0x000029e9
    42c8:	000021e1 	.word	0x000021e1
    42cc:	00001fa5 	.word	0x00001fa5
    42d0:	00001c15 	.word	0x00001c15
    42d4:	00001f4d 	.word	0x00001f4d
    42d8:	00001a59 	.word	0x00001a59
    42dc:	200015a4 	.word	0x200015a4
    42e0:	20001524 	.word	0x20001524
    42e4:	000029a1 	.word	0x000029a1

000042e8 <prvInsertTimerInActiveList>:
	return xTimeNow;
}
/*-----------------------------------------------------------*/

static BaseType_t prvInsertTimerInActiveList( Timer_t * const pxTimer, const TickType_t xNextExpiryTime, const TickType_t xTimeNow, const TickType_t xCommandTime )
{
    42e8:	b510      	push	{r4, lr}
    42ea:	1c04      	adds	r4, r0, #0
BaseType_t xProcessTimerNow = pdFALSE;

	listSET_LIST_ITEM_VALUE( &( pxTimer->xTimerListItem ), xNextExpiryTime );
    42ec:	6041      	str	r1, [r0, #4]
	listSET_LIST_ITEM_OWNER( &( pxTimer->xTimerListItem ), pxTimer );
    42ee:	6120      	str	r0, [r4, #16]

	if( xNextExpiryTime <= xTimeNow )
    42f0:	4291      	cmp	r1, r2
    42f2:	d80b      	bhi.n	430c <prvInsertTimerInActiveList+0x24>
	{
		/* Has the expiry time elapsed between the command to start/reset a
		timer was issued, and the time the command was processed? */
		if( ( xTimeNow - xCommandTime ) >= pxTimer->xTimerPeriodInTicks )
    42f4:	1ad2      	subs	r2, r2, r3
		{
			/* The time between a command being issued and the command being
			processed actually exceeds the timers period.  */
			xProcessTimerNow = pdTRUE;
    42f6:	2001      	movs	r0, #1

	if( xNextExpiryTime <= xTimeNow )
	{
		/* Has the expiry time elapsed between the command to start/reset a
		timer was issued, and the time the command was processed? */
		if( ( xTimeNow - xCommandTime ) >= pxTimer->xTimerPeriodInTicks )
    42f8:	69a3      	ldr	r3, [r4, #24]
    42fa:	429a      	cmp	r2, r3
    42fc:	d211      	bcs.n	4322 <prvInsertTimerInActiveList+0x3a>
			processed actually exceeds the timers period.  */
			xProcessTimerNow = pdTRUE;
		}
		else
		{
			vListInsert( pxOverflowTimerList, &( pxTimer->xTimerListItem ) );
    42fe:	4b09      	ldr	r3, [pc, #36]	; (4324 <prvInsertTimerInActiveList+0x3c>)
    4300:	6818      	ldr	r0, [r3, #0]
    4302:	1d21      	adds	r1, r4, #4
    4304:	4b08      	ldr	r3, [pc, #32]	; (4328 <prvInsertTimerInActiveList+0x40>)
    4306:	4798      	blx	r3
}
/*-----------------------------------------------------------*/

static BaseType_t prvInsertTimerInActiveList( Timer_t * const pxTimer, const TickType_t xNextExpiryTime, const TickType_t xTimeNow, const TickType_t xCommandTime )
{
BaseType_t xProcessTimerNow = pdFALSE;
    4308:	2000      	movs	r0, #0
    430a:	e00a      	b.n	4322 <prvInsertTimerInActiveList+0x3a>
			vListInsert( pxOverflowTimerList, &( pxTimer->xTimerListItem ) );
		}
	}
	else
	{
		if( ( xTimeNow < xCommandTime ) && ( xNextExpiryTime >= xCommandTime ) )
    430c:	429a      	cmp	r2, r3
    430e:	d202      	bcs.n	4316 <prvInsertTimerInActiveList+0x2e>
		{
			/* If, since the command was issued, the tick count has overflowed
			but the expiry time has not, then the timer must have already passed
			its expiry time and should be processed immediately. */
			xProcessTimerNow = pdTRUE;
    4310:	2001      	movs	r0, #1
			vListInsert( pxOverflowTimerList, &( pxTimer->xTimerListItem ) );
		}
	}
	else
	{
		if( ( xTimeNow < xCommandTime ) && ( xNextExpiryTime >= xCommandTime ) )
    4312:	4299      	cmp	r1, r3
    4314:	d205      	bcs.n	4322 <prvInsertTimerInActiveList+0x3a>
			its expiry time and should be processed immediately. */
			xProcessTimerNow = pdTRUE;
		}
		else
		{
			vListInsert( pxCurrentTimerList, &( pxTimer->xTimerListItem ) );
    4316:	4b03      	ldr	r3, [pc, #12]	; (4324 <prvInsertTimerInActiveList+0x3c>)
    4318:	6858      	ldr	r0, [r3, #4]
    431a:	1d21      	adds	r1, r4, #4
    431c:	4b02      	ldr	r3, [pc, #8]	; (4328 <prvInsertTimerInActiveList+0x40>)
    431e:	4798      	blx	r3
}
/*-----------------------------------------------------------*/

static BaseType_t prvInsertTimerInActiveList( Timer_t * const pxTimer, const TickType_t xNextExpiryTime, const TickType_t xTimeNow, const TickType_t xCommandTime )
{
BaseType_t xProcessTimerNow = pdFALSE;
    4320:	2000      	movs	r0, #0
			vListInsert( pxCurrentTimerList, &( pxTimer->xTimerListItem ) );
		}
	}

	return xProcessTimerNow;
}
    4322:	bd10      	pop	{r4, pc}
    4324:	20001620 	.word	0x20001620
    4328:	000029b9 	.word	0x000029b9

0000432c <prvCheckForValidListAndQueue>:
	pxOverflowTimerList = pxTemp;
}
/*-----------------------------------------------------------*/

static void prvCheckForValidListAndQueue( void )
{
    432c:	b5f8      	push	{r3, r4, r5, r6, r7, lr}
	/* Check that the list from which active timers are referenced, and the
	queue used to communicate with the timer service, have been
	initialised. */
	taskENTER_CRITICAL();
    432e:	4b10      	ldr	r3, [pc, #64]	; (4370 <prvCheckForValidListAndQueue+0x44>)
    4330:	4798      	blx	r3
	{
		if( xTimerQueue == NULL )
    4332:	4b10      	ldr	r3, [pc, #64]	; (4374 <prvCheckForValidListAndQueue+0x48>)
    4334:	689b      	ldr	r3, [r3, #8]
    4336:	2b00      	cmp	r3, #0
    4338:	d117      	bne.n	436a <prvCheckForValidListAndQueue+0x3e>
		{
			vListInitialise( &xActiveTimerList1 );
    433a:	4c0e      	ldr	r4, [pc, #56]	; (4374 <prvCheckForValidListAndQueue+0x48>)
    433c:	1c26      	adds	r6, r4, #0
    433e:	360c      	adds	r6, #12
    4340:	1c30      	adds	r0, r6, #0
    4342:	4f0d      	ldr	r7, [pc, #52]	; (4378 <prvCheckForValidListAndQueue+0x4c>)
    4344:	47b8      	blx	r7
			vListInitialise( &xActiveTimerList2 );
    4346:	1c25      	adds	r5, r4, #0
    4348:	3520      	adds	r5, #32
    434a:	1c28      	adds	r0, r5, #0
    434c:	47b8      	blx	r7
			pxCurrentTimerList = &xActiveTimerList1;
    434e:	6066      	str	r6, [r4, #4]
			pxOverflowTimerList = &xActiveTimerList2;
    4350:	6025      	str	r5, [r4, #0]
			xTimerQueue = xQueueCreate( ( UBaseType_t ) configTIMER_QUEUE_LENGTH, sizeof( DaemonTaskMessage_t ) );
    4352:	2002      	movs	r0, #2
    4354:	210c      	movs	r1, #12
    4356:	2200      	movs	r2, #0
    4358:	4b08      	ldr	r3, [pc, #32]	; (437c <prvCheckForValidListAndQueue+0x50>)
    435a:	4798      	blx	r3
			configASSERT( xTimerQueue );
    435c:	2800      	cmp	r0, #0
    435e:	d002      	beq.n	4366 <prvCheckForValidListAndQueue+0x3a>
		{
			vListInitialise( &xActiveTimerList1 );
			vListInitialise( &xActiveTimerList2 );
			pxCurrentTimerList = &xActiveTimerList1;
			pxOverflowTimerList = &xActiveTimerList2;
			xTimerQueue = xQueueCreate( ( UBaseType_t ) configTIMER_QUEUE_LENGTH, sizeof( DaemonTaskMessage_t ) );
    4360:	4b04      	ldr	r3, [pc, #16]	; (4374 <prvCheckForValidListAndQueue+0x48>)
    4362:	6098      	str	r0, [r3, #8]
    4364:	e001      	b.n	436a <prvCheckForValidListAndQueue+0x3e>
			configASSERT( xTimerQueue );
    4366:	b672      	cpsid	i
    4368:	e7fe      	b.n	4368 <prvCheckForValidListAndQueue+0x3c>
		else
		{
			mtCOVERAGE_TEST_MARKER();
		}
	}
	taskEXIT_CRITICAL();
    436a:	4b05      	ldr	r3, [pc, #20]	; (4380 <prvCheckForValidListAndQueue+0x54>)
    436c:	4798      	blx	r3
}
    436e:	bdf8      	pop	{r3, r4, r5, r6, r7, pc}
    4370:	00002a7d 	.word	0x00002a7d
    4374:	20001620 	.word	0x20001620
    4378:	00002981 	.word	0x00002981
    437c:	00002e99 	.word	0x00002e99
    4380:	00002a95 	.word	0x00002a95

00004384 <xTimerCreateTimerTask>:
static void prvProcessTimerOrBlockTask( const TickType_t xNextExpireTime, const BaseType_t xListWasEmpty ) PRIVILEGED_FUNCTION;

/*-----------------------------------------------------------*/

BaseType_t xTimerCreateTimerTask( void )
{
    4384:	b510      	push	{r4, lr}
    4386:	b084      	sub	sp, #16

	/* This function is called when the scheduler is started if
	configUSE_TIMERS is set to 1.  Check that the infrastructure used by the
	timer service task has been created/initialised.  If timers have already
	been created then the initialisation will already have been performed. */
	prvCheckForValidListAndQueue();
    4388:	4b0c      	ldr	r3, [pc, #48]	; (43bc <xTimerCreateTimerTask+0x38>)
    438a:	4798      	blx	r3

	if( xTimerQueue != NULL )
    438c:	4b0c      	ldr	r3, [pc, #48]	; (43c0 <xTimerCreateTimerTask+0x3c>)
    438e:	689b      	ldr	r3, [r3, #8]
    4390:	2b00      	cmp	r3, #0
    4392:	d00e      	beq.n	43b2 <xTimerCreateTimerTask+0x2e>
	{
		#if ( INCLUDE_xTimerGetTimerDaemonTaskHandle == 1 )
		{
			/* Create the timer task, storing its handle in xTimerTaskHandle so
			it can be returned by the xTimerGetTimerDaemonTaskHandle() function. */
			xReturn = xTaskCreate( prvTimerTask, "Tmr Svc", ( uint16_t ) configTIMER_TASK_STACK_DEPTH, NULL, ( ( UBaseType_t ) configTIMER_TASK_PRIORITY ) | portPRIVILEGE_BIT, &xTimerTaskHandle );
    4394:	2303      	movs	r3, #3
    4396:	9300      	str	r3, [sp, #0]
    4398:	4b09      	ldr	r3, [pc, #36]	; (43c0 <xTimerCreateTimerTask+0x3c>)
    439a:	3334      	adds	r3, #52	; 0x34
    439c:	9301      	str	r3, [sp, #4]
    439e:	2300      	movs	r3, #0
    43a0:	9302      	str	r3, [sp, #8]
    43a2:	9303      	str	r3, [sp, #12]
    43a4:	4807      	ldr	r0, [pc, #28]	; (43c4 <xTimerCreateTimerTask+0x40>)
    43a6:	4908      	ldr	r1, [pc, #32]	; (43c8 <xTimerCreateTimerTask+0x44>)
    43a8:	22aa      	movs	r2, #170	; 0xaa
    43aa:	4c08      	ldr	r4, [pc, #32]	; (43cc <xTimerCreateTimerTask+0x48>)
    43ac:	47a0      	blx	r4
	else
	{
		mtCOVERAGE_TEST_MARKER();
	}

	configASSERT( xReturn );
    43ae:	2800      	cmp	r0, #0
    43b0:	d101      	bne.n	43b6 <xTimerCreateTimerTask+0x32>
    43b2:	b672      	cpsid	i
    43b4:	e7fe      	b.n	43b4 <xTimerCreateTimerTask+0x30>
	return xReturn;
}
    43b6:	b004      	add	sp, #16
    43b8:	bd10      	pop	{r4, pc}
    43ba:	46c0      	nop			; (mov r8, r8)
    43bc:	0000432d 	.word	0x0000432d
    43c0:	20001620 	.word	0x20001620
    43c4:	00004609 	.word	0x00004609
    43c8:	00006ac8 	.word	0x00006ac8
    43cc:	000036cd 	.word	0x000036cd

000043d0 <xTimerCreate>:
/*-----------------------------------------------------------*/

TimerHandle_t xTimerCreate( const char * const pcTimerName, const TickType_t xTimerPeriodInTicks, const UBaseType_t uxAutoReload, void * const pvTimerID, TimerCallbackFunction_t pxCallbackFunction ) /*lint !e971 Unqualified char types are allowed for strings and single characters only. */
{
    43d0:	b5f0      	push	{r4, r5, r6, r7, lr}
    43d2:	4647      	mov	r7, r8
    43d4:	b480      	push	{r7}
    43d6:	4680      	mov	r8, r0
    43d8:	1c0d      	adds	r5, r1, #0
    43da:	1c17      	adds	r7, r2, #0
    43dc:	1c1e      	adds	r6, r3, #0
Timer_t *pxNewTimer;

	/* Allocate the timer structure. */
	if( xTimerPeriodInTicks == ( TickType_t ) 0U )
    43de:	2900      	cmp	r1, #0
    43e0:	d02b      	beq.n	443a <xTimerCreate+0x6a>
	{
		pxNewTimer = NULL;
	}
	else
	{
		pxNewTimer = ( Timer_t * ) pvPortMalloc( sizeof( Timer_t ) );
    43e2:	202c      	movs	r0, #44	; 0x2c
    43e4:	4b18      	ldr	r3, [pc, #96]	; (4448 <xTimerCreate+0x78>)
    43e6:	4798      	blx	r3
    43e8:	1e04      	subs	r4, r0, #0
		if( pxNewTimer != NULL )
    43ea:	d01c      	beq.n	4426 <xTimerCreate+0x56>
		{
			/* Ensure the infrastructure used by the timer service task has been
			created/initialised. */
			prvCheckForValidListAndQueue();
    43ec:	4b17      	ldr	r3, [pc, #92]	; (444c <xTimerCreate+0x7c>)
    43ee:	4798      	blx	r3

			/* Initialise the timer structure members using the function parameters. */
			pxNewTimer->pcTimerName = pcTimerName;
    43f0:	4643      	mov	r3, r8
    43f2:	6023      	str	r3, [r4, #0]
			pxNewTimer->xTimerPeriodInTicks = xTimerPeriodInTicks;
    43f4:	61a5      	str	r5, [r4, #24]
			pxNewTimer->uxAutoReload = uxAutoReload;
    43f6:	61e7      	str	r7, [r4, #28]
			pxNewTimer->pvTimerID = pvTimerID;
    43f8:	6226      	str	r6, [r4, #32]
			pxNewTimer->pxCallbackFunction = pxCallbackFunction;
    43fa:	9b06      	ldr	r3, [sp, #24]
    43fc:	6263      	str	r3, [r4, #36]	; 0x24
			vListInitialiseItem( &( pxNewTimer->xTimerListItem ) );
    43fe:	1d20      	adds	r0, r4, #4
    4400:	4b13      	ldr	r3, [pc, #76]	; (4450 <xTimerCreate+0x80>)
    4402:	4798      	blx	r3

			traceTIMER_CREATE( pxNewTimer );
    4404:	2005      	movs	r0, #5
    4406:	4b13      	ldr	r3, [pc, #76]	; (4454 <xTimerCreate+0x84>)
    4408:	4798      	blx	r3
    440a:	1c01      	adds	r1, r0, #0
    440c:	62a0      	str	r0, [r4, #40]	; 0x28
    440e:	2005      	movs	r0, #5
    4410:	6822      	ldr	r2, [r4, #0]
    4412:	4b11      	ldr	r3, [pc, #68]	; (4458 <xTimerCreate+0x88>)
    4414:	4798      	blx	r3
    4416:	22ff      	movs	r2, #255	; 0xff
    4418:	6aa3      	ldr	r3, [r4, #40]	; 0x28
    441a:	401a      	ands	r2, r3
    441c:	20b0      	movs	r0, #176	; 0xb0
    441e:	2105      	movs	r1, #5
    4420:	4b0e      	ldr	r3, [pc, #56]	; (445c <xTimerCreate+0x8c>)
    4422:	4798      	blx	r3
    4424:	e00b      	b.n	443e <xTimerCreate+0x6e>
		}
		else
		{
			traceTIMER_CREATE_FAILED();
    4426:	2300      	movs	r3, #0
    4428:	6a9a      	ldr	r2, [r3, #40]	; 0x28
    442a:	23ff      	movs	r3, #255	; 0xff
    442c:	401a      	ands	r2, r3
    442e:	20b9      	movs	r0, #185	; 0xb9
    4430:	2105      	movs	r1, #5
    4432:	4b0a      	ldr	r3, [pc, #40]	; (445c <xTimerCreate+0x8c>)
    4434:	4798      	blx	r3
    4436:	e002      	b.n	443e <xTimerCreate+0x6e>
    4438:	e7fe      	b.n	4438 <xTimerCreate+0x68>
		}
	}

	/* 0 is not a valid value for xTimerPeriodInTicks. */
	configASSERT( ( xTimerPeriodInTicks > 0 ) );
    443a:	b672      	cpsid	i
    443c:	e7fc      	b.n	4438 <xTimerCreate+0x68>

	return ( TimerHandle_t ) pxNewTimer;
}
    443e:	1c20      	adds	r0, r4, #0
    4440:	bc04      	pop	{r2}
    4442:	4690      	mov	r8, r2
    4444:	bdf0      	pop	{r4, r5, r6, r7, pc}
    4446:	46c0      	nop			; (mov r8, r8)
    4448:	00002ba1 	.word	0x00002ba1
    444c:	0000432d 	.word	0x0000432d
    4450:	00002999 	.word	0x00002999
    4454:	000012cd 	.word	0x000012cd
    4458:	00001491 	.word	0x00001491
    445c:	00001b11 	.word	0x00001b11

00004460 <xTimerGenericCommand>:
/*-----------------------------------------------------------*/

BaseType_t xTimerGenericCommand( TimerHandle_t xTimer, const BaseType_t xCommandID, const TickType_t xOptionalValue, BaseType_t * const pxHigherPriorityTaskWoken, const TickType_t xTicksToWait )
{
    4460:	b5f0      	push	{r4, r5, r6, r7, lr}
    4462:	b085      	sub	sp, #20
    4464:	1c06      	adds	r6, r0, #0
    4466:	1c0c      	adds	r4, r1, #0
    4468:	1c17      	adds	r7, r2, #0
BaseType_t xReturn = pdFAIL;
DaemonTaskMessage_t xMessage;

	/* Send a message to the timer service task to perform a particular action
	on a particular timer definition. */
	if( xTimerQueue != NULL )
    446a:	4931      	ldr	r1, [pc, #196]	; (4530 <xTimerGenericCommand+0xd0>)
    446c:	6888      	ldr	r0, [r1, #8]
    446e:	2800      	cmp	r0, #0
    4470:	d059      	beq.n	4526 <xTimerGenericCommand+0xc6>
	{
		/* Send a command to the timer service task to start the xTimer timer. */
		xMessage.xMessageID = xCommandID;
    4472:	9401      	str	r4, [sp, #4]
		xMessage.u.xTimerParameters.xMessageValue = xOptionalValue;
    4474:	9202      	str	r2, [sp, #8]
		xMessage.u.xTimerParameters.pxTimer = ( Timer_t * ) xTimer;
    4476:	9603      	str	r6, [sp, #12]

		if( xCommandID < tmrFIRST_FROM_ISR_COMMAND )
    4478:	2c05      	cmp	r4, #5
    447a:	dc15      	bgt.n	44a8 <xTimerGenericCommand+0x48>
		{
			if( xTaskGetSchedulerState() == taskSCHEDULER_RUNNING )
    447c:	4b2d      	ldr	r3, [pc, #180]	; (4534 <xTimerGenericCommand+0xd4>)
    447e:	4798      	blx	r3
    4480:	2802      	cmp	r0, #2
    4482:	d108      	bne.n	4496 <xTimerGenericCommand+0x36>
			{
				xReturn = xQueueSendToBack( xTimerQueue, &xMessage, xTicksToWait );
    4484:	4b2a      	ldr	r3, [pc, #168]	; (4530 <xTimerGenericCommand+0xd0>)
    4486:	6898      	ldr	r0, [r3, #8]
    4488:	a901      	add	r1, sp, #4
    448a:	9a0a      	ldr	r2, [sp, #40]	; 0x28
    448c:	2300      	movs	r3, #0
    448e:	4d2a      	ldr	r5, [pc, #168]	; (4538 <xTimerGenericCommand+0xd8>)
    4490:	47a8      	blx	r5
    4492:	1c05      	adds	r5, r0, #0
    4494:	e00e      	b.n	44b4 <xTimerGenericCommand+0x54>
			}
			else
			{
				xReturn = xQueueSendToBack( xTimerQueue, &xMessage, tmrNO_DELAY );
    4496:	4b26      	ldr	r3, [pc, #152]	; (4530 <xTimerGenericCommand+0xd0>)
    4498:	6898      	ldr	r0, [r3, #8]
    449a:	a901      	add	r1, sp, #4
    449c:	2200      	movs	r2, #0
    449e:	2300      	movs	r3, #0
    44a0:	4d25      	ldr	r5, [pc, #148]	; (4538 <xTimerGenericCommand+0xd8>)
    44a2:	47a8      	blx	r5
    44a4:	1c05      	adds	r5, r0, #0
    44a6:	e005      	b.n	44b4 <xTimerGenericCommand+0x54>
			}
		}
		else
		{
			xReturn = xQueueSendToBackFromISR( xTimerQueue, &xMessage, pxHigherPriorityTaskWoken );
    44a8:	a901      	add	r1, sp, #4
    44aa:	1c1a      	adds	r2, r3, #0
    44ac:	2300      	movs	r3, #0
    44ae:	4d23      	ldr	r5, [pc, #140]	; (453c <xTimerGenericCommand+0xdc>)
    44b0:	47a8      	blx	r5
    44b2:	1c05      	adds	r5, r0, #0
		}

		traceTIMER_COMMAND_SEND( xTimer, xCommandID, xOptionalValue, xReturn );
    44b4:	2c00      	cmp	r4, #0
    44b6:	dd37      	ble.n	4528 <xTimerGenericCommand+0xc8>
    44b8:	2c04      	cmp	r4, #4
    44ba:	d10b      	bne.n	44d4 <xTimerGenericCommand+0x74>
    44bc:	20bd      	movs	r0, #189	; 0xbd
    44be:	2d01      	cmp	r5, #1
    44c0:	d100      	bne.n	44c4 <xTimerGenericCommand+0x64>
    44c2:	20b4      	movs	r0, #180	; 0xb4
    44c4:	6ab2      	ldr	r2, [r6, #40]	; 0x28
    44c6:	23ff      	movs	r3, #255	; 0xff
    44c8:	401a      	ands	r2, r3
    44ca:	2105      	movs	r1, #5
    44cc:	1c3b      	adds	r3, r7, #0
    44ce:	4c1c      	ldr	r4, [pc, #112]	; (4540 <xTimerGenericCommand+0xe0>)
    44d0:	47a0      	blx	r4
    44d2:	e029      	b.n	4528 <xTimerGenericCommand+0xc8>
    44d4:	2c05      	cmp	r4, #5
    44d6:	d119      	bne.n	450c <xTimerGenericCommand+0xac>
    44d8:	24b5      	movs	r4, #181	; 0xb5
    44da:	2d01      	cmp	r5, #1
    44dc:	d11a      	bne.n	4514 <xTimerGenericCommand+0xb4>
    44de:	22ff      	movs	r2, #255	; 0xff
    44e0:	6ab3      	ldr	r3, [r6, #40]	; 0x28
    44e2:	401a      	ands	r2, r3
    44e4:	20b5      	movs	r0, #181	; 0xb5
    44e6:	2105      	movs	r1, #5
    44e8:	4b16      	ldr	r3, [pc, #88]	; (4544 <xTimerGenericCommand+0xe4>)
    44ea:	4798      	blx	r3
    44ec:	6ab3      	ldr	r3, [r6, #40]	; 0x28
    44ee:	b2d8      	uxtb	r0, r3
    44f0:	2105      	movs	r1, #5
    44f2:	4b15      	ldr	r3, [pc, #84]	; (4548 <xTimerGenericCommand+0xe8>)
    44f4:	4798      	blx	r3
    44f6:	6ab3      	ldr	r3, [r6, #40]	; 0x28
    44f8:	b2d8      	uxtb	r0, r3
    44fa:	2105      	movs	r1, #5
    44fc:	4b13      	ldr	r3, [pc, #76]	; (454c <xTimerGenericCommand+0xec>)
    44fe:	4798      	blx	r3
    4500:	6ab1      	ldr	r1, [r6, #40]	; 0x28
    4502:	b2c9      	uxtb	r1, r1
    4504:	2005      	movs	r0, #5
    4506:	4b12      	ldr	r3, [pc, #72]	; (4550 <xTimerGenericCommand+0xf0>)
    4508:	4798      	blx	r3
    450a:	e00d      	b.n	4528 <xTimerGenericCommand+0xc8>
    450c:	34b0      	adds	r4, #176	; 0xb0
    450e:	2300      	movs	r3, #0
    4510:	2d01      	cmp	r5, #1
    4512:	d000      	beq.n	4516 <xTimerGenericCommand+0xb6>
    4514:	2309      	movs	r3, #9
    4516:	18e0      	adds	r0, r4, r3
    4518:	6ab2      	ldr	r2, [r6, #40]	; 0x28
    451a:	23ff      	movs	r3, #255	; 0xff
    451c:	401a      	ands	r2, r3
    451e:	2105      	movs	r1, #5
    4520:	4b08      	ldr	r3, [pc, #32]	; (4544 <xTimerGenericCommand+0xe4>)
    4522:	4798      	blx	r3
    4524:	e000      	b.n	4528 <xTimerGenericCommand+0xc8>
}
/*-----------------------------------------------------------*/

BaseType_t xTimerGenericCommand( TimerHandle_t xTimer, const BaseType_t xCommandID, const TickType_t xOptionalValue, BaseType_t * const pxHigherPriorityTaskWoken, const TickType_t xTicksToWait )
{
BaseType_t xReturn = pdFAIL;
    4526:	2500      	movs	r5, #0
	{
		mtCOVERAGE_TEST_MARKER();
	}

	return xReturn;
}
    4528:	1c28      	adds	r0, r5, #0
    452a:	b005      	add	sp, #20
    452c:	bdf0      	pop	{r4, r5, r6, r7, pc}
    452e:	46c0      	nop			; (mov r8, r8)
    4530:	20001620 	.word	0x20001620
    4534:	00004151 	.word	0x00004151
    4538:	00002f6d 	.word	0x00002f6d
    453c:	000031bd 	.word	0x000031bd
    4540:	00001c15 	.word	0x00001c15
    4544:	00001b11 	.word	0x00001b11
    4548:	00001e3d 	.word	0x00001e3d
    454c:	00001eb1 	.word	0x00001eb1
    4550:	00001421 	.word	0x00001421

00004554 <prvSampleTimeNow>:
	return xNextExpireTime;
}
/*-----------------------------------------------------------*/

static TickType_t prvSampleTimeNow( BaseType_t * const pxTimerListsWereSwitched )
{
    4554:	b5f0      	push	{r4, r5, r6, r7, lr}
    4556:	4657      	mov	r7, sl
    4558:	464e      	mov	r6, r9
    455a:	4645      	mov	r5, r8
    455c:	b4e0      	push	{r5, r6, r7}
    455e:	b082      	sub	sp, #8
    4560:	4681      	mov	r9, r0
TickType_t xTimeNow;
PRIVILEGED_DATA static TickType_t xLastTime = ( TickType_t ) 0U; /*lint !e956 Variable is only accessible to one task. */

	xTimeNow = xTaskGetTickCount();
    4562:	4b24      	ldr	r3, [pc, #144]	; (45f4 <prvSampleTimeNow+0xa0>)
    4564:	4798      	blx	r3
    4566:	4680      	mov	r8, r0

	if( xTimeNow < xLastTime )
    4568:	4b23      	ldr	r3, [pc, #140]	; (45f8 <prvSampleTimeNow+0xa4>)
    456a:	6b9b      	ldr	r3, [r3, #56]	; 0x38
    456c:	4298      	cmp	r0, r3
    456e:	d233      	bcs.n	45d8 <prvSampleTimeNow+0x84>

	/* The tick count has overflowed.  The timer lists must be switched.
	If there are any timers still referenced from the current timer list
	then they must have expired and should be processed before the lists
	are switched. */
	while( listLIST_IS_EMPTY( pxCurrentTimerList ) == pdFALSE )
    4570:	4e21      	ldr	r6, [pc, #132]	; (45f8 <prvSampleTimeNow+0xa4>)
	{
		xNextExpireTime = listGET_ITEM_VALUE_OF_HEAD_ENTRY( pxCurrentTimerList );

		/* Remove the timer from the list. */
		pxTimer = ( Timer_t * ) listGET_OWNER_OF_HEAD_ENTRY( pxCurrentTimerList );
		( void ) uxListRemove( &( pxTimer->xTimerListItem ) );
    4572:	4f22      	ldr	r7, [pc, #136]	; (45fc <prvSampleTimeNow+0xa8>)
    4574:	e024      	b.n	45c0 <prvSampleTimeNow+0x6c>
	If there are any timers still referenced from the current timer list
	then they must have expired and should be processed before the lists
	are switched. */
	while( listLIST_IS_EMPTY( pxCurrentTimerList ) == pdFALSE )
	{
		xNextExpireTime = listGET_ITEM_VALUE_OF_HEAD_ENTRY( pxCurrentTimerList );
    4576:	68db      	ldr	r3, [r3, #12]
    4578:	6819      	ldr	r1, [r3, #0]
    457a:	468a      	mov	sl, r1

		/* Remove the timer from the list. */
		pxTimer = ( Timer_t * ) listGET_OWNER_OF_HEAD_ENTRY( pxCurrentTimerList );
    457c:	68dc      	ldr	r4, [r3, #12]
		( void ) uxListRemove( &( pxTimer->xTimerListItem ) );
    457e:	1d25      	adds	r5, r4, #4
    4580:	1c28      	adds	r0, r5, #0
    4582:	47b8      	blx	r7
		traceTIMER_EXPIRED( pxTimer );

		/* Execute its callback, then send a command to restart the timer if
		it is an auto-reload timer.  It cannot be restarted here as the lists
		have not yet been switched. */
		pxTimer->pxCallbackFunction( ( TimerHandle_t ) pxTimer );
    4584:	1c20      	adds	r0, r4, #0
    4586:	6a62      	ldr	r2, [r4, #36]	; 0x24
    4588:	4790      	blx	r2

		if( pxTimer->uxAutoReload == ( UBaseType_t ) pdTRUE )
    458a:	69e3      	ldr	r3, [r4, #28]
    458c:	2b01      	cmp	r3, #1
    458e:	d117      	bne.n	45c0 <prvSampleTimeNow+0x6c>
			the timer going into the same timer list then it has already expired
			and the timer should be re-inserted into the current list so it is
			processed again within this loop.  Otherwise a command should be sent
			to restart the timer to ensure it is only inserted into a list after
			the lists have been swapped. */
			xReloadTime = ( xNextExpireTime + pxTimer->xTimerPeriodInTicks );
    4590:	69a1      	ldr	r1, [r4, #24]
    4592:	1c0b      	adds	r3, r1, #0
    4594:	4453      	add	r3, sl
			if( xReloadTime > xNextExpireTime )
    4596:	4553      	cmp	r3, sl
    4598:	d907      	bls.n	45aa <prvSampleTimeNow+0x56>
			{
				listSET_LIST_ITEM_VALUE( &( pxTimer->xTimerListItem ), xReloadTime );
    459a:	6063      	str	r3, [r4, #4]
				listSET_LIST_ITEM_OWNER( &( pxTimer->xTimerListItem ), pxTimer );
    459c:	6124      	str	r4, [r4, #16]
				vListInsert( pxCurrentTimerList, &( pxTimer->xTimerListItem ) );
    459e:	4b16      	ldr	r3, [pc, #88]	; (45f8 <prvSampleTimeNow+0xa4>)
    45a0:	6858      	ldr	r0, [r3, #4]
    45a2:	1c29      	adds	r1, r5, #0
    45a4:	4b16      	ldr	r3, [pc, #88]	; (4600 <prvSampleTimeNow+0xac>)
    45a6:	4798      	blx	r3
    45a8:	e00a      	b.n	45c0 <prvSampleTimeNow+0x6c>
			}
			else
			{
				xResult = xTimerGenericCommand( pxTimer, tmrCOMMAND_START_DONT_TRACE, xNextExpireTime, NULL, tmrNO_DELAY );
    45aa:	2300      	movs	r3, #0
    45ac:	9300      	str	r3, [sp, #0]
    45ae:	1c20      	adds	r0, r4, #0
    45b0:	2100      	movs	r1, #0
    45b2:	4652      	mov	r2, sl
    45b4:	4c13      	ldr	r4, [pc, #76]	; (4604 <prvSampleTimeNow+0xb0>)
    45b6:	47a0      	blx	r4
				configASSERT( xResult );
    45b8:	2800      	cmp	r0, #0
    45ba:	d101      	bne.n	45c0 <prvSampleTimeNow+0x6c>
    45bc:	b672      	cpsid	i
    45be:	e7fe      	b.n	45be <prvSampleTimeNow+0x6a>

	/* The tick count has overflowed.  The timer lists must be switched.
	If there are any timers still referenced from the current timer list
	then they must have expired and should be processed before the lists
	are switched. */
	while( listLIST_IS_EMPTY( pxCurrentTimerList ) == pdFALSE )
    45c0:	6873      	ldr	r3, [r6, #4]
    45c2:	6819      	ldr	r1, [r3, #0]
    45c4:	2900      	cmp	r1, #0
    45c6:	d1d6      	bne.n	4576 <prvSampleTimeNow+0x22>
			mtCOVERAGE_TEST_MARKER();
		}
	}

	pxTemp = pxCurrentTimerList;
	pxCurrentTimerList = pxOverflowTimerList;
    45c8:	4a0b      	ldr	r2, [pc, #44]	; (45f8 <prvSampleTimeNow+0xa4>)
    45ca:	6814      	ldr	r4, [r2, #0]
    45cc:	6054      	str	r4, [r2, #4]
	pxOverflowTimerList = pxTemp;
    45ce:	6013      	str	r3, [r2, #0]
	xTimeNow = xTaskGetTickCount();

	if( xTimeNow < xLastTime )
	{
		prvSwitchTimerLists();
		*pxTimerListsWereSwitched = pdTRUE;
    45d0:	2301      	movs	r3, #1
    45d2:	4649      	mov	r1, r9
    45d4:	600b      	str	r3, [r1, #0]
    45d6:	e002      	b.n	45de <prvSampleTimeNow+0x8a>
	}
	else
	{
		*pxTimerListsWereSwitched = pdFALSE;
    45d8:	2300      	movs	r3, #0
    45da:	464a      	mov	r2, r9
    45dc:	6013      	str	r3, [r2, #0]
	}

	xLastTime = xTimeNow;
    45de:	4b06      	ldr	r3, [pc, #24]	; (45f8 <prvSampleTimeNow+0xa4>)
    45e0:	4644      	mov	r4, r8
    45e2:	639c      	str	r4, [r3, #56]	; 0x38

	return xTimeNow;
}
    45e4:	4640      	mov	r0, r8
    45e6:	b002      	add	sp, #8
    45e8:	bc1c      	pop	{r2, r3, r4}
    45ea:	4690      	mov	r8, r2
    45ec:	4699      	mov	r9, r3
    45ee:	46a2      	mov	sl, r4
    45f0:	bdf0      	pop	{r4, r5, r6, r7, pc}
    45f2:	46c0      	nop			; (mov r8, r8)
    45f4:	00003ae1 	.word	0x00003ae1
    45f8:	20001620 	.word	0x20001620
    45fc:	000029e9 	.word	0x000029e9
    4600:	000029b9 	.word	0x000029b9
    4604:	00004461 	.word	0x00004461

00004608 <prvTimerTask>:
	pxTimer->pxCallbackFunction( ( TimerHandle_t ) pxTimer );
}
/*-----------------------------------------------------------*/

static void prvTimerTask( void *pvParameters )
{
    4608:	b5f0      	push	{r4, r5, r6, r7, lr}
    460a:	4647      	mov	r7, r8
    460c:	b480      	push	{r7}
    460e:	b086      	sub	sp, #24
	the timer with the nearest expiry time will expire.  If there are no
	active timers then just set the next expire time to 0.  That will cause
	this task to unblock when the tick count overflows, at which point the
	timer lists will be switched and the next expiry time can be
	re-assessed.  */
	*pxListWasEmpty = listLIST_IS_EMPTY( pxCurrentTimerList );
    4610:	484e      	ldr	r0, [pc, #312]	; (474c <prvTimerTask+0x144>)
    4612:	4680      	mov	r8, r0
    4614:	4641      	mov	r1, r8
    4616:	684b      	ldr	r3, [r1, #4]
	if( *pxListWasEmpty == pdFALSE )
    4618:	681a      	ldr	r2, [r3, #0]
    461a:	2a00      	cmp	r2, #0
    461c:	d100      	bne.n	4620 <prvTimerTask+0x18>
    461e:	e08a      	b.n	4736 <prvTimerTask+0x12e>
	{
		xNextExpireTime = listGET_ITEM_VALUE_OF_HEAD_ENTRY( pxCurrentTimerList );
    4620:	68db      	ldr	r3, [r3, #12]
    4622:	681c      	ldr	r4, [r3, #0]
static void prvProcessTimerOrBlockTask( const TickType_t xNextExpireTime, const BaseType_t xListWasEmpty )
{
TickType_t xTimeNow;
BaseType_t xTimerListsWereSwitched;

	vTaskSuspendAll();
    4624:	4b4a      	ldr	r3, [pc, #296]	; (4750 <prvTimerTask+0x148>)
    4626:	4798      	blx	r3
		/* Obtain the time now to make an assessment as to whether the timer
		has expired or not.  If obtaining the time causes the lists to switch
		then don't process this timer as any timers that remained in the list
		when the lists were switched will have been processed within the
		prvSampleTimeNow() function. */
		xTimeNow = prvSampleTimeNow( &xTimerListsWereSwitched );
    4628:	a803      	add	r0, sp, #12
    462a:	4b4a      	ldr	r3, [pc, #296]	; (4754 <prvTimerTask+0x14c>)
    462c:	4798      	blx	r3
    462e:	1c05      	adds	r5, r0, #0
		if( xTimerListsWereSwitched == pdFALSE )
    4630:	9b03      	ldr	r3, [sp, #12]
    4632:	2b00      	cmp	r3, #0
    4634:	d131      	bne.n	469a <prvTimerTask+0x92>
		{
			/* The tick count has not overflowed, has the timer expired? */
			if( ( xListWasEmpty == pdFALSE ) && ( xNextExpireTime <= xTimeNow ) )
    4636:	4284      	cmp	r4, r0
    4638:	d823      	bhi.n	4682 <prvTimerTask+0x7a>
			{
				( void ) xTaskResumeAll();
    463a:	4b47      	ldr	r3, [pc, #284]	; (4758 <prvTimerTask+0x150>)
    463c:	4798      	blx	r3
/*-----------------------------------------------------------*/

static void prvProcessExpiredTimer( const TickType_t xNextExpireTime, const TickType_t xTimeNow )
{
BaseType_t xResult;
Timer_t * const pxTimer = ( Timer_t * ) listGET_OWNER_OF_HEAD_ENTRY( pxCurrentTimerList );
    463e:	4b43      	ldr	r3, [pc, #268]	; (474c <prvTimerTask+0x144>)
    4640:	685b      	ldr	r3, [r3, #4]
    4642:	68db      	ldr	r3, [r3, #12]
    4644:	68de      	ldr	r6, [r3, #12]

	/* Remove the timer from the list of active timers.  A check has already
	been performed to ensure the list is not empty. */
	( void ) uxListRemove( &( pxTimer->xTimerListItem ) );
    4646:	1d30      	adds	r0, r6, #4
    4648:	4b44      	ldr	r3, [pc, #272]	; (475c <prvTimerTask+0x154>)
    464a:	4798      	blx	r3
	traceTIMER_EXPIRED( pxTimer );

	/* If the timer is an auto reload timer then calculate the next
	expiry time and re-insert the timer in the list of active timers. */
	if( pxTimer->uxAutoReload == ( UBaseType_t ) pdTRUE )
    464c:	69f7      	ldr	r7, [r6, #28]
    464e:	2f01      	cmp	r7, #1
    4650:	d113      	bne.n	467a <prvTimerTask+0x72>
	{
		/* The timer is inserted into a list using a time relative to anything
		other than the current time.  It will therefore be inserted into the
		correct list relative to the time this task thinks it is now. */
		if( prvInsertTimerInActiveList( pxTimer, ( xNextExpireTime + pxTimer->xTimerPeriodInTicks ), xTimeNow, xNextExpireTime ) == pdTRUE )
    4652:	69b0      	ldr	r0, [r6, #24]
    4654:	1821      	adds	r1, r4, r0
    4656:	1c30      	adds	r0, r6, #0
    4658:	1c2a      	adds	r2, r5, #0
    465a:	1c23      	adds	r3, r4, #0
    465c:	4d40      	ldr	r5, [pc, #256]	; (4760 <prvTimerTask+0x158>)
    465e:	47a8      	blx	r5
    4660:	2801      	cmp	r0, #1
    4662:	d10a      	bne.n	467a <prvTimerTask+0x72>
		{
			/* The timer expired before it was added to the active timer
			list.  Reload it now.  */
			xResult = xTimerGenericCommand( pxTimer, tmrCOMMAND_START_DONT_TRACE, xNextExpireTime, NULL, tmrNO_DELAY );
    4664:	2300      	movs	r3, #0
    4666:	9300      	str	r3, [sp, #0]
    4668:	1c30      	adds	r0, r6, #0
    466a:	2100      	movs	r1, #0
    466c:	1c22      	adds	r2, r4, #0
    466e:	4c3d      	ldr	r4, [pc, #244]	; (4764 <prvTimerTask+0x15c>)
    4670:	47a0      	blx	r4
			configASSERT( xResult );
    4672:	2800      	cmp	r0, #0
    4674:	d101      	bne.n	467a <prvTimerTask+0x72>
    4676:	b672      	cpsid	i
    4678:	e7fe      	b.n	4678 <prvTimerTask+0x70>
	{
		mtCOVERAGE_TEST_MARKER();
	}

	/* Call the timer callback. */
	pxTimer->pxCallbackFunction( ( TimerHandle_t ) pxTimer );
    467a:	6a73      	ldr	r3, [r6, #36]	; 0x24
    467c:	1c30      	adds	r0, r6, #0
    467e:	4798      	blx	r3
    4680:	e00d      	b.n	469e <prvTimerTask+0x96>
				time has not been reached yet.  This task should therefore
				block to wait for the next expire time or a command to be
				received - whichever comes first.  The following line cannot
				be reached unless xNextExpireTime > xTimeNow, except in the
				case when the current timer list is empty. */
				vQueueWaitForMessageRestricted( xTimerQueue, ( xNextExpireTime - xTimeNow ) );
    4682:	4b32      	ldr	r3, [pc, #200]	; (474c <prvTimerTask+0x144>)
    4684:	6898      	ldr	r0, [r3, #8]
    4686:	1b61      	subs	r1, r4, r5
    4688:	4b37      	ldr	r3, [pc, #220]	; (4768 <prvTimerTask+0x160>)
    468a:	4798      	blx	r3

				if( xTaskResumeAll() == pdFALSE )
    468c:	4b32      	ldr	r3, [pc, #200]	; (4758 <prvTimerTask+0x150>)
    468e:	4798      	blx	r3
    4690:	2800      	cmp	r0, #0
    4692:	d104      	bne.n	469e <prvTimerTask+0x96>
				{
					/* Yield to wait for either a command to arrive, or the block time
					to expire.  If a command arrived between the critical section being
					exited and this yield then the yield will not cause the task
					to block. */
					portYIELD_WITHIN_API();
    4694:	4b35      	ldr	r3, [pc, #212]	; (476c <prvTimerTask+0x164>)
    4696:	4798      	blx	r3
    4698:	e001      	b.n	469e <prvTimerTask+0x96>
				}
			}
		}
		else
		{
			( void ) xTaskResumeAll();
    469a:	4b2f      	ldr	r3, [pc, #188]	; (4758 <prvTimerTask+0x150>)
    469c:	4798      	blx	r3
DaemonTaskMessage_t xMessage;
Timer_t *pxTimer;
BaseType_t xTimerListsWereSwitched, xResult;
TickType_t xTimeNow;

	while( xQueueReceive( xTimerQueue, &xMessage, tmrNO_DELAY ) != pdFAIL ) /*lint !e603 xMessage does not have to be initialised as it is passed out, not in, and it is not used unless xQueueReceive() returns pdTRUE. */
    469e:	4d2b      	ldr	r5, [pc, #172]	; (474c <prvTimerTask+0x144>)
    46a0:	4c33      	ldr	r4, [pc, #204]	; (4770 <prvTimerTask+0x168>)
    46a2:	e040      	b.n	4726 <prvTimerTask+0x11e>
		}
		#endif /* INCLUDE_xTimerPendFunctionCall */

		/* Commands that are positive are timer commands rather than pended
		function calls. */
		if( xMessage.xMessageID >= ( BaseType_t ) 0 )
    46a4:	9903      	ldr	r1, [sp, #12]
    46a6:	2900      	cmp	r1, #0
    46a8:	db3d      	blt.n	4726 <prvTimerTask+0x11e>
		{
			/* The messages uses the xTimerParameters member to work on a
			software timer. */
			pxTimer = xMessage.u.xTimerParameters.pxTimer;
    46aa:	9e05      	ldr	r6, [sp, #20]

			if( listIS_CONTAINED_WITHIN( NULL, &( pxTimer->xTimerListItem ) ) == pdFALSE )
    46ac:	6972      	ldr	r2, [r6, #20]
    46ae:	2a00      	cmp	r2, #0
    46b0:	d002      	beq.n	46b8 <prvTimerTask+0xb0>
			{
				/* The timer is in a list, remove it. */
				( void ) uxListRemove( &( pxTimer->xTimerListItem ) );
    46b2:	1d30      	adds	r0, r6, #4
    46b4:	4b29      	ldr	r3, [pc, #164]	; (475c <prvTimerTask+0x154>)
    46b6:	4798      	blx	r3
			it must be present in the function call.  prvSampleTimeNow() must be
			called after the message is received from xTimerQueue so there is no
			possibility of a higher priority task adding a message to the message
			queue with a time that is ahead of the timer daemon task (because it
			pre-empted the timer daemon task after the xTimeNow value was set). */
			xTimeNow = prvSampleTimeNow( &xTimerListsWereSwitched );
    46b8:	a802      	add	r0, sp, #8
    46ba:	4b26      	ldr	r3, [pc, #152]	; (4754 <prvTimerTask+0x14c>)
    46bc:	4798      	blx	r3
    46be:	1c03      	adds	r3, r0, #0

			switch( xMessage.xMessageID )
    46c0:	9f03      	ldr	r7, [sp, #12]
    46c2:	2f09      	cmp	r7, #9
    46c4:	d82f      	bhi.n	4726 <prvTimerTask+0x11e>
    46c6:	00ba      	lsls	r2, r7, #2
    46c8:	492a      	ldr	r1, [pc, #168]	; (4774 <prvTimerTask+0x16c>)
    46ca:	588a      	ldr	r2, [r1, r2]
    46cc:	4697      	mov	pc, r2
			    case tmrCOMMAND_START_FROM_ISR :
			    case tmrCOMMAND_RESET :
			    case tmrCOMMAND_RESET_FROM_ISR :
				case tmrCOMMAND_START_DONT_TRACE :
					/* Start or restart a timer. */
					if( prvInsertTimerInActiveList( pxTimer,  xMessage.u.xTimerParameters.xMessageValue + pxTimer->xTimerPeriodInTicks, xTimeNow, xMessage.u.xTimerParameters.xMessageValue ) == pdTRUE )
    46ce:	9f04      	ldr	r7, [sp, #16]
    46d0:	69b2      	ldr	r2, [r6, #24]
    46d2:	18b9      	adds	r1, r7, r2
    46d4:	1c30      	adds	r0, r6, #0
    46d6:	1c1a      	adds	r2, r3, #0
    46d8:	1c3b      	adds	r3, r7, #0
    46da:	4f21      	ldr	r7, [pc, #132]	; (4760 <prvTimerTask+0x158>)
    46dc:	47b8      	blx	r7
    46de:	2801      	cmp	r0, #1
    46e0:	d121      	bne.n	4726 <prvTimerTask+0x11e>
					{
						/* The timer expired before it was added to the active
						timer list.  Process it now. */
						pxTimer->pxCallbackFunction( ( TimerHandle_t ) pxTimer );
    46e2:	1c30      	adds	r0, r6, #0
    46e4:	6a71      	ldr	r1, [r6, #36]	; 0x24
    46e6:	4788      	blx	r1
						traceTIMER_EXPIRED( pxTimer );

						if( pxTimer->uxAutoReload == ( UBaseType_t ) pdTRUE )
    46e8:	69f2      	ldr	r2, [r6, #28]
    46ea:	2a01      	cmp	r2, #1
    46ec:	d11b      	bne.n	4726 <prvTimerTask+0x11e>
						{
							xResult = xTimerGenericCommand( pxTimer, tmrCOMMAND_START_DONT_TRACE, xMessage.u.xTimerParameters.xMessageValue + pxTimer->xTimerPeriodInTicks, NULL, tmrNO_DELAY );
    46ee:	69b3      	ldr	r3, [r6, #24]
    46f0:	9f04      	ldr	r7, [sp, #16]
    46f2:	19da      	adds	r2, r3, r7
    46f4:	2300      	movs	r3, #0
    46f6:	9300      	str	r3, [sp, #0]
    46f8:	1c30      	adds	r0, r6, #0
    46fa:	2100      	movs	r1, #0
    46fc:	4e19      	ldr	r6, [pc, #100]	; (4764 <prvTimerTask+0x15c>)
    46fe:	47b0      	blx	r6
							configASSERT( xResult );
    4700:	2800      	cmp	r0, #0
    4702:	d110      	bne.n	4726 <prvTimerTask+0x11e>
    4704:	b672      	cpsid	i
    4706:	e7fe      	b.n	4706 <prvTimerTask+0xfe>
					There is nothing to do here. */
					break;

				case tmrCOMMAND_CHANGE_PERIOD :
				case tmrCOMMAND_CHANGE_PERIOD_FROM_ISR :
					pxTimer->xTimerPeriodInTicks = xMessage.u.xTimerParameters.xMessageValue;
    4708:	9904      	ldr	r1, [sp, #16]
    470a:	61b1      	str	r1, [r6, #24]
					configASSERT( ( pxTimer->xTimerPeriodInTicks > 0 ) );
    470c:	2900      	cmp	r1, #0
    470e:	d101      	bne.n	4714 <prvTimerTask+0x10c>
    4710:	b672      	cpsid	i
    4712:	e7fe      	b.n	4712 <prvTimerTask+0x10a>
					longer or shorter than the old one.  The command time is
					therefore set to the current time, and as the period cannot be
					zero the next expiry time can only be in the future, meaning
					(unlike for the xTimerStart() case above) there is no fail case
					that needs to be handled here. */
					( void ) prvInsertTimerInActiveList( pxTimer, ( xTimeNow + pxTimer->xTimerPeriodInTicks ), xTimeNow, xTimeNow );
    4714:	1859      	adds	r1, r3, r1
    4716:	1c30      	adds	r0, r6, #0
    4718:	1c1a      	adds	r2, r3, #0
    471a:	4e11      	ldr	r6, [pc, #68]	; (4760 <prvTimerTask+0x158>)
    471c:	47b0      	blx	r6
    471e:	e002      	b.n	4726 <prvTimerTask+0x11e>
					break;

				case tmrCOMMAND_DELETE :
					/* The timer has already been removed from the active list,
					just free up the memory. */
					vPortFree( pxTimer );
    4720:	1c30      	adds	r0, r6, #0
    4722:	4b15      	ldr	r3, [pc, #84]	; (4778 <prvTimerTask+0x170>)
    4724:	4798      	blx	r3
DaemonTaskMessage_t xMessage;
Timer_t *pxTimer;
BaseType_t xTimerListsWereSwitched, xResult;
TickType_t xTimeNow;

	while( xQueueReceive( xTimerQueue, &xMessage, tmrNO_DELAY ) != pdFAIL ) /*lint !e603 xMessage does not have to be initialised as it is passed out, not in, and it is not used unless xQueueReceive() returns pdTRUE. */
    4726:	68a8      	ldr	r0, [r5, #8]
    4728:	a903      	add	r1, sp, #12
    472a:	2200      	movs	r2, #0
    472c:	2300      	movs	r3, #0
    472e:	47a0      	blx	r4
    4730:	2800      	cmp	r0, #0
    4732:	d1b7      	bne.n	46a4 <prvTimerTask+0x9c>
    4734:	e76e      	b.n	4614 <prvTimerTask+0xc>
static void prvProcessTimerOrBlockTask( const TickType_t xNextExpireTime, const BaseType_t xListWasEmpty )
{
TickType_t xTimeNow;
BaseType_t xTimerListsWereSwitched;

	vTaskSuspendAll();
    4736:	4806      	ldr	r0, [pc, #24]	; (4750 <prvTimerTask+0x148>)
    4738:	4780      	blx	r0
		/* Obtain the time now to make an assessment as to whether the timer
		has expired or not.  If obtaining the time causes the lists to switch
		then don't process this timer as any timers that remained in the list
		when the lists were switched will have been processed within the
		prvSampleTimeNow() function. */
		xTimeNow = prvSampleTimeNow( &xTimerListsWereSwitched );
    473a:	a803      	add	r0, sp, #12
    473c:	4905      	ldr	r1, [pc, #20]	; (4754 <prvTimerTask+0x14c>)
    473e:	4788      	blx	r1
    4740:	1c05      	adds	r5, r0, #0
		xNextExpireTime = listGET_ITEM_VALUE_OF_HEAD_ENTRY( pxCurrentTimerList );
	}
	else
	{
		/* Ensure the task unblocks when the tick count rolls over. */
		xNextExpireTime = ( TickType_t ) 0U;
    4742:	2400      	movs	r4, #0
		has expired or not.  If obtaining the time causes the lists to switch
		then don't process this timer as any timers that remained in the list
		when the lists were switched will have been processed within the
		prvSampleTimeNow() function. */
		xTimeNow = prvSampleTimeNow( &xTimerListsWereSwitched );
		if( xTimerListsWereSwitched == pdFALSE )
    4744:	9a03      	ldr	r2, [sp, #12]
    4746:	42a2      	cmp	r2, r4
    4748:	d09b      	beq.n	4682 <prvTimerTask+0x7a>
    474a:	e7a6      	b.n	469a <prvTimerTask+0x92>
    474c:	20001620 	.word	0x20001620
    4750:	00003ad1 	.word	0x00003ad1
    4754:	00004555 	.word	0x00004555
    4758:	00003c6d 	.word	0x00003c6d
    475c:	000029e9 	.word	0x000029e9
    4760:	000042e9 	.word	0x000042e9
    4764:	00004461 	.word	0x00004461
    4768:	000035e5 	.word	0x000035e5
    476c:	00002a65 	.word	0x00002a65
    4770:	00003319 	.word	0x00003319
    4774:	00006aa0 	.word	0x00006aa0
    4778:	00002c05 	.word	0x00002c05

0000477c <Dummy_Handler>:

/**
 * \brief Default interrupt handler for unused IRQs.
 */
void Dummy_Handler(void)
{
    477c:	e7fe      	b.n	477c <Dummy_Handler>
    477e:	46c0      	nop			; (mov r8, r8)

00004780 <Reset_Handler>:
/**
 * \brief This is the code that gets called on processor reset.
 * To initialize the device, and call the main() routine.
 */
void Reset_Handler(void)
{
    4780:	b570      	push	{r4, r5, r6, lr}

        /* Initialize the relocate segment */
        pSrc = &_etext;
        pDest = &_srelocate;

        if (pSrc != pDest) {
    4782:	4b2c      	ldr	r3, [pc, #176]	; (4834 <Reset_Handler+0xb4>)
    4784:	4a2c      	ldr	r2, [pc, #176]	; (4838 <Reset_Handler+0xb8>)
    4786:	429a      	cmp	r2, r3
    4788:	d003      	beq.n	4792 <Reset_Handler+0x12>
                for (; pDest < &_erelocate;) {
    478a:	4b2c      	ldr	r3, [pc, #176]	; (483c <Reset_Handler+0xbc>)
    478c:	4a29      	ldr	r2, [pc, #164]	; (4834 <Reset_Handler+0xb4>)
    478e:	429a      	cmp	r2, r3
    4790:	d304      	bcc.n	479c <Reset_Handler+0x1c>
                        *pDest++ = *pSrc++;
                }
        }

        /* Clear the zero segment */
        for (pDest = &_szero; pDest < &_ezero;) {
    4792:	4b2b      	ldr	r3, [pc, #172]	; (4840 <Reset_Handler+0xc0>)
    4794:	4a2b      	ldr	r2, [pc, #172]	; (4844 <Reset_Handler+0xc4>)
    4796:	429a      	cmp	r2, r3
    4798:	d310      	bcc.n	47bc <Reset_Handler+0x3c>
    479a:	e01b      	b.n	47d4 <Reset_Handler+0x54>
    479c:	4b2a      	ldr	r3, [pc, #168]	; (4848 <Reset_Handler+0xc8>)
    479e:	4827      	ldr	r0, [pc, #156]	; (483c <Reset_Handler+0xbc>)
    47a0:	3003      	adds	r0, #3
    47a2:	1ac0      	subs	r0, r0, r3
    47a4:	0880      	lsrs	r0, r0, #2
    47a6:	3001      	adds	r0, #1
    47a8:	0080      	lsls	r0, r0, #2
        /* Initialize the relocate segment */
        pSrc = &_etext;
        pDest = &_srelocate;

        if (pSrc != pDest) {
                for (; pDest < &_erelocate;) {
    47aa:	2300      	movs	r3, #0
                        *pDest++ = *pSrc++;
    47ac:	4921      	ldr	r1, [pc, #132]	; (4834 <Reset_Handler+0xb4>)
    47ae:	4a22      	ldr	r2, [pc, #136]	; (4838 <Reset_Handler+0xb8>)
    47b0:	58d4      	ldr	r4, [r2, r3]
    47b2:	50cc      	str	r4, [r1, r3]
    47b4:	3304      	adds	r3, #4
        /* Initialize the relocate segment */
        pSrc = &_etext;
        pDest = &_srelocate;

        if (pSrc != pDest) {
                for (; pDest < &_erelocate;) {
    47b6:	4283      	cmp	r3, r0
    47b8:	d1fa      	bne.n	47b0 <Reset_Handler+0x30>
    47ba:	e7ea      	b.n	4792 <Reset_Handler+0x12>
    47bc:	4b21      	ldr	r3, [pc, #132]	; (4844 <Reset_Handler+0xc4>)
    47be:	1d1a      	adds	r2, r3, #4
    47c0:	491f      	ldr	r1, [pc, #124]	; (4840 <Reset_Handler+0xc0>)
    47c2:	3103      	adds	r1, #3
    47c4:	1a89      	subs	r1, r1, r2
    47c6:	0889      	lsrs	r1, r1, #2
    47c8:	0089      	lsls	r1, r1, #2
    47ca:	1852      	adds	r2, r2, r1
                }
        }

        /* Clear the zero segment */
        for (pDest = &_szero; pDest < &_ezero;) {
                *pDest++ = 0;
    47cc:	2100      	movs	r1, #0
    47ce:	c302      	stmia	r3!, {r1}
                        *pDest++ = *pSrc++;
                }
        }

        /* Clear the zero segment */
        for (pDest = &_szero; pDest < &_ezero;) {
    47d0:	4293      	cmp	r3, r2
    47d2:	d1fc      	bne.n	47ce <Reset_Handler+0x4e>
                *pDest++ = 0;
        }

        /* Set the vector table base address */
        pSrc = (uint32_t *) & _sfixed;
        SCB->VTOR = ((uint32_t) pSrc & SCB_VTOR_TBLOFF_Msk);
    47d4:	4b1d      	ldr	r3, [pc, #116]	; (484c <Reset_Handler+0xcc>)
    47d6:	21ff      	movs	r1, #255	; 0xff
    47d8:	4a1d      	ldr	r2, [pc, #116]	; (4850 <Reset_Handler+0xd0>)
    47da:	438a      	bics	r2, r1
    47dc:	609a      	str	r2, [r3, #8]

        /* Change default QOS values to have the best performance and correct USB behaviour */
        SBMATRIX->SFR[SBMATRIX_SLAVE_HMCRAMC0].reg = 2;
    47de:	2102      	movs	r1, #2
    47e0:	2390      	movs	r3, #144	; 0x90
    47e2:	005b      	lsls	r3, r3, #1
    47e4:	4a1b      	ldr	r2, [pc, #108]	; (4854 <Reset_Handler+0xd4>)
    47e6:	50d1      	str	r1, [r2, r3]
#if defined(ID_USB)
        USB->DEVICE.QOSCTRL.bit.CQOS = 2;
    47e8:	4b1b      	ldr	r3, [pc, #108]	; (4858 <Reset_Handler+0xd8>)
    47ea:	78d8      	ldrb	r0, [r3, #3]
    47ec:	2103      	movs	r1, #3
    47ee:	4388      	bics	r0, r1
    47f0:	2202      	movs	r2, #2
    47f2:	4310      	orrs	r0, r2
    47f4:	70d8      	strb	r0, [r3, #3]
        USB->DEVICE.QOSCTRL.bit.DQOS = 2;
    47f6:	78dd      	ldrb	r5, [r3, #3]
    47f8:	240c      	movs	r4, #12
    47fa:	43a5      	bics	r5, r4
    47fc:	2008      	movs	r0, #8
    47fe:	4305      	orrs	r5, r0
    4800:	70dd      	strb	r5, [r3, #3]
#endif
        DMAC->QOSCTRL.bit.DQOS = 2;
    4802:	4b16      	ldr	r3, [pc, #88]	; (485c <Reset_Handler+0xdc>)
    4804:	7b9e      	ldrb	r6, [r3, #14]
    4806:	2530      	movs	r5, #48	; 0x30
    4808:	43ae      	bics	r6, r5
    480a:	2520      	movs	r5, #32
    480c:	4335      	orrs	r5, r6
    480e:	739d      	strb	r5, [r3, #14]
        DMAC->QOSCTRL.bit.FQOS = 2;
    4810:	7b9d      	ldrb	r5, [r3, #14]
    4812:	43a5      	bics	r5, r4
    4814:	4328      	orrs	r0, r5
    4816:	7398      	strb	r0, [r3, #14]
        DMAC->QOSCTRL.bit.WRBQOS = 2;
    4818:	7b98      	ldrb	r0, [r3, #14]
    481a:	4388      	bics	r0, r1
    481c:	4302      	orrs	r2, r0
    481e:	739a      	strb	r2, [r3, #14]

        /* Overwriting the default value of the NVMCTRL.CTRLB.MANW bit (errata reference 13134) */
        NVMCTRL->CTRLB.bit.MANW = 1;
    4820:	4b0f      	ldr	r3, [pc, #60]	; (4860 <Reset_Handler+0xe0>)
    4822:	6859      	ldr	r1, [r3, #4]
    4824:	2280      	movs	r2, #128	; 0x80
    4826:	430a      	orrs	r2, r1
    4828:	605a      	str	r2, [r3, #4]

        /* Initialize the C library */
        __libc_init_array();
    482a:	4b0e      	ldr	r3, [pc, #56]	; (4864 <Reset_Handler+0xe4>)
    482c:	4798      	blx	r3

        /* Branch to main function */
        main();
    482e:	4b0e      	ldr	r3, [pc, #56]	; (4868 <Reset_Handler+0xe8>)
    4830:	4798      	blx	r3
    4832:	e7fe      	b.n	4832 <Reset_Handler+0xb2>
    4834:	20000000 	.word	0x20000000
    4838:	00006b8c 	.word	0x00006b8c
    483c:	20000448 	.word	0x20000448
    4840:	20002efc 	.word	0x20002efc
    4844:	20000448 	.word	0x20000448
    4848:	20000004 	.word	0x20000004
    484c:	e000ed00 	.word	0xe000ed00
    4850:	00000000 	.word	0x00000000
    4854:	41007000 	.word	0x41007000
    4858:	41005000 	.word	0x41005000
    485c:	41004800 	.word	0x41004800
    4860:	41004000 	.word	0x41004000
    4864:	0000533d 	.word	0x0000533d
    4868:	000002a5 	.word	0x000002a5

0000486c <system_clock_source_get_hz>:
 *
 * \returns Frequency of the given clock source, in Hz.
 */
uint32_t system_clock_source_get_hz(
		const enum system_clock_source clock_source)
{
    486c:	b508      	push	{r3, lr}
	switch (clock_source) {
    486e:	2808      	cmp	r0, #8
    4870:	d834      	bhi.n	48dc <system_clock_source_get_hz+0x70>
    4872:	0080      	lsls	r0, r0, #2
    4874:	4b1b      	ldr	r3, [pc, #108]	; (48e4 <system_clock_source_get_hz+0x78>)
    4876:	581b      	ldr	r3, [r3, r0]
    4878:	469f      	mov	pc, r3

	case SYSTEM_CLOCK_SOURCE_OSC8M:
		return 8000000UL >> SYSCTRL->OSC8M.bit.PRESC;

	case SYSTEM_CLOCK_SOURCE_OSC32K:
		return 32768UL;
    487a:	2080      	movs	r0, #128	; 0x80
    487c:	0200      	lsls	r0, r0, #8
    487e:	e030      	b.n	48e2 <system_clock_source_get_hz+0x76>
uint32_t system_clock_source_get_hz(
		const enum system_clock_source clock_source)
{
	switch (clock_source) {
	case SYSTEM_CLOCK_SOURCE_XOSC:
		return _system_clock_inst.xosc.frequency;
    4880:	4b19      	ldr	r3, [pc, #100]	; (48e8 <system_clock_source_get_hz+0x7c>)
    4882:	6918      	ldr	r0, [r3, #16]
    4884:	e02d      	b.n	48e2 <system_clock_source_get_hz+0x76>

	case SYSTEM_CLOCK_SOURCE_OSC8M:
		return 8000000UL >> SYSCTRL->OSC8M.bit.PRESC;
    4886:	4b19      	ldr	r3, [pc, #100]	; (48ec <system_clock_source_get_hz+0x80>)
    4888:	6a18      	ldr	r0, [r3, #32]
    488a:	0580      	lsls	r0, r0, #22
    488c:	0f80      	lsrs	r0, r0, #30
    488e:	4b18      	ldr	r3, [pc, #96]	; (48f0 <system_clock_source_get_hz+0x84>)
    4890:	40c3      	lsrs	r3, r0
    4892:	1c18      	adds	r0, r3, #0
    4894:	e025      	b.n	48e2 <system_clock_source_get_hz+0x76>

	case SYSTEM_CLOCK_SOURCE_ULP32K:
		return 32768UL;

	case SYSTEM_CLOCK_SOURCE_XOSC32K:
		return _system_clock_inst.xosc32k.frequency;
    4896:	4b14      	ldr	r3, [pc, #80]	; (48e8 <system_clock_source_get_hz+0x7c>)
    4898:	6958      	ldr	r0, [r3, #20]
    489a:	e022      	b.n	48e2 <system_clock_source_get_hz+0x76>

	case SYSTEM_CLOCK_SOURCE_DFLL:

		/* Check if the DFLL has been configured */
		if (!(_system_clock_inst.dfll.control & SYSCTRL_DFLLCTRL_ENABLE))
    489c:	4b12      	ldr	r3, [pc, #72]	; (48e8 <system_clock_source_get_hz+0x7c>)
    489e:	681b      	ldr	r3, [r3, #0]
    48a0:	2002      	movs	r0, #2
    48a2:	4018      	ands	r0, r3
    48a4:	d01d      	beq.n	48e2 <system_clock_source_get_hz+0x76>
 * \internal
 * \brief Wait for sync to the DFLL control registers.
 */
static inline void _system_dfll_wait_for_sync(void)
{
	while (!(SYSCTRL->PCLKSR.reg & SYSCTRL_PCLKSR_DFLLRDY)) {
    48a6:	4911      	ldr	r1, [pc, #68]	; (48ec <system_clock_source_get_hz+0x80>)
    48a8:	2210      	movs	r2, #16
    48aa:	68cb      	ldr	r3, [r1, #12]
    48ac:	421a      	tst	r2, r3
    48ae:	d0fc      	beq.n	48aa <system_clock_source_get_hz+0x3e>

		/* Make sure that the DFLL module is ready */
		_system_dfll_wait_for_sync();

		/* Check if operating in closed loop mode */
		if (_system_clock_inst.dfll.control & SYSCTRL_DFLLCTRL_MODE) {
    48b0:	4b0d      	ldr	r3, [pc, #52]	; (48e8 <system_clock_source_get_hz+0x7c>)
    48b2:	681b      	ldr	r3, [r3, #0]
    48b4:	075a      	lsls	r2, r3, #29
    48b6:	d513      	bpl.n	48e0 <system_clock_source_get_hz+0x74>
			return system_gclk_chan_get_hz(SYSCTRL_GCLK_ID_DFLL48) *
    48b8:	2000      	movs	r0, #0
    48ba:	4b0e      	ldr	r3, [pc, #56]	; (48f4 <system_clock_source_get_hz+0x88>)
    48bc:	4798      	blx	r3
					(_system_clock_inst.dfll.mul & 0xffff);
    48be:	4b0a      	ldr	r3, [pc, #40]	; (48e8 <system_clock_source_get_hz+0x7c>)
    48c0:	689b      	ldr	r3, [r3, #8]
    48c2:	041b      	lsls	r3, r3, #16
    48c4:	0c1b      	lsrs	r3, r3, #16
		/* Make sure that the DFLL module is ready */
		_system_dfll_wait_for_sync();

		/* Check if operating in closed loop mode */
		if (_system_clock_inst.dfll.control & SYSCTRL_DFLLCTRL_MODE) {
			return system_gclk_chan_get_hz(SYSCTRL_GCLK_ID_DFLL48) *
    48c6:	4358      	muls	r0, r3
    48c8:	e00b      	b.n	48e2 <system_clock_source_get_hz+0x76>

		return 48000000UL;

#ifdef FEATURE_SYSTEM_CLOCK_DPLL
	case SYSTEM_CLOCK_SOURCE_DPLL:
		if (!(SYSCTRL->DPLLSTATUS.reg & SYSCTRL_DPLLSTATUS_ENABLE)) {
    48ca:	2350      	movs	r3, #80	; 0x50
    48cc:	4a07      	ldr	r2, [pc, #28]	; (48ec <system_clock_source_get_hz+0x80>)
    48ce:	5cd3      	ldrb	r3, [r2, r3]
			return 0;
    48d0:	2000      	movs	r0, #0

		return 48000000UL;

#ifdef FEATURE_SYSTEM_CLOCK_DPLL
	case SYSTEM_CLOCK_SOURCE_DPLL:
		if (!(SYSCTRL->DPLLSTATUS.reg & SYSCTRL_DPLLSTATUS_ENABLE)) {
    48d2:	075a      	lsls	r2, r3, #29
    48d4:	d505      	bpl.n	48e2 <system_clock_source_get_hz+0x76>
			return 0;
		}

		return _system_clock_inst.dpll.frequency;
    48d6:	4b04      	ldr	r3, [pc, #16]	; (48e8 <system_clock_source_get_hz+0x7c>)
    48d8:	68d8      	ldr	r0, [r3, #12]
    48da:	e002      	b.n	48e2 <system_clock_source_get_hz+0x76>
#endif

	default:
		return 0;
    48dc:	2000      	movs	r0, #0
    48de:	e000      	b.n	48e2 <system_clock_source_get_hz+0x76>
		if (_system_clock_inst.dfll.control & SYSCTRL_DFLLCTRL_MODE) {
			return system_gclk_chan_get_hz(SYSCTRL_GCLK_ID_DFLL48) *
					(_system_clock_inst.dfll.mul & 0xffff);
		}

		return 48000000UL;
    48e0:	4805      	ldr	r0, [pc, #20]	; (48f8 <system_clock_source_get_hz+0x8c>)
#endif

	default:
		return 0;
	}
}
    48e2:	bd08      	pop	{r3, pc}
    48e4:	00006ad0 	.word	0x00006ad0
    48e8:	2000165c 	.word	0x2000165c
    48ec:	40000800 	.word	0x40000800
    48f0:	007a1200 	.word	0x007a1200
    48f4:	00004f99 	.word	0x00004f99
    48f8:	02dc6c00 	.word	0x02dc6c00

000048fc <system_clock_source_osc8m_set_config>:
 *
 * \param[in] config  OSC8M configuration structure containing the new config
 */
void system_clock_source_osc8m_set_config(
		struct system_clock_source_osc8m_config *const config)
{
    48fc:	b570      	push	{r4, r5, r6, lr}
	SYSCTRL_OSC8M_Type temp = SYSCTRL->OSC8M;
    48fe:	4b0c      	ldr	r3, [pc, #48]	; (4930 <system_clock_source_osc8m_set_config+0x34>)
    4900:	6a1c      	ldr	r4, [r3, #32]

	/* Use temporary struct to reduce register access */
	temp.bit.PRESC    = config->prescaler;
    4902:	7801      	ldrb	r1, [r0, #0]
	temp.bit.ONDEMAND = config->on_demand;
    4904:	7885      	ldrb	r5, [r0, #2]
	temp.bit.RUNSTDBY = config->run_in_standby;

	SYSCTRL->OSC8M = temp;
    4906:	7840      	ldrb	r0, [r0, #1]
    4908:	2201      	movs	r2, #1
    490a:	4010      	ands	r0, r2
    490c:	0180      	lsls	r0, r0, #6
    490e:	2640      	movs	r6, #64	; 0x40
    4910:	43b4      	bics	r4, r6
    4912:	4304      	orrs	r4, r0
    4914:	402a      	ands	r2, r5
    4916:	01d0      	lsls	r0, r2, #7
    4918:	2280      	movs	r2, #128	; 0x80
    491a:	4394      	bics	r4, r2
    491c:	1c22      	adds	r2, r4, #0
    491e:	4302      	orrs	r2, r0
    4920:	2003      	movs	r0, #3
    4922:	4001      	ands	r1, r0
    4924:	0209      	lsls	r1, r1, #8
    4926:	4803      	ldr	r0, [pc, #12]	; (4934 <system_clock_source_osc8m_set_config+0x38>)
    4928:	4002      	ands	r2, r0
    492a:	430a      	orrs	r2, r1
    492c:	621a      	str	r2, [r3, #32]
}
    492e:	bd70      	pop	{r4, r5, r6, pc}
    4930:	40000800 	.word	0x40000800
    4934:	fffffcff 	.word	0xfffffcff

00004938 <system_clock_source_xosc32k_set_config>:
 *
 * \param[in] config  XOSC32K configuration structure containing the new config
 */
void system_clock_source_xosc32k_set_config(
		struct system_clock_source_xosc32k_config *const config)
{
    4938:	b5f0      	push	{r4, r5, r6, r7, lr}
    493a:	465f      	mov	r7, fp
    493c:	4656      	mov	r6, sl
    493e:	464d      	mov	r5, r9
    4940:	4644      	mov	r4, r8
    4942:	b4f0      	push	{r4, r5, r6, r7}
	SYSCTRL_XOSC32K_Type temp = SYSCTRL->XOSC32K;
    4944:	4a25      	ldr	r2, [pc, #148]	; (49dc <system_clock_source_xosc32k_set_config+0xa4>)
    4946:	8a94      	ldrh	r4, [r2, #20]

	temp.bit.STARTUP = config->startup_time;
    4948:	7845      	ldrb	r5, [r0, #1]

	if (config->external_clock == SYSTEM_CLOCK_EXTERNAL_CRYSTAL) {
    494a:	7803      	ldrb	r3, [r0, #0]
    494c:	4259      	negs	r1, r3
    494e:	4159      	adcs	r1, r3
    4950:	468a      	mov	sl, r1
		temp.bit.XTALEN = 1;
	} else {
		temp.bit.XTALEN = 0;
	}

	temp.bit.AAMPEN = config->auto_gain_control;
    4952:	7883      	ldrb	r3, [r0, #2]
    4954:	469c      	mov	ip, r3
	temp.bit.EN1K = config->enable_1khz_output;
    4956:	78c1      	ldrb	r1, [r0, #3]
    4958:	4688      	mov	r8, r1
	temp.bit.EN32K = config->enable_32khz_output;
    495a:	7903      	ldrb	r3, [r0, #4]
    495c:	4699      	mov	r9, r3

	temp.bit.ONDEMAND = config->on_demand;
    495e:	7b46      	ldrb	r6, [r0, #13]
	temp.bit.RUNSTDBY = config->run_in_standby;
    4960:	7b07      	ldrb	r7, [r0, #12]
	temp.bit.WRTLOCK  = config->write_once;
    4962:	7b81      	ldrb	r1, [r0, #14]
    4964:	468b      	mov	fp, r1

	/* Cache the new frequency in case the user needs to check the current
	 * operating frequency later */
	_system_clock_inst.xosc32k.frequency = config->frequency;
    4966:	6880      	ldr	r0, [r0, #8]
    4968:	4b1d      	ldr	r3, [pc, #116]	; (49e0 <system_clock_source_xosc32k_set_config+0xa8>)
    496a:	6158      	str	r0, [r3, #20]

	SYSCTRL->XOSC32K = temp;
    496c:	2301      	movs	r3, #1
    496e:	4651      	mov	r1, sl
    4970:	0088      	lsls	r0, r1, #2
    4972:	2104      	movs	r1, #4
    4974:	438c      	bics	r4, r1
    4976:	4304      	orrs	r4, r0
    4978:	4648      	mov	r0, r9
    497a:	4018      	ands	r0, r3
    497c:	00c0      	lsls	r0, r0, #3
    497e:	2108      	movs	r1, #8
    4980:	438c      	bics	r4, r1
    4982:	4304      	orrs	r4, r0
    4984:	4640      	mov	r0, r8
    4986:	4018      	ands	r0, r3
    4988:	0100      	lsls	r0, r0, #4
    498a:	2110      	movs	r1, #16
    498c:	438c      	bics	r4, r1
    498e:	4304      	orrs	r4, r0
    4990:	4660      	mov	r0, ip
    4992:	4018      	ands	r0, r3
    4994:	0140      	lsls	r0, r0, #5
    4996:	2120      	movs	r1, #32
    4998:	438c      	bics	r4, r1
    499a:	4304      	orrs	r4, r0
    499c:	1c18      	adds	r0, r3, #0
    499e:	4038      	ands	r0, r7
    49a0:	0180      	lsls	r0, r0, #6
    49a2:	2740      	movs	r7, #64	; 0x40
    49a4:	43bc      	bics	r4, r7
    49a6:	4304      	orrs	r4, r0
    49a8:	1c18      	adds	r0, r3, #0
    49aa:	4030      	ands	r0, r6
    49ac:	01c0      	lsls	r0, r0, #7
    49ae:	2680      	movs	r6, #128	; 0x80
    49b0:	43b4      	bics	r4, r6
    49b2:	4304      	orrs	r4, r0
    49b4:	2007      	movs	r0, #7
    49b6:	4028      	ands	r0, r5
    49b8:	0200      	lsls	r0, r0, #8
    49ba:	4d0a      	ldr	r5, [pc, #40]	; (49e4 <system_clock_source_xosc32k_set_config+0xac>)
    49bc:	402c      	ands	r4, r5
    49be:	4304      	orrs	r4, r0
    49c0:	4659      	mov	r1, fp
    49c2:	400b      	ands	r3, r1
    49c4:	0319      	lsls	r1, r3, #12
    49c6:	4808      	ldr	r0, [pc, #32]	; (49e8 <system_clock_source_xosc32k_set_config+0xb0>)
    49c8:	1c23      	adds	r3, r4, #0
    49ca:	4003      	ands	r3, r0
    49cc:	430b      	orrs	r3, r1
    49ce:	8293      	strh	r3, [r2, #20]
}
    49d0:	bc3c      	pop	{r2, r3, r4, r5}
    49d2:	4690      	mov	r8, r2
    49d4:	4699      	mov	r9, r3
    49d6:	46a2      	mov	sl, r4
    49d8:	46ab      	mov	fp, r5
    49da:	bdf0      	pop	{r4, r5, r6, r7, pc}
    49dc:	40000800 	.word	0x40000800
    49e0:	2000165c 	.word	0x2000165c
    49e4:	fffff8ff 	.word	0xfffff8ff
    49e8:	ffffefff 	.word	0xffffefff

000049ec <system_clock_source_dpll_set_config>:
 *
 * \param[in] config  DPLL configuration structure containing the new config
 */
void system_clock_source_dpll_set_config(
		struct system_clock_source_dpll_config *const config)
{
    49ec:	b5f8      	push	{r3, r4, r5, r6, r7, lr}
    49ee:	1c04      	adds	r4, r0, #0

	uint32_t tmpldr;
	uint8_t  tmpldrfrac;
	uint32_t refclk;

	refclk = config->reference_frequency;
    49f0:	68c5      	ldr	r5, [r0, #12]

	/* Only reference clock REF1 can be divided */
	if (config->reference_clock == SYSTEM_CLOCK_SOURCE_DPLL_REFERENCE_CLOCK_XOSC) {
    49f2:	7d03      	ldrb	r3, [r0, #20]
    49f4:	2b01      	cmp	r3, #1
    49f6:	d106      	bne.n	4a06 <system_clock_source_dpll_set_config+0x1a>
		refclk = refclk / (2 * (config->reference_divider + 1));
    49f8:	8a01      	ldrh	r1, [r0, #16]
    49fa:	3101      	adds	r1, #1
    49fc:	0049      	lsls	r1, r1, #1
    49fe:	1c28      	adds	r0, r5, #0
    4a00:	4b1e      	ldr	r3, [pc, #120]	; (4a7c <system_clock_source_dpll_set_config+0x90>)
    4a02:	4798      	blx	r3
    4a04:	1c05      	adds	r5, r0, #0
	}

	/* Calculate LDRFRAC and LDR */
	tmpldr = (config->output_frequency << 4) / refclk;
    4a06:	68a3      	ldr	r3, [r4, #8]
    4a08:	0118      	lsls	r0, r3, #4
    4a0a:	1c29      	adds	r1, r5, #0
    4a0c:	4b1b      	ldr	r3, [pc, #108]	; (4a7c <system_clock_source_dpll_set_config+0x90>)
    4a0e:	4798      	blx	r3
	tmpldrfrac = tmpldr & 0x0f;
    4a10:	220f      	movs	r2, #15
    4a12:	4002      	ands	r2, r0
	tmpldr = (tmpldr >> 4) - 1;
    4a14:	0900      	lsrs	r0, r0, #4

	SYSCTRL->DPLLCTRLA.reg =
    4a16:	7866      	ldrb	r6, [r4, #1]
    4a18:	01b6      	lsls	r6, r6, #6
    4a1a:	7823      	ldrb	r3, [r4, #0]
    4a1c:	01db      	lsls	r3, r3, #7
    4a1e:	431e      	orrs	r6, r3
    4a20:	b2f6      	uxtb	r6, r6
    4a22:	4b17      	ldr	r3, [pc, #92]	; (4a80 <system_clock_source_dpll_set_config+0x94>)
    4a24:	2144      	movs	r1, #68	; 0x44
    4a26:	545e      	strb	r6, [r3, r1]
			((uint32_t)config->on_demand << SYSCTRL_DPLLCTRLA_ONDEMAND_Pos) |
			((uint32_t)config->run_in_standby << SYSCTRL_DPLLCTRLA_RUNSTDBY_Pos);

	SYSCTRL->DPLLRATIO.reg =
			SYSCTRL_DPLLRATIO_LDRFRAC(tmpldrfrac) |
    4a28:	0416      	lsls	r6, r2, #16
	}

	/* Calculate LDRFRAC and LDR */
	tmpldr = (config->output_frequency << 4) / refclk;
	tmpldrfrac = tmpldr & 0x0f;
	tmpldr = (tmpldr >> 4) - 1;
    4a2a:	1e41      	subs	r1, r0, #1
			((uint32_t)config->on_demand << SYSCTRL_DPLLCTRLA_ONDEMAND_Pos) |
			((uint32_t)config->run_in_standby << SYSCTRL_DPLLCTRLA_RUNSTDBY_Pos);

	SYSCTRL->DPLLRATIO.reg =
			SYSCTRL_DPLLRATIO_LDRFRAC(tmpldrfrac) |
			SYSCTRL_DPLLRATIO_LDR(tmpldr);
    4a2c:	0509      	lsls	r1, r1, #20
    4a2e:	0d09      	lsrs	r1, r1, #20
	SYSCTRL->DPLLCTRLA.reg =
			((uint32_t)config->on_demand << SYSCTRL_DPLLCTRLA_ONDEMAND_Pos) |
			((uint32_t)config->run_in_standby << SYSCTRL_DPLLCTRLA_RUNSTDBY_Pos);

	SYSCTRL->DPLLRATIO.reg =
			SYSCTRL_DPLLRATIO_LDRFRAC(tmpldrfrac) |
    4a30:	4331      	orrs	r1, r6

	SYSCTRL->DPLLCTRLA.reg =
			((uint32_t)config->on_demand << SYSCTRL_DPLLCTRLA_ONDEMAND_Pos) |
			((uint32_t)config->run_in_standby << SYSCTRL_DPLLCTRLA_RUNSTDBY_Pos);

	SYSCTRL->DPLLRATIO.reg =
    4a32:	6499      	str	r1, [r3, #72]	; 0x48
	SYSCTRL->DPLLCTRLB.reg =
			SYSCTRL_DPLLCTRLB_DIV(config->reference_divider) |
			((uint32_t)config->lock_bypass << SYSCTRL_DPLLCTRLB_LBYPASS_Pos) |
			SYSCTRL_DPLLCTRLB_LTIME(config->lock_time) |
			SYSCTRL_DPLLCTRLB_REFCLK(config->reference_clock) |
			((uint32_t)config->wake_up_fast << SYSCTRL_DPLLCTRLB_WUF_Pos) |
    4a34:	78e6      	ldrb	r6, [r4, #3]
    4a36:	00f6      	lsls	r6, r6, #3
			SYSCTRL_DPLLRATIO_LDRFRAC(tmpldrfrac) |
			SYSCTRL_DPLLRATIO_LDR(tmpldr);

	SYSCTRL->DPLLCTRLB.reg =
			SYSCTRL_DPLLCTRLB_DIV(config->reference_divider) |
			((uint32_t)config->lock_bypass << SYSCTRL_DPLLCTRLB_LBYPASS_Pos) |
    4a38:	78a1      	ldrb	r1, [r4, #2]
    4a3a:	0309      	lsls	r1, r1, #12
	SYSCTRL->DPLLRATIO.reg =
			SYSCTRL_DPLLRATIO_LDRFRAC(tmpldrfrac) |
			SYSCTRL_DPLLRATIO_LDR(tmpldr);

	SYSCTRL->DPLLCTRLB.reg =
			SYSCTRL_DPLLCTRLB_DIV(config->reference_divider) |
    4a3c:	4331      	orrs	r1, r6
			((uint32_t)config->lock_bypass << SYSCTRL_DPLLCTRLB_LBYPASS_Pos) |
			SYSCTRL_DPLLCTRLB_LTIME(config->lock_time) |
			SYSCTRL_DPLLCTRLB_REFCLK(config->reference_clock) |
			((uint32_t)config->wake_up_fast << SYSCTRL_DPLLCTRLB_WUF_Pos) |
			((uint32_t)config->low_power_enable << SYSCTRL_DPLLCTRLB_LPEN_Pos) |
    4a3e:	7926      	ldrb	r6, [r4, #4]
    4a40:	00b6      	lsls	r6, r6, #2
			SYSCTRL_DPLLRATIO_LDRFRAC(tmpldrfrac) |
			SYSCTRL_DPLLRATIO_LDR(tmpldr);

	SYSCTRL->DPLLCTRLB.reg =
			SYSCTRL_DPLLCTRLB_DIV(config->reference_divider) |
			((uint32_t)config->lock_bypass << SYSCTRL_DPLLCTRLB_LBYPASS_Pos) |
    4a42:	4331      	orrs	r1, r6
			SYSCTRL_DPLLCTRLB_LTIME(config->lock_time) |
			SYSCTRL_DPLLCTRLB_REFCLK(config->reference_clock) |
			((uint32_t)config->wake_up_fast << SYSCTRL_DPLLCTRLB_WUF_Pos) |
			((uint32_t)config->low_power_enable << SYSCTRL_DPLLCTRLB_LPEN_Pos) |
			SYSCTRL_DPLLCTRLB_FILTER(config->filter);
    4a44:	7ca6      	ldrb	r6, [r4, #18]
    4a46:	2703      	movs	r7, #3
    4a48:	403e      	ands	r6, r7
			SYSCTRL_DPLLRATIO_LDR(tmpldr);

	SYSCTRL->DPLLCTRLB.reg =
			SYSCTRL_DPLLCTRLB_DIV(config->reference_divider) |
			((uint32_t)config->lock_bypass << SYSCTRL_DPLLCTRLB_LBYPASS_Pos) |
			SYSCTRL_DPLLCTRLB_LTIME(config->lock_time) |
    4a4a:	4331      	orrs	r1, r6
	SYSCTRL->DPLLRATIO.reg =
			SYSCTRL_DPLLRATIO_LDRFRAC(tmpldrfrac) |
			SYSCTRL_DPLLRATIO_LDR(tmpldr);

	SYSCTRL->DPLLCTRLB.reg =
			SYSCTRL_DPLLCTRLB_DIV(config->reference_divider) |
    4a4c:	8a26      	ldrh	r6, [r4, #16]
    4a4e:	0436      	lsls	r6, r6, #16
    4a50:	4f0c      	ldr	r7, [pc, #48]	; (4a84 <system_clock_source_dpll_set_config+0x98>)
    4a52:	403e      	ands	r6, r7
			((uint32_t)config->lock_bypass << SYSCTRL_DPLLCTRLB_LBYPASS_Pos) |
			SYSCTRL_DPLLCTRLB_LTIME(config->lock_time) |
			SYSCTRL_DPLLCTRLB_REFCLK(config->reference_clock) |
    4a54:	4331      	orrs	r1, r6
			SYSCTRL_DPLLRATIO_LDR(tmpldr);

	SYSCTRL->DPLLCTRLB.reg =
			SYSCTRL_DPLLCTRLB_DIV(config->reference_divider) |
			((uint32_t)config->lock_bypass << SYSCTRL_DPLLCTRLB_LBYPASS_Pos) |
			SYSCTRL_DPLLCTRLB_LTIME(config->lock_time) |
    4a56:	7ce7      	ldrb	r7, [r4, #19]
    4a58:	023f      	lsls	r7, r7, #8
    4a5a:	26e0      	movs	r6, #224	; 0xe0
    4a5c:	00f6      	lsls	r6, r6, #3
    4a5e:	403e      	ands	r6, r7
			SYSCTRL_DPLLCTRLB_REFCLK(config->reference_clock) |
			((uint32_t)config->wake_up_fast << SYSCTRL_DPLLCTRLB_WUF_Pos) |
    4a60:	4331      	orrs	r1, r6

	SYSCTRL->DPLLCTRLB.reg =
			SYSCTRL_DPLLCTRLB_DIV(config->reference_divider) |
			((uint32_t)config->lock_bypass << SYSCTRL_DPLLCTRLB_LBYPASS_Pos) |
			SYSCTRL_DPLLCTRLB_LTIME(config->lock_time) |
			SYSCTRL_DPLLCTRLB_REFCLK(config->reference_clock) |
    4a62:	7d24      	ldrb	r4, [r4, #20]
    4a64:	0124      	lsls	r4, r4, #4
    4a66:	2630      	movs	r6, #48	; 0x30
    4a68:	4034      	ands	r4, r6
			((uint32_t)config->wake_up_fast << SYSCTRL_DPLLCTRLB_WUF_Pos) |
			((uint32_t)config->low_power_enable << SYSCTRL_DPLLCTRLB_LPEN_Pos) |
    4a6a:	4321      	orrs	r1, r4

	SYSCTRL->DPLLRATIO.reg =
			SYSCTRL_DPLLRATIO_LDRFRAC(tmpldrfrac) |
			SYSCTRL_DPLLRATIO_LDR(tmpldr);

	SYSCTRL->DPLLCTRLB.reg =
    4a6c:	64d9      	str	r1, [r3, #76]	; 0x4c

	/*
	 * Fck = Fckrx * (LDR + 1 + LDRFRAC / 16)
	 */
	_system_clock_inst.dpll.frequency =
			(refclk * (((tmpldr + 1) << 4) + tmpldrfrac)) >> 4;
    4a6e:	0100      	lsls	r0, r0, #4
    4a70:	1812      	adds	r2, r2, r0
    4a72:	4355      	muls	r5, r2
    4a74:	092d      	lsrs	r5, r5, #4
			SYSCTRL_DPLLCTRLB_FILTER(config->filter);

	/*
	 * Fck = Fckrx * (LDR + 1 + LDRFRAC / 16)
	 */
	_system_clock_inst.dpll.frequency =
    4a76:	4b04      	ldr	r3, [pc, #16]	; (4a88 <system_clock_source_dpll_set_config+0x9c>)
    4a78:	60dd      	str	r5, [r3, #12]
			(refclk * (((tmpldr + 1) << 4) + tmpldrfrac)) >> 4;
}
    4a7a:	bdf8      	pop	{r3, r4, r5, r6, r7, pc}
    4a7c:	00005141 	.word	0x00005141
    4a80:	40000800 	.word	0x40000800
    4a84:	07ff0000 	.word	0x07ff0000
    4a88:	2000165c 	.word	0x2000165c

00004a8c <system_clock_source_enable>:
 *                                 device
 */
enum status_code system_clock_source_enable(
		const enum system_clock_source clock_source)
{
	switch (clock_source) {
    4a8c:	2808      	cmp	r0, #8
    4a8e:	d849      	bhi.n	4b24 <system_clock_source_enable+0x98>
    4a90:	0080      	lsls	r0, r0, #2
    4a92:	4b25      	ldr	r3, [pc, #148]	; (4b28 <system_clock_source_enable+0x9c>)
    4a94:	581b      	ldr	r3, [r3, r0]
    4a96:	469f      	mov	pc, r3
		break;
#endif

	case SYSTEM_CLOCK_SOURCE_ULP32K:
		/* Always enabled */
		return STATUS_OK;
    4a98:	2000      	movs	r0, #0
    4a9a:	e044      	b.n	4b26 <system_clock_source_enable+0x9a>
enum status_code system_clock_source_enable(
		const enum system_clock_source clock_source)
{
	switch (clock_source) {
	case SYSTEM_CLOCK_SOURCE_OSC8M:
		SYSCTRL->OSC8M.reg |= SYSCTRL_OSC8M_ENABLE;
    4a9c:	4b23      	ldr	r3, [pc, #140]	; (4b2c <system_clock_source_enable+0xa0>)
    4a9e:	6a19      	ldr	r1, [r3, #32]
    4aa0:	2202      	movs	r2, #2
    4aa2:	430a      	orrs	r2, r1
    4aa4:	621a      	str	r2, [r3, #32]
		return STATUS_OK;
    4aa6:	2000      	movs	r0, #0
    4aa8:	e03d      	b.n	4b26 <system_clock_source_enable+0x9a>

	case SYSTEM_CLOCK_SOURCE_OSC32K:
		SYSCTRL->OSC32K.reg |= SYSCTRL_OSC32K_ENABLE;
    4aaa:	4b20      	ldr	r3, [pc, #128]	; (4b2c <system_clock_source_enable+0xa0>)
    4aac:	6999      	ldr	r1, [r3, #24]
    4aae:	2202      	movs	r2, #2
    4ab0:	430a      	orrs	r2, r1
    4ab2:	619a      	str	r2, [r3, #24]
	default:
		Assert(false);
		return STATUS_ERR_INVALID_ARG;
	}

	return STATUS_OK;
    4ab4:	2000      	movs	r0, #0
		SYSCTRL->OSC8M.reg |= SYSCTRL_OSC8M_ENABLE;
		return STATUS_OK;

	case SYSTEM_CLOCK_SOURCE_OSC32K:
		SYSCTRL->OSC32K.reg |= SYSCTRL_OSC32K_ENABLE;
		break;
    4ab6:	e036      	b.n	4b26 <system_clock_source_enable+0x9a>

	case SYSTEM_CLOCK_SOURCE_XOSC:
		SYSCTRL->XOSC.reg |= SYSCTRL_XOSC_ENABLE;
    4ab8:	4b1c      	ldr	r3, [pc, #112]	; (4b2c <system_clock_source_enable+0xa0>)
    4aba:	8a19      	ldrh	r1, [r3, #16]
    4abc:	2202      	movs	r2, #2
    4abe:	430a      	orrs	r2, r1
    4ac0:	821a      	strh	r2, [r3, #16]
	default:
		Assert(false);
		return STATUS_ERR_INVALID_ARG;
	}

	return STATUS_OK;
    4ac2:	2000      	movs	r0, #0
		SYSCTRL->OSC32K.reg |= SYSCTRL_OSC32K_ENABLE;
		break;

	case SYSTEM_CLOCK_SOURCE_XOSC:
		SYSCTRL->XOSC.reg |= SYSCTRL_XOSC_ENABLE;
		break;
    4ac4:	e02f      	b.n	4b26 <system_clock_source_enable+0x9a>

	case SYSTEM_CLOCK_SOURCE_XOSC32K:
		SYSCTRL->XOSC32K.reg |= SYSCTRL_XOSC32K_ENABLE;
    4ac6:	4b19      	ldr	r3, [pc, #100]	; (4b2c <system_clock_source_enable+0xa0>)
    4ac8:	8a99      	ldrh	r1, [r3, #20]
    4aca:	2202      	movs	r2, #2
    4acc:	430a      	orrs	r2, r1
    4ace:	829a      	strh	r2, [r3, #20]
	default:
		Assert(false);
		return STATUS_ERR_INVALID_ARG;
	}

	return STATUS_OK;
    4ad0:	2000      	movs	r0, #0
		SYSCTRL->XOSC.reg |= SYSCTRL_XOSC_ENABLE;
		break;

	case SYSTEM_CLOCK_SOURCE_XOSC32K:
		SYSCTRL->XOSC32K.reg |= SYSCTRL_XOSC32K_ENABLE;
		break;
    4ad2:	e028      	b.n	4b26 <system_clock_source_enable+0x9a>

	case SYSTEM_CLOCK_SOURCE_DFLL:
		_system_clock_inst.dfll.control |= SYSCTRL_DFLLCTRL_ENABLE;
    4ad4:	4a16      	ldr	r2, [pc, #88]	; (4b30 <system_clock_source_enable+0xa4>)
    4ad6:	6811      	ldr	r1, [r2, #0]
    4ad8:	2302      	movs	r3, #2
    4ada:	4319      	orrs	r1, r3
    4adc:	6011      	str	r1, [r2, #0]

static inline void _system_clock_source_dfll_set_config_errata_9905(void)
{

	/* Disable ONDEMAND mode while writing configurations */
	SYSCTRL->DFLLCTRL.reg = SYSCTRL_DFLLCTRL_ENABLE;
    4ade:	4a13      	ldr	r2, [pc, #76]	; (4b2c <system_clock_source_enable+0xa0>)
    4ae0:	8493      	strh	r3, [r2, #36]	; 0x24
 * \internal
 * \brief Wait for sync to the DFLL control registers.
 */
static inline void _system_dfll_wait_for_sync(void)
{
	while (!(SYSCTRL->PCLKSR.reg & SYSCTRL_PCLKSR_DFLLRDY)) {
    4ae2:	1c11      	adds	r1, r2, #0
    4ae4:	2210      	movs	r2, #16
    4ae6:	68cb      	ldr	r3, [r1, #12]
    4ae8:	421a      	tst	r2, r3
    4aea:	d0fc      	beq.n	4ae6 <system_clock_source_enable+0x5a>

	/* Disable ONDEMAND mode while writing configurations */
	SYSCTRL->DFLLCTRL.reg = SYSCTRL_DFLLCTRL_ENABLE;
	_system_dfll_wait_for_sync();

	SYSCTRL->DFLLMUL.reg = _system_clock_inst.dfll.mul;
    4aec:	4a10      	ldr	r2, [pc, #64]	; (4b30 <system_clock_source_enable+0xa4>)
    4aee:	6891      	ldr	r1, [r2, #8]
    4af0:	4b0e      	ldr	r3, [pc, #56]	; (4b2c <system_clock_source_enable+0xa0>)
    4af2:	62d9      	str	r1, [r3, #44]	; 0x2c
	SYSCTRL->DFLLVAL.reg = _system_clock_inst.dfll.val;
    4af4:	6852      	ldr	r2, [r2, #4]
    4af6:	629a      	str	r2, [r3, #40]	; 0x28

	/* Write full configuration to DFLL control register */
	SYSCTRL->DFLLCTRL.reg = 0;
    4af8:	2200      	movs	r2, #0
    4afa:	849a      	strh	r2, [r3, #36]	; 0x24
 * \internal
 * \brief Wait for sync to the DFLL control registers.
 */
static inline void _system_dfll_wait_for_sync(void)
{
	while (!(SYSCTRL->PCLKSR.reg & SYSCTRL_PCLKSR_DFLLRDY)) {
    4afc:	1c19      	adds	r1, r3, #0
    4afe:	2210      	movs	r2, #16
    4b00:	68cb      	ldr	r3, [r1, #12]
    4b02:	421a      	tst	r2, r3
    4b04:	d0fc      	beq.n	4b00 <system_clock_source_enable+0x74>
	SYSCTRL->DFLLVAL.reg = _system_clock_inst.dfll.val;

	/* Write full configuration to DFLL control register */
	SYSCTRL->DFLLCTRL.reg = 0;
	_system_dfll_wait_for_sync();
	SYSCTRL->DFLLCTRL.reg = _system_clock_inst.dfll.control;
    4b06:	4b0a      	ldr	r3, [pc, #40]	; (4b30 <system_clock_source_enable+0xa4>)
    4b08:	681a      	ldr	r2, [r3, #0]
    4b0a:	b292      	uxth	r2, r2
    4b0c:	4b07      	ldr	r3, [pc, #28]	; (4b2c <system_clock_source_enable+0xa0>)
    4b0e:	849a      	strh	r2, [r3, #36]	; 0x24
	default:
		Assert(false);
		return STATUS_ERR_INVALID_ARG;
	}

	return STATUS_OK;
    4b10:	2000      	movs	r0, #0
    4b12:	e008      	b.n	4b26 <system_clock_source_enable+0x9a>
		_system_clock_source_dfll_set_config_errata_9905();
		break;

#ifdef FEATURE_SYSTEM_CLOCK_DPLL
	case SYSTEM_CLOCK_SOURCE_DPLL:
		SYSCTRL->DPLLCTRLA.reg |= SYSCTRL_DPLLCTRLA_ENABLE;
    4b14:	4a05      	ldr	r2, [pc, #20]	; (4b2c <system_clock_source_enable+0xa0>)
    4b16:	2344      	movs	r3, #68	; 0x44
    4b18:	5cd0      	ldrb	r0, [r2, r3]
    4b1a:	2102      	movs	r1, #2
    4b1c:	4301      	orrs	r1, r0
    4b1e:	54d1      	strb	r1, [r2, r3]
	default:
		Assert(false);
		return STATUS_ERR_INVALID_ARG;
	}

	return STATUS_OK;
    4b20:	2000      	movs	r0, #0
		break;

#ifdef FEATURE_SYSTEM_CLOCK_DPLL
	case SYSTEM_CLOCK_SOURCE_DPLL:
		SYSCTRL->DPLLCTRLA.reg |= SYSCTRL_DPLLCTRLA_ENABLE;
		break;
    4b22:	e000      	b.n	4b26 <system_clock_source_enable+0x9a>
		/* Always enabled */
		return STATUS_OK;

	default:
		Assert(false);
		return STATUS_ERR_INVALID_ARG;
    4b24:	2017      	movs	r0, #23
	}

	return STATUS_OK;
}
    4b26:	4770      	bx	lr
    4b28:	00006af4 	.word	0x00006af4
    4b2c:	40000800 	.word	0x40000800
    4b30:	2000165c 	.word	0x2000165c

00004b34 <system_clock_source_disable>:
 *                                 given
 */
enum status_code system_clock_source_disable(
		const enum system_clock_source clock_source)
{
	switch (clock_source) {
    4b34:	2808      	cmp	r0, #8
    4b36:	d832      	bhi.n	4b9e <system_clock_source_disable+0x6a>
    4b38:	0080      	lsls	r0, r0, #2
    4b3a:	4b1a      	ldr	r3, [pc, #104]	; (4ba4 <system_clock_source_disable+0x70>)
    4b3c:	581b      	ldr	r3, [r3, r0]
    4b3e:	469f      	mov	pc, r3
	case SYSTEM_CLOCK_SOURCE_OSC8M:
		SYSCTRL->OSC8M.reg &= ~SYSCTRL_OSC8M_ENABLE;
    4b40:	4b19      	ldr	r3, [pc, #100]	; (4ba8 <system_clock_source_disable+0x74>)
    4b42:	6a1a      	ldr	r2, [r3, #32]
    4b44:	2102      	movs	r1, #2
    4b46:	438a      	bics	r2, r1
    4b48:	621a      	str	r2, [r3, #32]
		Assert(false);
		return STATUS_ERR_INVALID_ARG;

	}

	return STATUS_OK;
    4b4a:	2000      	movs	r0, #0
		const enum system_clock_source clock_source)
{
	switch (clock_source) {
	case SYSTEM_CLOCK_SOURCE_OSC8M:
		SYSCTRL->OSC8M.reg &= ~SYSCTRL_OSC8M_ENABLE;
		break;
    4b4c:	e028      	b.n	4ba0 <system_clock_source_disable+0x6c>

	case SYSTEM_CLOCK_SOURCE_OSC32K:
		SYSCTRL->OSC32K.reg &= ~SYSCTRL_OSC32K_ENABLE;
    4b4e:	4b16      	ldr	r3, [pc, #88]	; (4ba8 <system_clock_source_disable+0x74>)
    4b50:	699a      	ldr	r2, [r3, #24]
    4b52:	2102      	movs	r1, #2
    4b54:	438a      	bics	r2, r1
    4b56:	619a      	str	r2, [r3, #24]
		Assert(false);
		return STATUS_ERR_INVALID_ARG;

	}

	return STATUS_OK;
    4b58:	2000      	movs	r0, #0
		SYSCTRL->OSC8M.reg &= ~SYSCTRL_OSC8M_ENABLE;
		break;

	case SYSTEM_CLOCK_SOURCE_OSC32K:
		SYSCTRL->OSC32K.reg &= ~SYSCTRL_OSC32K_ENABLE;
		break;
    4b5a:	e021      	b.n	4ba0 <system_clock_source_disable+0x6c>

	case SYSTEM_CLOCK_SOURCE_XOSC:
		SYSCTRL->XOSC.reg &= ~SYSCTRL_XOSC_ENABLE;
    4b5c:	4b12      	ldr	r3, [pc, #72]	; (4ba8 <system_clock_source_disable+0x74>)
    4b5e:	8a1a      	ldrh	r2, [r3, #16]
    4b60:	2102      	movs	r1, #2
    4b62:	438a      	bics	r2, r1
    4b64:	821a      	strh	r2, [r3, #16]
		Assert(false);
		return STATUS_ERR_INVALID_ARG;

	}

	return STATUS_OK;
    4b66:	2000      	movs	r0, #0
		SYSCTRL->OSC32K.reg &= ~SYSCTRL_OSC32K_ENABLE;
		break;

	case SYSTEM_CLOCK_SOURCE_XOSC:
		SYSCTRL->XOSC.reg &= ~SYSCTRL_XOSC_ENABLE;
		break;
    4b68:	e01a      	b.n	4ba0 <system_clock_source_disable+0x6c>

	case SYSTEM_CLOCK_SOURCE_XOSC32K:
		SYSCTRL->XOSC32K.reg &= ~SYSCTRL_XOSC32K_ENABLE;
    4b6a:	4b0f      	ldr	r3, [pc, #60]	; (4ba8 <system_clock_source_disable+0x74>)
    4b6c:	8a9a      	ldrh	r2, [r3, #20]
    4b6e:	2102      	movs	r1, #2
    4b70:	438a      	bics	r2, r1
    4b72:	829a      	strh	r2, [r3, #20]
		Assert(false);
		return STATUS_ERR_INVALID_ARG;

	}

	return STATUS_OK;
    4b74:	2000      	movs	r0, #0
		SYSCTRL->XOSC.reg &= ~SYSCTRL_XOSC_ENABLE;
		break;

	case SYSTEM_CLOCK_SOURCE_XOSC32K:
		SYSCTRL->XOSC32K.reg &= ~SYSCTRL_XOSC32K_ENABLE;
		break;
    4b76:	e013      	b.n	4ba0 <system_clock_source_disable+0x6c>

	case SYSTEM_CLOCK_SOURCE_DFLL:
		_system_clock_inst.dfll.control &= ~SYSCTRL_DFLLCTRL_ENABLE;
    4b78:	4b0c      	ldr	r3, [pc, #48]	; (4bac <system_clock_source_disable+0x78>)
    4b7a:	681a      	ldr	r2, [r3, #0]
    4b7c:	2102      	movs	r1, #2
    4b7e:	438a      	bics	r2, r1
    4b80:	601a      	str	r2, [r3, #0]
		SYSCTRL->DFLLCTRL.reg = _system_clock_inst.dfll.control;
    4b82:	681a      	ldr	r2, [r3, #0]
    4b84:	b292      	uxth	r2, r2
    4b86:	4b08      	ldr	r3, [pc, #32]	; (4ba8 <system_clock_source_disable+0x74>)
    4b88:	849a      	strh	r2, [r3, #36]	; 0x24
		Assert(false);
		return STATUS_ERR_INVALID_ARG;

	}

	return STATUS_OK;
    4b8a:	2000      	movs	r0, #0
		break;

	case SYSTEM_CLOCK_SOURCE_DFLL:
		_system_clock_inst.dfll.control &= ~SYSCTRL_DFLLCTRL_ENABLE;
		SYSCTRL->DFLLCTRL.reg = _system_clock_inst.dfll.control;
		break;
    4b8c:	e008      	b.n	4ba0 <system_clock_source_disable+0x6c>

#ifdef FEATURE_SYSTEM_CLOCK_DPLL
	case SYSTEM_CLOCK_SOURCE_DPLL:
		SYSCTRL->DPLLCTRLA.reg &= ~SYSCTRL_DPLLCTRLA_ENABLE;
    4b8e:	4a06      	ldr	r2, [pc, #24]	; (4ba8 <system_clock_source_disable+0x74>)
    4b90:	2344      	movs	r3, #68	; 0x44
    4b92:	5cd1      	ldrb	r1, [r2, r3]
    4b94:	2002      	movs	r0, #2
    4b96:	4381      	bics	r1, r0
    4b98:	54d1      	strb	r1, [r2, r3]
		Assert(false);
		return STATUS_ERR_INVALID_ARG;

	}

	return STATUS_OK;
    4b9a:	2000      	movs	r0, #0
		break;

#ifdef FEATURE_SYSTEM_CLOCK_DPLL
	case SYSTEM_CLOCK_SOURCE_DPLL:
		SYSCTRL->DPLLCTRLA.reg &= ~SYSCTRL_DPLLCTRLA_ENABLE;
		break;
    4b9c:	e000      	b.n	4ba0 <system_clock_source_disable+0x6c>
	case SYSTEM_CLOCK_SOURCE_ULP32K:
		/* Not possible to disable */

	default:
		Assert(false);
		return STATUS_ERR_INVALID_ARG;
    4b9e:	2017      	movs	r0, #23

	}

	return STATUS_OK;
}
    4ba0:	4770      	bx	lr
    4ba2:	46c0      	nop			; (mov r8, r8)
    4ba4:	00006b18 	.word	0x00006b18
    4ba8:	40000800 	.word	0x40000800
    4bac:	2000165c 	.word	0x2000165c

00004bb0 <system_clock_source_is_ready>:
bool system_clock_source_is_ready(
		const enum system_clock_source clock_source)
{
	uint32_t mask = 0;

	switch (clock_source) {
    4bb0:	2808      	cmp	r0, #8
    4bb2:	d820      	bhi.n	4bf6 <system_clock_source_is_ready+0x46>
    4bb4:	0080      	lsls	r0, r0, #2
    4bb6:	4b11      	ldr	r3, [pc, #68]	; (4bfc <system_clock_source_is_ready+0x4c>)
    4bb8:	581b      	ldr	r3, [r3, r0]
    4bba:	469f      	mov	pc, r3
				(SYSCTRL_DPLLSTATUS_CLKRDY | SYSCTRL_DPLLSTATUS_LOCK));
#endif

	case SYSTEM_CLOCK_SOURCE_ULP32K:
		/* Not possible to disable */
		return true;
    4bbc:	2001      	movs	r0, #1
    4bbe:	e01b      	b.n	4bf8 <system_clock_source_is_ready+0x48>
	case SYSTEM_CLOCK_SOURCE_OSC32K:
		mask = SYSCTRL_PCLKSR_OSC32KRDY;
		break;

	case SYSTEM_CLOCK_SOURCE_XOSC:
		mask = SYSCTRL_PCLKSR_XOSCRDY;
    4bc0:	2301      	movs	r3, #1
		break;
    4bc2:	e010      	b.n	4be6 <system_clock_source_is_ready+0x36>

	case SYSTEM_CLOCK_SOURCE_XOSC32K:
		mask = SYSCTRL_PCLKSR_XOSC32KRDY;
    4bc4:	2302      	movs	r3, #2
		break;
    4bc6:	e00e      	b.n	4be6 <system_clock_source_is_ready+0x36>
	case SYSTEM_CLOCK_SOURCE_DFLL:
		if (CONF_CLOCK_DFLL_LOOP_MODE == SYSTEM_CLOCK_DFLL_LOOP_MODE_CLOSED) {
			mask = (SYSCTRL_PCLKSR_DFLLRDY |
			        SYSCTRL_PCLKSR_DFLLLCKF | SYSCTRL_PCLKSR_DFLLLCKC);
		} else {
			mask = SYSCTRL_PCLKSR_DFLLRDY;
    4bc8:	2310      	movs	r3, #16
		}
		break;
    4bca:	e00c      	b.n	4be6 <system_clock_source_is_ready+0x36>

#ifdef FEATURE_SYSTEM_CLOCK_DPLL
	case SYSTEM_CLOCK_SOURCE_DPLL:
		return ((SYSCTRL->DPLLSTATUS.reg &
    4bcc:	2350      	movs	r3, #80	; 0x50
    4bce:	4a0c      	ldr	r2, [pc, #48]	; (4c00 <system_clock_source_is_ready+0x50>)
    4bd0:	5cd0      	ldrb	r0, [r2, r3]
    4bd2:	2303      	movs	r3, #3
    4bd4:	4018      	ands	r0, r3
    4bd6:	3803      	subs	r0, #3
    4bd8:	4243      	negs	r3, r0
    4bda:	4158      	adcs	r0, r3
    4bdc:	b2c0      	uxtb	r0, r0
    4bde:	e00b      	b.n	4bf8 <system_clock_source_is_ready+0x48>
{
	uint32_t mask = 0;

	switch (clock_source) {
	case SYSTEM_CLOCK_SOURCE_OSC8M:
		mask = SYSCTRL_PCLKSR_OSC8MRDY;
    4be0:	2308      	movs	r3, #8
    4be2:	e000      	b.n	4be6 <system_clock_source_is_ready+0x36>
		break;

	case SYSTEM_CLOCK_SOURCE_OSC32K:
		mask = SYSCTRL_PCLKSR_OSC32KRDY;
    4be4:	2304      	movs	r3, #4

	default:
		return false;
	}

	return ((SYSCTRL->PCLKSR.reg & mask) == mask);
    4be6:	4a06      	ldr	r2, [pc, #24]	; (4c00 <system_clock_source_is_ready+0x50>)
    4be8:	68d0      	ldr	r0, [r2, #12]
    4bea:	4018      	ands	r0, r3
    4bec:	1ac0      	subs	r0, r0, r3
    4bee:	4243      	negs	r3, r0
    4bf0:	4158      	adcs	r0, r3
    4bf2:	b2c0      	uxtb	r0, r0
    4bf4:	e000      	b.n	4bf8 <system_clock_source_is_ready+0x48>
	case SYSTEM_CLOCK_SOURCE_ULP32K:
		/* Not possible to disable */
		return true;

	default:
		return false;
    4bf6:	2000      	movs	r0, #0
	}

	return ((SYSCTRL->PCLKSR.reg & mask) == mask);
}
    4bf8:	4770      	bx	lr
    4bfa:	46c0      	nop			; (mov r8, r8)
    4bfc:	00006b3c 	.word	0x00006b3c
    4c00:	40000800 	.word	0x40000800

00004c04 <system_clock_init>:
 * \note OSC8M is always enabled and if user selects other clocks for GCLK generators,
 * the OSC8M default enable can be disabled after system_clock_init. Make sure the
 * clock switch successfully before disabling OSC8M.
 */
void system_clock_init(void)
{
    4c04:	b570      	push	{r4, r5, r6, lr}
    4c06:	b08e      	sub	sp, #56	; 0x38
	/* Various bits in the INTFLAG register can be set to one at startup.
	   This will ensure that these bits are cleared */
	SYSCTRL->INTFLAG.reg = SYSCTRL_INTFLAG_BOD33RDY | SYSCTRL_INTFLAG_BOD33DET |
    4c08:	22c2      	movs	r2, #194	; 0xc2
    4c0a:	00d2      	lsls	r2, r2, #3
    4c0c:	4b42      	ldr	r3, [pc, #264]	; (4d18 <system_clock_init+0x114>)
    4c0e:	609a      	str	r2, [r3, #8]
static inline void system_flash_set_waitstates(uint8_t wait_states)
{
	Assert(NVMCTRL_CTRLB_RWS((uint32_t)wait_states) ==
			((uint32_t)wait_states << NVMCTRL_CTRLB_RWS_Pos));

	NVMCTRL->CTRLB.bit.RWS = wait_states;
    4c10:	4a42      	ldr	r2, [pc, #264]	; (4d1c <system_clock_init+0x118>)
    4c12:	6851      	ldr	r1, [r2, #4]
    4c14:	231e      	movs	r3, #30
    4c16:	4399      	bics	r1, r3
    4c18:	2302      	movs	r3, #2
    4c1a:	4319      	orrs	r1, r3
    4c1c:	6051      	str	r1, [r2, #4]
	struct system_gclk_chan_config gclk_conf;

#if CONF_CLOCK_GCLK_1_ENABLE == false
	gclk_conf.source_generator = GCLK_GENERATOR_1;
#elif CONF_CLOCK_GCLK_2_ENABLE == false
	gclk_conf.source_generator = GCLK_GENERATOR_2;
    4c1e:	466a      	mov	r2, sp
    4c20:	7013      	strb	r3, [r2, #0]
	gclk_conf.source_generator = GCLK_GENERATOR_7;
#else
	gclk_conf.source_generator = GCLK_GENERATOR_7;
#endif

	for (gclk_id = 0; gclk_id < GCLK_NUM; gclk_id++) {
    4c22:	2400      	movs	r4, #0
		system_gclk_chan_set_config(gclk_id, &gclk_conf);
    4c24:	4d3e      	ldr	r5, [pc, #248]	; (4d20 <system_clock_init+0x11c>)
    4c26:	b2e0      	uxtb	r0, r4
    4c28:	4669      	mov	r1, sp
    4c2a:	47a8      	blx	r5
	gclk_conf.source_generator = GCLK_GENERATOR_7;
#else
	gclk_conf.source_generator = GCLK_GENERATOR_7;
#endif

	for (gclk_id = 0; gclk_id < GCLK_NUM; gclk_id++) {
    4c2c:	3401      	adds	r4, #1
    4c2e:	2c25      	cmp	r4, #37	; 0x25
    4c30:	d1f9      	bne.n	4c26 <system_clock_init+0x22>
static inline void system_clock_source_xosc32k_get_config_defaults(
		struct system_clock_source_xosc32k_config *const config)
{
	Assert(config);

	config->external_clock      = SYSTEM_CLOCK_EXTERNAL_CRYSTAL;
    4c32:	a80a      	add	r0, sp, #40	; 0x28
    4c34:	2300      	movs	r3, #0
    4c36:	7003      	strb	r3, [r0, #0]
	config->startup_time        = SYSTEM_XOSC32K_STARTUP_16384;
	config->auto_gain_control   = false;
    4c38:	7083      	strb	r3, [r0, #2]
	config->frequency           = 32768UL;
    4c3a:	2280      	movs	r2, #128	; 0x80
    4c3c:	0212      	lsls	r2, r2, #8
    4c3e:	6082      	str	r2, [r0, #8]
	config->enable_1khz_output  = false;
    4c40:	70c3      	strb	r3, [r0, #3]
	config->enable_32khz_output = true;
    4c42:	2201      	movs	r2, #1
    4c44:	7102      	strb	r2, [r0, #4]
	config->run_in_standby      = false;
    4c46:	7303      	strb	r3, [r0, #12]
	config->on_demand           = true;
	config->write_once          = false;
    4c48:	7383      	strb	r3, [r0, #14]
	struct system_clock_source_xosc32k_config xosc32k_conf;
	system_clock_source_xosc32k_get_config_defaults(&xosc32k_conf);

	xosc32k_conf.frequency           = 32768UL;
	xosc32k_conf.external_clock      = CONF_CLOCK_XOSC32K_EXTERNAL_CRYSTAL;
	xosc32k_conf.startup_time        = CONF_CLOCK_XOSC32K_STARTUP_TIME;
    4c4a:	2206      	movs	r2, #6
    4c4c:	7042      	strb	r2, [r0, #1]
	xosc32k_conf.auto_gain_control   = CONF_CLOCK_XOSC32K_AUTO_AMPLITUDE_CONTROL;
	xosc32k_conf.enable_1khz_output  = CONF_CLOCK_XOSC32K_ENABLE_1KHZ_OUPUT;
	xosc32k_conf.enable_32khz_output = CONF_CLOCK_XOSC32K_ENABLE_32KHZ_OUTPUT;
	xosc32k_conf.on_demand           = false;
    4c4e:	7343      	strb	r3, [r0, #13]
	xosc32k_conf.run_in_standby      = CONF_CLOCK_XOSC32K_RUN_IN_STANDBY;

	system_clock_source_xosc32k_set_config(&xosc32k_conf);
    4c50:	4b34      	ldr	r3, [pc, #208]	; (4d24 <system_clock_init+0x120>)
    4c52:	4798      	blx	r3
	system_clock_source_enable(SYSTEM_CLOCK_SOURCE_XOSC32K);
    4c54:	2005      	movs	r0, #5
    4c56:	4b34      	ldr	r3, [pc, #208]	; (4d28 <system_clock_init+0x124>)
    4c58:	4798      	blx	r3

	default:
		return false;
	}

	return ((SYSCTRL->PCLKSR.reg & mask) == mask);
    4c5a:	492f      	ldr	r1, [pc, #188]	; (4d18 <system_clock_init+0x114>)
    4c5c:	2202      	movs	r2, #2
    4c5e:	68cb      	ldr	r3, [r1, #12]
	xosc32k_conf.on_demand           = false;
	xosc32k_conf.run_in_standby      = CONF_CLOCK_XOSC32K_RUN_IN_STANDBY;

	system_clock_source_xosc32k_set_config(&xosc32k_conf);
	system_clock_source_enable(SYSTEM_CLOCK_SOURCE_XOSC32K);
	while(!system_clock_source_is_ready(SYSTEM_CLOCK_SOURCE_XOSC32K));
    4c60:	421a      	tst	r2, r3
    4c62:	d0fc      	beq.n	4c5e <system_clock_init+0x5a>
	if (CONF_CLOCK_XOSC32K_ON_DEMAND) {
		SYSCTRL->XOSC32K.bit.ONDEMAND = 1;
    4c64:	4b2c      	ldr	r3, [pc, #176]	; (4d18 <system_clock_init+0x114>)
    4c66:	8a99      	ldrh	r1, [r3, #20]
    4c68:	2280      	movs	r2, #128	; 0x80
    4c6a:	430a      	orrs	r2, r1
    4c6c:	829a      	strh	r2, [r3, #20]
		struct system_clock_source_osc8m_config *const config)
{
	Assert(config);

	config->prescaler       = SYSTEM_OSC8M_DIV_8;
	config->run_in_standby  = false;
    4c6e:	a809      	add	r0, sp, #36	; 0x24
    4c70:	2400      	movs	r4, #0
    4c72:	7044      	strb	r4, [r0, #1]
	config->on_demand       = true;
    4c74:	2501      	movs	r5, #1
    4c76:	7085      	strb	r5, [r0, #2]

	/* OSC8M */
	struct system_clock_source_osc8m_config osc8m_conf;
	system_clock_source_osc8m_get_config_defaults(&osc8m_conf);

	osc8m_conf.prescaler       = CONF_CLOCK_OSC8M_PRESCALER;
    4c78:	7004      	strb	r4, [r0, #0]
	osc8m_conf.on_demand       = CONF_CLOCK_OSC8M_ON_DEMAND;
	osc8m_conf.run_in_standby  = CONF_CLOCK_OSC8M_RUN_IN_STANDBY;

	system_clock_source_osc8m_set_config(&osc8m_conf);
    4c7a:	4b2c      	ldr	r3, [pc, #176]	; (4d2c <system_clock_init+0x128>)
    4c7c:	4798      	blx	r3
	system_clock_source_enable(SYSTEM_CLOCK_SOURCE_OSC8M);
    4c7e:	2006      	movs	r0, #6
    4c80:	4e29      	ldr	r6, [pc, #164]	; (4d28 <system_clock_init+0x124>)
    4c82:	47b0      	blx	r6


	/* GCLK */
#if CONF_CLOCK_CONFIGURE_GCLK == true
	system_gclk_init();
    4c84:	4b2a      	ldr	r3, [pc, #168]	; (4d30 <system_clock_init+0x12c>)
    4c86:	4798      	blx	r3
{
	/* Sanity check arguments */
	Assert(config);

	/* Default configuration values */
	config->division_factor    = 1;
    4c88:	9501      	str	r5, [sp, #4]
	config->high_when_disabled = false;
    4c8a:	466b      	mov	r3, sp
    4c8c:	705c      	strb	r4, [r3, #1]
#elif (SAMC20) || (SAMC21)
	config->source_clock       = GCLK_SOURCE_OSC48M;
#else
	config->source_clock       = GCLK_SOURCE_OSC8M;
#endif
	config->run_in_standby     = false;
    4c8e:	721c      	strb	r4, [r3, #8]
	config->output_enable      = false;
    4c90:	725c      	strb	r4, [r3, #9]

	/* Configure all GCLK generators except for the main generator, which
	 * is configured later after all other clock systems are set up */
	MREPEAT(GCLK_GEN_NUM, _CONF_CLOCK_GCLK_CONFIG_NONMAIN, ~);
    4c92:	2305      	movs	r3, #5
    4c94:	466a      	mov	r2, sp
    4c96:	7013      	strb	r3, [r2, #0]
    4c98:	2001      	movs	r0, #1
    4c9a:	4669      	mov	r1, sp
    4c9c:	4b25      	ldr	r3, [pc, #148]	; (4d34 <system_clock_init+0x130>)
    4c9e:	4798      	blx	r3
    4ca0:	2001      	movs	r0, #1
    4ca2:	4b25      	ldr	r3, [pc, #148]	; (4d38 <system_clock_init+0x134>)
    4ca4:	4798      	blx	r3
 */
static inline void system_clock_source_dpll_get_config_defaults(
		struct system_clock_source_dpll_config *const config)
{
	config->on_demand           = true;
	config->run_in_standby      = false;
    4ca6:	a803      	add	r0, sp, #12
    4ca8:	7044      	strb	r4, [r0, #1]
	config->lock_bypass         = false;
    4caa:	7084      	strb	r4, [r0, #2]
	config->wake_up_fast        = false;
    4cac:	70c4      	strb	r4, [r0, #3]
	config->low_power_enable    = false;
    4cae:	7104      	strb	r4, [r0, #4]

	config->output_frequency    = 48000000;
    4cb0:	4b22      	ldr	r3, [pc, #136]	; (4d3c <system_clock_init+0x138>)
    4cb2:	6083      	str	r3, [r0, #8]
	config->reference_frequency = 32768;
    4cb4:	2380      	movs	r3, #128	; 0x80
    4cb6:	021b      	lsls	r3, r3, #8
    4cb8:	60c3      	str	r3, [r0, #12]
	config->reference_divider   = 1;
    4cba:	8205      	strh	r5, [r0, #16]
	config->reference_clock     = SYSTEM_CLOCK_SOURCE_DPLL_REFERENCE_CLOCK_XOSC32K;
    4cbc:	7504      	strb	r4, [r0, #20]

	config->lock_time           = SYSTEM_CLOCK_SOURCE_DPLL_LOCK_TIME_DEFAULT;
    4cbe:	74c4      	strb	r4, [r0, #19]
	config->filter              = SYSTEM_CLOCK_SOURCE_DPLL_FILTER_DEFAULT;
    4cc0:	7484      	strb	r4, [r0, #18]
	}

	struct system_clock_source_dpll_config dpll_config;
	system_clock_source_dpll_get_config_defaults(&dpll_config);

	dpll_config.on_demand        = false;
    4cc2:	7004      	strb	r4, [r0, #0]
	dpll_config.reference_clock     = CONF_CLOCK_DPLL_REFERENCE_CLOCK;
	dpll_config.reference_frequency = CONF_CLOCK_DPLL_REFERENCE_FREQUENCY;
	dpll_config.reference_divider   = CONF_CLOCK_DPLL_REFERENCE_DIVIDER;
	dpll_config.output_frequency    = CONF_CLOCK_DPLL_OUTPUT_FREQUENCY;

	system_clock_source_dpll_set_config(&dpll_config);
    4cc4:	4b1e      	ldr	r3, [pc, #120]	; (4d40 <system_clock_init+0x13c>)
    4cc6:	4798      	blx	r3
	system_clock_source_enable(SYSTEM_CLOCK_SOURCE_DPLL);
    4cc8:	2008      	movs	r0, #8
    4cca:	47b0      	blx	r6
		}
		break;

#ifdef FEATURE_SYSTEM_CLOCK_DPLL
	case SYSTEM_CLOCK_SOURCE_DPLL:
		return ((SYSCTRL->DPLLSTATUS.reg &
    4ccc:	4812      	ldr	r0, [pc, #72]	; (4d18 <system_clock_init+0x114>)
    4cce:	2150      	movs	r1, #80	; 0x50
    4cd0:	2203      	movs	r2, #3
    4cd2:	5c43      	ldrb	r3, [r0, r1]
	dpll_config.reference_divider   = CONF_CLOCK_DPLL_REFERENCE_DIVIDER;
	dpll_config.output_frequency    = CONF_CLOCK_DPLL_OUTPUT_FREQUENCY;

	system_clock_source_dpll_set_config(&dpll_config);
	system_clock_source_enable(SYSTEM_CLOCK_SOURCE_DPLL);
	while(!system_clock_source_is_ready(SYSTEM_CLOCK_SOURCE_DPLL));
    4cd4:	4013      	ands	r3, r2
    4cd6:	2b03      	cmp	r3, #3
    4cd8:	d1fb      	bne.n	4cd2 <system_clock_init+0xce>
	if (CONF_CLOCK_DPLL_ON_DEMAND) {
		SYSCTRL->DPLLCTRLA.bit.ONDEMAND = 1;
    4cda:	4a0f      	ldr	r2, [pc, #60]	; (4d18 <system_clock_init+0x114>)
    4cdc:	2344      	movs	r3, #68	; 0x44
    4cde:	5cd0      	ldrb	r0, [r2, r3]
    4ce0:	2180      	movs	r1, #128	; 0x80
    4ce2:	4249      	negs	r1, r1
    4ce4:	4301      	orrs	r1, r0
    4ce6:	54d1      	strb	r1, [r2, r3]
 */
static inline void system_cpu_clock_set_divider(
		const enum system_main_clock_div divider)
{
	Assert(((uint32_t)divider & PM_CPUSEL_CPUDIV_Msk) == divider);
	PM->CPUSEL.reg = (uint32_t)divider;
    4ce8:	4a16      	ldr	r2, [pc, #88]	; (4d44 <system_clock_init+0x140>)
    4cea:	2300      	movs	r3, #0
    4cec:	7213      	strb	r3, [r2, #8]
		const enum system_clock_apb_bus bus,
		const enum system_main_clock_div divider)
{
	switch (bus) {
		case SYSTEM_CLOCK_APB_APBA:
			PM->APBASEL.reg = (uint32_t)divider;
    4cee:	7253      	strb	r3, [r2, #9]
			break;
		case SYSTEM_CLOCK_APB_APBB:
			PM->APBBSEL.reg = (uint32_t)divider;
    4cf0:	7293      	strb	r3, [r2, #10]
			break;
		case SYSTEM_CLOCK_APB_APBC:
			PM->APBCSEL.reg = (uint32_t)divider;
    4cf2:	72d3      	strb	r3, [r2, #11]
{
	/* Sanity check arguments */
	Assert(config);

	/* Default configuration values */
	config->division_factor    = 1;
    4cf4:	2201      	movs	r2, #1
    4cf6:	9201      	str	r2, [sp, #4]
	config->high_when_disabled = false;
    4cf8:	466a      	mov	r2, sp
    4cfa:	7053      	strb	r3, [r2, #1]
#elif (SAMC20) || (SAMC21)
	config->source_clock       = GCLK_SOURCE_OSC48M;
#else
	config->source_clock       = GCLK_SOURCE_OSC8M;
#endif
	config->run_in_standby     = false;
    4cfc:	7213      	strb	r3, [r2, #8]
	config->output_enable      = false;
    4cfe:	7253      	strb	r3, [r2, #9]
	system_apb_clock_set_divider(SYSTEM_CLOCK_APB_APBC, CONF_CLOCK_APBC_DIVIDER);

	/* GCLK 0 */
#if CONF_CLOCK_CONFIGURE_GCLK == true
	/* Configure the main GCLK last as it might depend on other generators */
	_CONF_CLOCK_GCLK_CONFIG(0, ~);
    4d00:	2308      	movs	r3, #8
    4d02:	7013      	strb	r3, [r2, #0]
    4d04:	2000      	movs	r0, #0
    4d06:	4669      	mov	r1, sp
    4d08:	4b0a      	ldr	r3, [pc, #40]	; (4d34 <system_clock_init+0x130>)
    4d0a:	4798      	blx	r3
    4d0c:	2000      	movs	r0, #0
    4d0e:	4b0a      	ldr	r3, [pc, #40]	; (4d38 <system_clock_init+0x134>)
    4d10:	4798      	blx	r3
#endif
}
    4d12:	b00e      	add	sp, #56	; 0x38
    4d14:	bd70      	pop	{r4, r5, r6, pc}
    4d16:	46c0      	nop			; (mov r8, r8)
    4d18:	40000800 	.word	0x40000800
    4d1c:	41004000 	.word	0x41004000
    4d20:	00004f7d 	.word	0x00004f7d
    4d24:	00004939 	.word	0x00004939
    4d28:	00004a8d 	.word	0x00004a8d
    4d2c:	000048fd 	.word	0x000048fd
    4d30:	00004d49 	.word	0x00004d49
    4d34:	00004d6d 	.word	0x00004d6d
    4d38:	00004e21 	.word	0x00004e21
    4d3c:	02dc6c00 	.word	0x02dc6c00
    4d40:	000049ed 	.word	0x000049ed
    4d44:	40000400 	.word	0x40000400

00004d48 <system_gclk_init>:
		const enum system_clock_apb_bus bus,
		const uint32_t mask)
{
	switch (bus) {
		case SYSTEM_CLOCK_APB_APBA:
			PM->APBAMASK.reg |= mask;
    4d48:	4b06      	ldr	r3, [pc, #24]	; (4d64 <system_gclk_init+0x1c>)
    4d4a:	6999      	ldr	r1, [r3, #24]
    4d4c:	2208      	movs	r2, #8
    4d4e:	430a      	orrs	r2, r1
    4d50:	619a      	str	r2, [r3, #24]
{
	/* Turn on the digital interface clock */
	system_apb_clock_set_mask(SYSTEM_CLOCK_APB_APBA, PM_APBAMASK_GCLK);

	/* Software reset the module to ensure it is re-initialized correctly */
	GCLK->CTRL.reg = GCLK_CTRL_SWRST;
    4d52:	2201      	movs	r2, #1
    4d54:	4b04      	ldr	r3, [pc, #16]	; (4d68 <system_gclk_init+0x20>)
    4d56:	701a      	strb	r2, [r3, #0]
	while (GCLK->CTRL.reg & GCLK_CTRL_SWRST) {
    4d58:	1c19      	adds	r1, r3, #0
    4d5a:	780b      	ldrb	r3, [r1, #0]
    4d5c:	4213      	tst	r3, r2
    4d5e:	d1fc      	bne.n	4d5a <system_gclk_init+0x12>
		/* Wait for reset to complete */
	}
}
    4d60:	4770      	bx	lr
    4d62:	46c0      	nop			; (mov r8, r8)
    4d64:	40000400 	.word	0x40000400
    4d68:	40000c00 	.word	0x40000c00

00004d6c <system_gclk_gen_set_config>:
 * \param[in] config     Configuration settings for the generator
 */
void system_gclk_gen_set_config(
		const uint8_t generator,
		struct system_gclk_gen_config *const config)
{
    4d6c:	b5f8      	push	{r3, r4, r5, r6, r7, lr}
    4d6e:	1c06      	adds	r6, r0, #0
	/* Sanity check arguments */
	Assert(config);

	/* Cache new register configurations to minimize sync requirements. */
	uint32_t new_genctrl_config = (generator << GCLK_GENCTRL_ID_Pos);
    4d70:	1c07      	adds	r7, r0, #0
	uint32_t new_gendiv_config  = (generator << GCLK_GENDIV_ID_Pos);

	/* Select the requested source clock for the generator */
	new_genctrl_config |= config->source_clock << GCLK_GENCTRL_SRC_Pos;
    4d72:	780d      	ldrb	r5, [r1, #0]
    4d74:	022d      	lsls	r5, r5, #8
    4d76:	4305      	orrs	r5, r0

	/* Configure the clock to be either high or low when disabled */
	if (config->high_when_disabled) {
    4d78:	784b      	ldrb	r3, [r1, #1]
    4d7a:	2b00      	cmp	r3, #0
    4d7c:	d002      	beq.n	4d84 <system_gclk_gen_set_config+0x18>
		new_genctrl_config |= GCLK_GENCTRL_OOV;
    4d7e:	2380      	movs	r3, #128	; 0x80
    4d80:	02db      	lsls	r3, r3, #11
    4d82:	431d      	orrs	r5, r3
	}

	/* Configure if the clock output to I/O pin should be enabled. */
	if (config->output_enable) {
    4d84:	7a4b      	ldrb	r3, [r1, #9]
    4d86:	2b00      	cmp	r3, #0
    4d88:	d002      	beq.n	4d90 <system_gclk_gen_set_config+0x24>
		new_genctrl_config |= GCLK_GENCTRL_OE;
    4d8a:	2380      	movs	r3, #128	; 0x80
    4d8c:	031b      	lsls	r3, r3, #12
    4d8e:	431d      	orrs	r5, r3
	}

	/* Set division factor */
	if (config->division_factor > 1) {
    4d90:	684c      	ldr	r4, [r1, #4]
    4d92:	2c01      	cmp	r4, #1
    4d94:	d917      	bls.n	4dc6 <system_gclk_gen_set_config+0x5a>
		/* Check if division is a power of two */
		if (((config->division_factor & (config->division_factor - 1)) == 0)) {
    4d96:	1e63      	subs	r3, r4, #1
    4d98:	421c      	tst	r4, r3
    4d9a:	d10f      	bne.n	4dbc <system_gclk_gen_set_config+0x50>
			 * register */

			uint32_t div2_count = 0;

			uint32_t mask;
			for (mask = (1UL << 1); mask < config->division_factor;
    4d9c:	2c02      	cmp	r4, #2
    4d9e:	d906      	bls.n	4dae <system_gclk_gen_set_config+0x42>
    4da0:	2302      	movs	r3, #2
    4da2:	2200      	movs	r2, #0
						mask <<= 1) {
				div2_count++;
    4da4:	3201      	adds	r2, #1

			uint32_t div2_count = 0;

			uint32_t mask;
			for (mask = (1UL << 1); mask < config->division_factor;
						mask <<= 1) {
    4da6:	005b      	lsls	r3, r3, #1
			 * register */

			uint32_t div2_count = 0;

			uint32_t mask;
			for (mask = (1UL << 1); mask < config->division_factor;
    4da8:	429c      	cmp	r4, r3
    4daa:	d8fb      	bhi.n	4da4 <system_gclk_gen_set_config+0x38>
    4dac:	e000      	b.n	4db0 <system_gclk_gen_set_config+0x44>
    4dae:	2200      	movs	r2, #0
						mask <<= 1) {
				div2_count++;
			}

			/* Set binary divider power of 2 division factor */
			new_gendiv_config  |= div2_count << GCLK_GENDIV_DIV_Pos;
    4db0:	0217      	lsls	r7, r2, #8
    4db2:	4337      	orrs	r7, r6
			new_genctrl_config |= GCLK_GENCTRL_DIVSEL;
    4db4:	2380      	movs	r3, #128	; 0x80
    4db6:	035b      	lsls	r3, r3, #13
    4db8:	431d      	orrs	r5, r3
    4dba:	e004      	b.n	4dc6 <system_gclk_gen_set_config+0x5a>
		} else {
			/* Set integer division factor */

			new_gendiv_config  |=
					(config->division_factor) << GCLK_GENDIV_DIV_Pos;
    4dbc:	0227      	lsls	r7, r4, #8
			new_gendiv_config  |= div2_count << GCLK_GENDIV_DIV_Pos;
			new_genctrl_config |= GCLK_GENCTRL_DIVSEL;
		} else {
			/* Set integer division factor */

			new_gendiv_config  |=
    4dbe:	4337      	orrs	r7, r6
					(config->division_factor) << GCLK_GENDIV_DIV_Pos;

			/* Enable non-binary division with increased duty cycle accuracy */
			new_genctrl_config |= GCLK_GENCTRL_IDC;
    4dc0:	2380      	movs	r3, #128	; 0x80
    4dc2:	029b      	lsls	r3, r3, #10
    4dc4:	431d      	orrs	r5, r3
		}

	}

	/* Enable or disable the clock in standby mode */
	if (config->run_in_standby) {
    4dc6:	7a0b      	ldrb	r3, [r1, #8]
    4dc8:	2b00      	cmp	r3, #0
    4dca:	d002      	beq.n	4dd2 <system_gclk_gen_set_config+0x66>
		new_genctrl_config |= GCLK_GENCTRL_RUNSTDBY;
    4dcc:	2380      	movs	r3, #128	; 0x80
    4dce:	039b      	lsls	r3, r3, #14
    4dd0:	431d      	orrs	r5, r3
 * \retval false if the module has completed synchronization
 * \retval true if the module synchronization is ongoing
 */
static inline bool system_gclk_is_syncing(void)
{
	if (GCLK->STATUS.reg & GCLK_STATUS_SYNCBUSY){
    4dd2:	4a0f      	ldr	r2, [pc, #60]	; (4e10 <system_gclk_gen_set_config+0xa4>)
    4dd4:	7853      	ldrb	r3, [r2, #1]
	/* Enable or disable the clock in standby mode */
	if (config->run_in_standby) {
		new_genctrl_config |= GCLK_GENCTRL_RUNSTDBY;
	}

	while (system_gclk_is_syncing()) {
    4dd6:	b25b      	sxtb	r3, r3
    4dd8:	2b00      	cmp	r3, #0
    4dda:	dbfb      	blt.n	4dd4 <system_gclk_gen_set_config+0x68>
 * are only re-enabled upon leaving the outermost nested critical section.
 *
 */
static inline void system_interrupt_enter_critical_section(void)
{
	cpu_irq_enter_critical();
    4ddc:	4b0d      	ldr	r3, [pc, #52]	; (4e14 <system_gclk_gen_set_config+0xa8>)
    4dde:	4798      	blx	r3
	};

	system_interrupt_enter_critical_section();

	/* Select the correct generator */
	*((uint8_t*)&GCLK->GENDIV.reg) = generator;
    4de0:	4b0d      	ldr	r3, [pc, #52]	; (4e18 <system_gclk_gen_set_config+0xac>)
    4de2:	701e      	strb	r6, [r3, #0]
 * \retval false if the module has completed synchronization
 * \retval true if the module synchronization is ongoing
 */
static inline bool system_gclk_is_syncing(void)
{
	if (GCLK->STATUS.reg & GCLK_STATUS_SYNCBUSY){
    4de4:	4a0a      	ldr	r2, [pc, #40]	; (4e10 <system_gclk_gen_set_config+0xa4>)
    4de6:	7853      	ldrb	r3, [r2, #1]

	/* Select the correct generator */
	*((uint8_t*)&GCLK->GENDIV.reg) = generator;

	/* Write the new generator configuration */
	while (system_gclk_is_syncing()) {
    4de8:	b25b      	sxtb	r3, r3
    4dea:	2b00      	cmp	r3, #0
    4dec:	dbfb      	blt.n	4de6 <system_gclk_gen_set_config+0x7a>
		/* Wait for synchronization */
	};
	GCLK->GENDIV.reg  = new_gendiv_config;
    4dee:	4b08      	ldr	r3, [pc, #32]	; (4e10 <system_gclk_gen_set_config+0xa4>)
    4df0:	609f      	str	r7, [r3, #8]
 * \retval false if the module has completed synchronization
 * \retval true if the module synchronization is ongoing
 */
static inline bool system_gclk_is_syncing(void)
{
	if (GCLK->STATUS.reg & GCLK_STATUS_SYNCBUSY){
    4df2:	1c1a      	adds	r2, r3, #0
    4df4:	7853      	ldrb	r3, [r2, #1]
	while (system_gclk_is_syncing()) {
		/* Wait for synchronization */
	};
	GCLK->GENDIV.reg  = new_gendiv_config;

	while (system_gclk_is_syncing()) {
    4df6:	b25b      	sxtb	r3, r3
    4df8:	2b00      	cmp	r3, #0
    4dfa:	dbfb      	blt.n	4df4 <system_gclk_gen_set_config+0x88>
		/* Wait for synchronization */
	};
	GCLK->GENCTRL.reg = new_genctrl_config | (GCLK->GENCTRL.reg & GCLK_GENCTRL_GENEN);
    4dfc:	4b04      	ldr	r3, [pc, #16]	; (4e10 <system_gclk_gen_set_config+0xa4>)
    4dfe:	6859      	ldr	r1, [r3, #4]
    4e00:	2280      	movs	r2, #128	; 0x80
    4e02:	0252      	lsls	r2, r2, #9
    4e04:	400a      	ands	r2, r1
    4e06:	4315      	orrs	r5, r2
    4e08:	605d      	str	r5, [r3, #4]
 * are only re-enabled upon leaving the outermost nested critical section.
 *
 */
static inline void system_interrupt_leave_critical_section(void)
{
	cpu_irq_leave_critical();
    4e0a:	4b04      	ldr	r3, [pc, #16]	; (4e1c <system_gclk_gen_set_config+0xb0>)
    4e0c:	4798      	blx	r3

	system_interrupt_leave_critical_section();
}
    4e0e:	bdf8      	pop	{r3, r4, r5, r6, r7, pc}
    4e10:	40000c00 	.word	0x40000c00
    4e14:	00004ffd 	.word	0x00004ffd
    4e18:	40000c08 	.word	0x40000c08
    4e1c:	00005039 	.word	0x00005039

00004e20 <system_gclk_gen_enable>:
 *
 * \param[in] generator  Generic Clock Generator index to enable
 */
void system_gclk_gen_enable(
		const uint8_t generator)
{
    4e20:	b510      	push	{r4, lr}
    4e22:	1c04      	adds	r4, r0, #0
 * \retval false if the module has completed synchronization
 * \retval true if the module synchronization is ongoing
 */
static inline bool system_gclk_is_syncing(void)
{
	if (GCLK->STATUS.reg & GCLK_STATUS_SYNCBUSY){
    4e24:	4a0b      	ldr	r2, [pc, #44]	; (4e54 <system_gclk_gen_enable+0x34>)
    4e26:	7853      	ldrb	r3, [r2, #1]
 * \param[in] generator  Generic Clock Generator index to enable
 */
void system_gclk_gen_enable(
		const uint8_t generator)
{
	while (system_gclk_is_syncing()) {
    4e28:	b25b      	sxtb	r3, r3
    4e2a:	2b00      	cmp	r3, #0
    4e2c:	dbfb      	blt.n	4e26 <system_gclk_gen_enable+0x6>
 * are only re-enabled upon leaving the outermost nested critical section.
 *
 */
static inline void system_interrupt_enter_critical_section(void)
{
	cpu_irq_enter_critical();
    4e2e:	4b0a      	ldr	r3, [pc, #40]	; (4e58 <system_gclk_gen_enable+0x38>)
    4e30:	4798      	blx	r3
	};

	system_interrupt_enter_critical_section();

	/* Select the requested generator */
	*((uint8_t*)&GCLK->GENCTRL.reg) = generator;
    4e32:	4b0a      	ldr	r3, [pc, #40]	; (4e5c <system_gclk_gen_enable+0x3c>)
    4e34:	701c      	strb	r4, [r3, #0]
 * \retval false if the module has completed synchronization
 * \retval true if the module synchronization is ongoing
 */
static inline bool system_gclk_is_syncing(void)
{
	if (GCLK->STATUS.reg & GCLK_STATUS_SYNCBUSY){
    4e36:	4a07      	ldr	r2, [pc, #28]	; (4e54 <system_gclk_gen_enable+0x34>)
    4e38:	7853      	ldrb	r3, [r2, #1]

	system_interrupt_enter_critical_section();

	/* Select the requested generator */
	*((uint8_t*)&GCLK->GENCTRL.reg) = generator;
	while (system_gclk_is_syncing()) {
    4e3a:	b25b      	sxtb	r3, r3
    4e3c:	2b00      	cmp	r3, #0
    4e3e:	dbfb      	blt.n	4e38 <system_gclk_gen_enable+0x18>
		/* Wait for synchronization */
	};

	/* Enable generator */
	GCLK->GENCTRL.reg |= GCLK_GENCTRL_GENEN;
    4e40:	4b04      	ldr	r3, [pc, #16]	; (4e54 <system_gclk_gen_enable+0x34>)
    4e42:	6859      	ldr	r1, [r3, #4]
    4e44:	2280      	movs	r2, #128	; 0x80
    4e46:	0252      	lsls	r2, r2, #9
    4e48:	430a      	orrs	r2, r1
    4e4a:	605a      	str	r2, [r3, #4]
 * are only re-enabled upon leaving the outermost nested critical section.
 *
 */
static inline void system_interrupt_leave_critical_section(void)
{
	cpu_irq_leave_critical();
    4e4c:	4b04      	ldr	r3, [pc, #16]	; (4e60 <system_gclk_gen_enable+0x40>)
    4e4e:	4798      	blx	r3

	system_interrupt_leave_critical_section();
}
    4e50:	bd10      	pop	{r4, pc}
    4e52:	46c0      	nop			; (mov r8, r8)
    4e54:	40000c00 	.word	0x40000c00
    4e58:	00004ffd 	.word	0x00004ffd
    4e5c:	40000c04 	.word	0x40000c04
    4e60:	00005039 	.word	0x00005039

00004e64 <system_gclk_gen_get_hz>:
 *
 * \return The frequency of the generic clock generator, in Hz.
 */
uint32_t system_gclk_gen_get_hz(
		const uint8_t generator)
{
    4e64:	b570      	push	{r4, r5, r6, lr}
    4e66:	1c04      	adds	r4, r0, #0
 * \retval false if the module has completed synchronization
 * \retval true if the module synchronization is ongoing
 */
static inline bool system_gclk_is_syncing(void)
{
	if (GCLK->STATUS.reg & GCLK_STATUS_SYNCBUSY){
    4e68:	4a1a      	ldr	r2, [pc, #104]	; (4ed4 <system_gclk_gen_get_hz+0x70>)
    4e6a:	7853      	ldrb	r3, [r2, #1]
 * \return The frequency of the generic clock generator, in Hz.
 */
uint32_t system_gclk_gen_get_hz(
		const uint8_t generator)
{
	while (system_gclk_is_syncing()) {
    4e6c:	b25b      	sxtb	r3, r3
    4e6e:	2b00      	cmp	r3, #0
    4e70:	dbfb      	blt.n	4e6a <system_gclk_gen_get_hz+0x6>
 * are only re-enabled upon leaving the outermost nested critical section.
 *
 */
static inline void system_interrupt_enter_critical_section(void)
{
	cpu_irq_enter_critical();
    4e72:	4b19      	ldr	r3, [pc, #100]	; (4ed8 <system_gclk_gen_get_hz+0x74>)
    4e74:	4798      	blx	r3
	};

	system_interrupt_enter_critical_section();

	/* Select the appropriate generator */
	*((uint8_t*)&GCLK->GENCTRL.reg) = generator;
    4e76:	4b19      	ldr	r3, [pc, #100]	; (4edc <system_gclk_gen_get_hz+0x78>)
    4e78:	701c      	strb	r4, [r3, #0]
 * \retval false if the module has completed synchronization
 * \retval true if the module synchronization is ongoing
 */
static inline bool system_gclk_is_syncing(void)
{
	if (GCLK->STATUS.reg & GCLK_STATUS_SYNCBUSY){
    4e7a:	4a16      	ldr	r2, [pc, #88]	; (4ed4 <system_gclk_gen_get_hz+0x70>)
    4e7c:	7853      	ldrb	r3, [r2, #1]

	system_interrupt_enter_critical_section();

	/* Select the appropriate generator */
	*((uint8_t*)&GCLK->GENCTRL.reg) = generator;
	while (system_gclk_is_syncing()) {
    4e7e:	b25b      	sxtb	r3, r3
    4e80:	2b00      	cmp	r3, #0
    4e82:	dbfb      	blt.n	4e7c <system_gclk_gen_get_hz+0x18>
		/* Wait for synchronization */
	};

	/* Get the frequency of the source connected to the GCLK generator */
	uint32_t gen_input_hz = system_clock_source_get_hz(
			(enum system_clock_source)GCLK->GENCTRL.bit.SRC);
    4e84:	4e13      	ldr	r6, [pc, #76]	; (4ed4 <system_gclk_gen_get_hz+0x70>)
    4e86:	6870      	ldr	r0, [r6, #4]
    4e88:	04c0      	lsls	r0, r0, #19
    4e8a:	0ec0      	lsrs	r0, r0, #27
	while (system_gclk_is_syncing()) {
		/* Wait for synchronization */
	};

	/* Get the frequency of the source connected to the GCLK generator */
	uint32_t gen_input_hz = system_clock_source_get_hz(
    4e8c:	4b14      	ldr	r3, [pc, #80]	; (4ee0 <system_gclk_gen_get_hz+0x7c>)
    4e8e:	4798      	blx	r3
    4e90:	1c05      	adds	r5, r0, #0
			(enum system_clock_source)GCLK->GENCTRL.bit.SRC);

	*((uint8_t*)&GCLK->GENCTRL.reg) = generator;
    4e92:	4b12      	ldr	r3, [pc, #72]	; (4edc <system_gclk_gen_get_hz+0x78>)
    4e94:	701c      	strb	r4, [r3, #0]

	uint8_t divsel = GCLK->GENCTRL.bit.DIVSEL;
    4e96:	6876      	ldr	r6, [r6, #4]
    4e98:	02f6      	lsls	r6, r6, #11
    4e9a:	0ff6      	lsrs	r6, r6, #31

	/* Select the appropriate generator division register */
	*((uint8_t*)&GCLK->GENDIV.reg) = generator;
    4e9c:	4b11      	ldr	r3, [pc, #68]	; (4ee4 <system_gclk_gen_get_hz+0x80>)
    4e9e:	701c      	strb	r4, [r3, #0]
 * \retval false if the module has completed synchronization
 * \retval true if the module synchronization is ongoing
 */
static inline bool system_gclk_is_syncing(void)
{
	if (GCLK->STATUS.reg & GCLK_STATUS_SYNCBUSY){
    4ea0:	4a0c      	ldr	r2, [pc, #48]	; (4ed4 <system_gclk_gen_get_hz+0x70>)
    4ea2:	7853      	ldrb	r3, [r2, #1]

	uint8_t divsel = GCLK->GENCTRL.bit.DIVSEL;

	/* Select the appropriate generator division register */
	*((uint8_t*)&GCLK->GENDIV.reg) = generator;
	while (system_gclk_is_syncing()) {
    4ea4:	b25b      	sxtb	r3, r3
    4ea6:	2b00      	cmp	r3, #0
    4ea8:	dbfb      	blt.n	4ea2 <system_gclk_gen_get_hz+0x3e>
		/* Wait for synchronization */
	};

	uint32_t divider = GCLK->GENDIV.bit.DIV;
    4eaa:	4b0a      	ldr	r3, [pc, #40]	; (4ed4 <system_gclk_gen_get_hz+0x70>)
    4eac:	689c      	ldr	r4, [r3, #8]
    4eae:	0a24      	lsrs	r4, r4, #8
    4eb0:	b2a4      	uxth	r4, r4
 * are only re-enabled upon leaving the outermost nested critical section.
 *
 */
static inline void system_interrupt_leave_critical_section(void)
{
	cpu_irq_leave_critical();
    4eb2:	4b0d      	ldr	r3, [pc, #52]	; (4ee8 <system_gclk_gen_get_hz+0x84>)
    4eb4:	4798      	blx	r3

	system_interrupt_leave_critical_section();

	/* Check if the generator is using fractional or binary division */
	if (!divsel && divider > 1) {
    4eb6:	2e00      	cmp	r6, #0
    4eb8:	d107      	bne.n	4eca <system_gclk_gen_get_hz+0x66>
    4eba:	2c01      	cmp	r4, #1
    4ebc:	d907      	bls.n	4ece <system_gclk_gen_get_hz+0x6a>
		gen_input_hz /= divider;
    4ebe:	1c28      	adds	r0, r5, #0
    4ec0:	1c21      	adds	r1, r4, #0
    4ec2:	4b0a      	ldr	r3, [pc, #40]	; (4eec <system_gclk_gen_get_hz+0x88>)
    4ec4:	4798      	blx	r3
    4ec6:	1c05      	adds	r5, r0, #0
    4ec8:	e001      	b.n	4ece <system_gclk_gen_get_hz+0x6a>
	} else if (divsel) {
		gen_input_hz >>= (divider+1);
    4eca:	3401      	adds	r4, #1
    4ecc:	40e5      	lsrs	r5, r4
	}

	return gen_input_hz;
}
    4ece:	1c28      	adds	r0, r5, #0
    4ed0:	bd70      	pop	{r4, r5, r6, pc}
    4ed2:	46c0      	nop			; (mov r8, r8)
    4ed4:	40000c00 	.word	0x40000c00
    4ed8:	00004ffd 	.word	0x00004ffd
    4edc:	40000c04 	.word	0x40000c04
    4ee0:	0000486d 	.word	0x0000486d
    4ee4:	40000c08 	.word	0x40000c08
    4ee8:	00005039 	.word	0x00005039
    4eec:	00005141 	.word	0x00005141

00004ef0 <system_gclk_chan_enable>:
 *
 * \param[in] channel   Generic Clock channel to enable
 */
void system_gclk_chan_enable(
		const uint8_t channel)
{
    4ef0:	b510      	push	{r4, lr}
    4ef2:	1c04      	adds	r4, r0, #0
 * are only re-enabled upon leaving the outermost nested critical section.
 *
 */
static inline void system_interrupt_enter_critical_section(void)
{
	cpu_irq_enter_critical();
    4ef4:	4b06      	ldr	r3, [pc, #24]	; (4f10 <system_gclk_chan_enable+0x20>)
    4ef6:	4798      	blx	r3
	system_interrupt_enter_critical_section();

	/* Select the requested generator channel */
	*((uint8_t*)&GCLK->CLKCTRL.reg) = channel;
    4ef8:	4b06      	ldr	r3, [pc, #24]	; (4f14 <system_gclk_chan_enable+0x24>)
    4efa:	701c      	strb	r4, [r3, #0]

	/* Enable the generic clock */
	GCLK->CLKCTRL.reg |= GCLK_CLKCTRL_CLKEN;
    4efc:	4b06      	ldr	r3, [pc, #24]	; (4f18 <system_gclk_chan_enable+0x28>)
    4efe:	8859      	ldrh	r1, [r3, #2]
    4f00:	2280      	movs	r2, #128	; 0x80
    4f02:	01d2      	lsls	r2, r2, #7
    4f04:	430a      	orrs	r2, r1
    4f06:	805a      	strh	r2, [r3, #2]
 * are only re-enabled upon leaving the outermost nested critical section.
 *
 */
static inline void system_interrupt_leave_critical_section(void)
{
	cpu_irq_leave_critical();
    4f08:	4b04      	ldr	r3, [pc, #16]	; (4f1c <system_gclk_chan_enable+0x2c>)
    4f0a:	4798      	blx	r3

	system_interrupt_leave_critical_section();
}
    4f0c:	bd10      	pop	{r4, pc}
    4f0e:	46c0      	nop			; (mov r8, r8)
    4f10:	00004ffd 	.word	0x00004ffd
    4f14:	40000c02 	.word	0x40000c02
    4f18:	40000c00 	.word	0x40000c00
    4f1c:	00005039 	.word	0x00005039

00004f20 <system_gclk_chan_disable>:
 *
 * \param[in] channel  Generic Clock channel to disable
 */
void system_gclk_chan_disable(
		const uint8_t channel)
{
    4f20:	b510      	push	{r4, lr}
    4f22:	1c04      	adds	r4, r0, #0
 * are only re-enabled upon leaving the outermost nested critical section.
 *
 */
static inline void system_interrupt_enter_critical_section(void)
{
	cpu_irq_enter_critical();
    4f24:	4b0f      	ldr	r3, [pc, #60]	; (4f64 <system_gclk_chan_disable+0x44>)
    4f26:	4798      	blx	r3
	system_interrupt_enter_critical_section();

	/* Select the requested generator channel */
	*((uint8_t*)&GCLK->CLKCTRL.reg) = channel;
    4f28:	4b0f      	ldr	r3, [pc, #60]	; (4f68 <system_gclk_chan_disable+0x48>)
    4f2a:	701c      	strb	r4, [r3, #0]

	/* Sanity check WRTLOCK */
	Assert(!GCLK->CLKCTRL.bit.WRTLOCK);

	/* Switch to known-working source so that the channel can be disabled */
	uint32_t prev_gen_id = GCLK->CLKCTRL.bit.GEN;
    4f2c:	4b0f      	ldr	r3, [pc, #60]	; (4f6c <system_gclk_chan_disable+0x4c>)
    4f2e:	8858      	ldrh	r0, [r3, #2]
    4f30:	0500      	lsls	r0, r0, #20
    4f32:	0f00      	lsrs	r0, r0, #28
	GCLK->CLKCTRL.bit.GEN = 0;
    4f34:	8859      	ldrh	r1, [r3, #2]
    4f36:	4a0e      	ldr	r2, [pc, #56]	; (4f70 <system_gclk_chan_disable+0x50>)
    4f38:	400a      	ands	r2, r1
    4f3a:	805a      	strh	r2, [r3, #2]

	/* Disable the generic clock */
	GCLK->CLKCTRL.reg &= ~GCLK_CLKCTRL_CLKEN;
    4f3c:	8859      	ldrh	r1, [r3, #2]
    4f3e:	4a0d      	ldr	r2, [pc, #52]	; (4f74 <system_gclk_chan_disable+0x54>)
    4f40:	400a      	ands	r2, r1
    4f42:	805a      	strh	r2, [r3, #2]
	while (GCLK->CLKCTRL.reg & GCLK_CLKCTRL_CLKEN) {
    4f44:	1c19      	adds	r1, r3, #0
    4f46:	2280      	movs	r2, #128	; 0x80
    4f48:	01d2      	lsls	r2, r2, #7
    4f4a:	884b      	ldrh	r3, [r1, #2]
    4f4c:	4213      	tst	r3, r2
    4f4e:	d1fc      	bne.n	4f4a <system_gclk_chan_disable+0x2a>
		/* Wait for clock to become disabled */
	}

	/* Restore previous configured clock generator */
	GCLK->CLKCTRL.bit.GEN = prev_gen_id;
    4f50:	4b06      	ldr	r3, [pc, #24]	; (4f6c <system_gclk_chan_disable+0x4c>)
    4f52:	0201      	lsls	r1, r0, #8
    4f54:	8858      	ldrh	r0, [r3, #2]
    4f56:	4a06      	ldr	r2, [pc, #24]	; (4f70 <system_gclk_chan_disable+0x50>)
    4f58:	4002      	ands	r2, r0
    4f5a:	430a      	orrs	r2, r1
    4f5c:	805a      	strh	r2, [r3, #2]
 * are only re-enabled upon leaving the outermost nested critical section.
 *
 */
static inline void system_interrupt_leave_critical_section(void)
{
	cpu_irq_leave_critical();
    4f5e:	4b06      	ldr	r3, [pc, #24]	; (4f78 <system_gclk_chan_disable+0x58>)
    4f60:	4798      	blx	r3

	system_interrupt_leave_critical_section();
}
    4f62:	bd10      	pop	{r4, pc}
    4f64:	00004ffd 	.word	0x00004ffd
    4f68:	40000c02 	.word	0x40000c02
    4f6c:	40000c00 	.word	0x40000c00
    4f70:	fffff0ff 	.word	0xfffff0ff
    4f74:	ffffbfff 	.word	0xffffbfff
    4f78:	00005039 	.word	0x00005039

00004f7c <system_gclk_chan_set_config>:
 *
 */
void system_gclk_chan_set_config(
		const uint8_t channel,
		struct system_gclk_chan_config *const config)
{
    4f7c:	b510      	push	{r4, lr}

	/* Cache the new config to reduce sync requirements */
	uint32_t new_clkctrl_config = (channel << GCLK_CLKCTRL_ID_Pos);

	/* Select the desired generic clock generator */
	new_clkctrl_config |= config->source_generator << GCLK_CLKCTRL_GEN_Pos;
    4f7e:	780c      	ldrb	r4, [r1, #0]
    4f80:	0224      	lsls	r4, r4, #8
    4f82:	4304      	orrs	r4, r0

	/* Disable generic clock channel */
	system_gclk_chan_disable(channel);
    4f84:	4b02      	ldr	r3, [pc, #8]	; (4f90 <system_gclk_chan_set_config+0x14>)
    4f86:	4798      	blx	r3

	/* Write the new configuration */
	GCLK->CLKCTRL.reg = new_clkctrl_config;
    4f88:	b2a4      	uxth	r4, r4
    4f8a:	4b02      	ldr	r3, [pc, #8]	; (4f94 <system_gclk_chan_set_config+0x18>)
    4f8c:	805c      	strh	r4, [r3, #2]
}
    4f8e:	bd10      	pop	{r4, pc}
    4f90:	00004f21 	.word	0x00004f21
    4f94:	40000c00 	.word	0x40000c00

00004f98 <system_gclk_chan_get_hz>:
 *
 * \return The frequency of the generic clock channel, in Hz.
 */
uint32_t system_gclk_chan_get_hz(
		const uint8_t channel)
{
    4f98:	b510      	push	{r4, lr}
    4f9a:	1c04      	adds	r4, r0, #0
 * are only re-enabled upon leaving the outermost nested critical section.
 *
 */
static inline void system_interrupt_enter_critical_section(void)
{
	cpu_irq_enter_critical();
    4f9c:	4b06      	ldr	r3, [pc, #24]	; (4fb8 <system_gclk_chan_get_hz+0x20>)
    4f9e:	4798      	blx	r3
	uint8_t gen_id;

	system_interrupt_enter_critical_section();

	/* Select the requested generic clock channel */
	*((uint8_t*)&GCLK->CLKCTRL.reg) = channel;
    4fa0:	4b06      	ldr	r3, [pc, #24]	; (4fbc <system_gclk_chan_get_hz+0x24>)
    4fa2:	701c      	strb	r4, [r3, #0]
	gen_id = GCLK->CLKCTRL.bit.GEN;
    4fa4:	4b06      	ldr	r3, [pc, #24]	; (4fc0 <system_gclk_chan_get_hz+0x28>)
    4fa6:	885c      	ldrh	r4, [r3, #2]
    4fa8:	0524      	lsls	r4, r4, #20
    4faa:	0f24      	lsrs	r4, r4, #28
 * are only re-enabled upon leaving the outermost nested critical section.
 *
 */
static inline void system_interrupt_leave_critical_section(void)
{
	cpu_irq_leave_critical();
    4fac:	4b05      	ldr	r3, [pc, #20]	; (4fc4 <system_gclk_chan_get_hz+0x2c>)
    4fae:	4798      	blx	r3

	system_interrupt_leave_critical_section();

	/* Return the clock speed of the associated GCLK generator */
	return system_gclk_gen_get_hz(gen_id);
    4fb0:	1c20      	adds	r0, r4, #0
    4fb2:	4b05      	ldr	r3, [pc, #20]	; (4fc8 <system_gclk_chan_get_hz+0x30>)
    4fb4:	4798      	blx	r3
}
    4fb6:	bd10      	pop	{r4, pc}
    4fb8:	00004ffd 	.word	0x00004ffd
    4fbc:	40000c02 	.word	0x40000c02
    4fc0:	40000c00 	.word	0x40000c00
    4fc4:	00005039 	.word	0x00005039
    4fc8:	00004e65 	.word	0x00004e65

00004fcc <_system_dummy_init>:
 */
void _system_dummy_init(void);
void _system_dummy_init(void)
{
	return;
}
    4fcc:	4770      	bx	lr
    4fce:	46c0      	nop			; (mov r8, r8)

00004fd0 <system_init>:
 *  - Board hardware initialization (via the Board module)
 *  - Event system driver initialization (via the EVSYS module)
 *  - External Interrupt driver initialization (via the EXTINT module)
 */
void system_init(void)
{
    4fd0:	b508      	push	{r3, lr}
	/* Configure GCLK and clock sources according to conf_clocks.h */
	system_clock_init();
    4fd2:	4b05      	ldr	r3, [pc, #20]	; (4fe8 <system_init+0x18>)
    4fd4:	4798      	blx	r3

	/* Initialize board hardware */
	system_board_init();
    4fd6:	4b05      	ldr	r3, [pc, #20]	; (4fec <system_init+0x1c>)
    4fd8:	4798      	blx	r3

	/* Initialize EVSYS hardware */
	_system_events_init();
    4fda:	4b05      	ldr	r3, [pc, #20]	; (4ff0 <system_init+0x20>)
    4fdc:	4798      	blx	r3

	/* Initialize External hardware */
	_system_extint_init();
    4fde:	4b05      	ldr	r3, [pc, #20]	; (4ff4 <system_init+0x24>)
    4fe0:	4798      	blx	r3
	
	/* Initialize DIVAS hardware */
	_system_divas_init();
    4fe2:	4b05      	ldr	r3, [pc, #20]	; (4ff8 <system_init+0x28>)
    4fe4:	4798      	blx	r3
}
    4fe6:	bd08      	pop	{r3, pc}
    4fe8:	00004c05 	.word	0x00004c05
    4fec:	00004fcd 	.word	0x00004fcd
    4ff0:	00004fcd 	.word	0x00004fcd
    4ff4:	00004fcd 	.word	0x00004fcd
    4ff8:	00004fcd 	.word	0x00004fcd

00004ffc <cpu_irq_enter_critical>:
volatile bool g_interrupt_enabled = true;
#endif

void cpu_irq_enter_critical(void)
{
	if (cpu_irq_critical_section_counter == 0) {
    4ffc:	4b0c      	ldr	r3, [pc, #48]	; (5030 <cpu_irq_enter_critical+0x34>)
    4ffe:	681b      	ldr	r3, [r3, #0]
    5000:	2b00      	cmp	r3, #0
    5002:	d110      	bne.n	5026 <cpu_irq_enter_critical+0x2a>
 */
__attribute__( ( always_inline ) ) __STATIC_INLINE uint32_t __get_PRIMASK(void)
{
  uint32_t result;

  __ASM volatile ("MRS %0, primask" : "=r" (result) );
    5004:	f3ef 8310 	mrs	r3, PRIMASK
		if (cpu_irq_is_enabled()) {
    5008:	2b00      	cmp	r3, #0
    500a:	d109      	bne.n	5020 <cpu_irq_enter_critical+0x24>
  This function disables IRQ interrupts by setting the I-bit in the CPSR.
  Can only be executed in Privileged modes.
 */
__attribute__( ( always_inline ) ) __STATIC_INLINE void __disable_irq(void)
{
  __ASM volatile ("cpsid i" : : : "memory");
    500c:	b672      	cpsid	i
    500e:	f3bf 8f5f 	dmb	sy
			cpu_irq_disable();
    5012:	2200      	movs	r2, #0
    5014:	4b07      	ldr	r3, [pc, #28]	; (5034 <cpu_irq_enter_critical+0x38>)
    5016:	701a      	strb	r2, [r3, #0]
			cpu_irq_prev_interrupt_state = true;
    5018:	2201      	movs	r2, #1
    501a:	4b05      	ldr	r3, [pc, #20]	; (5030 <cpu_irq_enter_critical+0x34>)
    501c:	711a      	strb	r2, [r3, #4]
    501e:	e002      	b.n	5026 <cpu_irq_enter_critical+0x2a>
		} else {
			/* Make sure the to save the prev state as false */
			cpu_irq_prev_interrupt_state = false;
    5020:	2200      	movs	r2, #0
    5022:	4b03      	ldr	r3, [pc, #12]	; (5030 <cpu_irq_enter_critical+0x34>)
    5024:	711a      	strb	r2, [r3, #4]
		}

	}

	cpu_irq_critical_section_counter++;
    5026:	4b02      	ldr	r3, [pc, #8]	; (5030 <cpu_irq_enter_critical+0x34>)
    5028:	681a      	ldr	r2, [r3, #0]
    502a:	3201      	adds	r2, #1
    502c:	601a      	str	r2, [r3, #0]
}
    502e:	4770      	bx	lr
    5030:	2000167c 	.word	0x2000167c
    5034:	20000018 	.word	0x20000018

00005038 <cpu_irq_leave_critical>:
void cpu_irq_leave_critical(void)
{
	/* Check if the user is trying to leave a critical section when not in a critical section */
	Assert(cpu_irq_critical_section_counter > 0);

	cpu_irq_critical_section_counter--;
    5038:	4b08      	ldr	r3, [pc, #32]	; (505c <cpu_irq_leave_critical+0x24>)
    503a:	681a      	ldr	r2, [r3, #0]
    503c:	3a01      	subs	r2, #1
    503e:	601a      	str	r2, [r3, #0]

	/* Only enable global interrupts when the counter reaches 0 and the state of the global interrupt flag
	   was enabled when entering critical state */
	if ((cpu_irq_critical_section_counter == 0) && (cpu_irq_prev_interrupt_state)) {
    5040:	681b      	ldr	r3, [r3, #0]
    5042:	2b00      	cmp	r3, #0
    5044:	d109      	bne.n	505a <cpu_irq_leave_critical+0x22>
    5046:	4b05      	ldr	r3, [pc, #20]	; (505c <cpu_irq_leave_critical+0x24>)
    5048:	791b      	ldrb	r3, [r3, #4]
    504a:	2b00      	cmp	r3, #0
    504c:	d005      	beq.n	505a <cpu_irq_leave_critical+0x22>
		cpu_irq_enable();
    504e:	2201      	movs	r2, #1
    5050:	4b03      	ldr	r3, [pc, #12]	; (5060 <cpu_irq_leave_critical+0x28>)
    5052:	701a      	strb	r2, [r3, #0]
    5054:	f3bf 8f5f 	dmb	sy
  This function enables IRQ interrupts by clearing the I-bit in the CPSR.
  Can only be executed in Privileged modes.
 */
__attribute__( ( always_inline ) ) __STATIC_INLINE void __enable_irq(void)
{
  __ASM volatile ("cpsie i" : : : "memory");
    5058:	b662      	cpsie	i
	}
}
    505a:	4770      	bx	lr
    505c:	2000167c 	.word	0x2000167c
    5060:	20000018 	.word	0x20000018

00005064 <port_pin_set_config>:
 *  \param[in] config    Configuration settings for the pin
 */
void port_pin_set_config(
		const uint8_t gpio_pin,
		const struct port_config *const config)
{
    5064:	b500      	push	{lr}
    5066:	b083      	sub	sp, #12
{
	/* Sanity check arguments */
	Assert(config);

	/* Default configuration values */
	config->mux_position = SYSTEM_PINMUX_GPIO;
    5068:	ab01      	add	r3, sp, #4
    506a:	2280      	movs	r2, #128	; 0x80
    506c:	701a      	strb	r2, [r3, #0]

	struct system_pinmux_config pinmux_config;
	system_pinmux_get_config_defaults(&pinmux_config);

	pinmux_config.mux_position = SYSTEM_PINMUX_GPIO;
	pinmux_config.direction    = (enum system_pinmux_pin_dir)config->direction;
    506e:	780a      	ldrb	r2, [r1, #0]
    5070:	705a      	strb	r2, [r3, #1]
	pinmux_config.input_pull   = (enum system_pinmux_pin_pull)config->input_pull;
    5072:	784a      	ldrb	r2, [r1, #1]
    5074:	709a      	strb	r2, [r3, #2]
	pinmux_config.powersave    = config->powersave;
    5076:	788a      	ldrb	r2, [r1, #2]
    5078:	70da      	strb	r2, [r3, #3]

	system_pinmux_pin_set_config(gpio_pin, &pinmux_config);
    507a:	1c19      	adds	r1, r3, #0
    507c:	4b01      	ldr	r3, [pc, #4]	; (5084 <port_pin_set_config+0x20>)
    507e:	4798      	blx	r3
}
    5080:	b003      	add	sp, #12
    5082:	bd00      	pop	{pc}
    5084:	00005115 	.word	0x00005115

00005088 <_system_pinmux_config>:
 */
static void _system_pinmux_config(
		PortGroup *const port,
		const uint32_t pin_mask,
		const struct system_pinmux_config *const config)
{
    5088:	b530      	push	{r4, r5, lr}

	/* Track the configuration bits into a temporary variable before writing */
	uint32_t pin_cfg = 0;

	/* Enabled powersave mode, don't create configuration */
	if (!config->powersave) {
    508a:	78d3      	ldrb	r3, [r2, #3]
    508c:	2b00      	cmp	r3, #0
    508e:	d11e      	bne.n	50ce <_system_pinmux_config+0x46>
		/* Enable the pin peripheral MUX flag if non-GPIO selected (pinmux will
		 * be written later) and store the new MUX mask */
		if (config->mux_position != SYSTEM_PINMUX_GPIO) {
    5090:	7813      	ldrb	r3, [r2, #0]
    5092:	2b80      	cmp	r3, #128	; 0x80
    5094:	d004      	beq.n	50a0 <_system_pinmux_config+0x18>
			pin_cfg |= PORT_WRCONFIG_PMUXEN;
			pin_cfg |= (config->mux_position << PORT_WRCONFIG_PMUX_Pos);
    5096:	061b      	lsls	r3, r3, #24
    5098:	2480      	movs	r4, #128	; 0x80
    509a:	0264      	lsls	r4, r4, #9
    509c:	4323      	orrs	r3, r4
    509e:	e000      	b.n	50a2 <_system_pinmux_config+0x1a>
{
	Assert(port);
	Assert(config);

	/* Track the configuration bits into a temporary variable before writing */
	uint32_t pin_cfg = 0;
    50a0:	2300      	movs	r3, #0
			pin_cfg |= PORT_WRCONFIG_PMUXEN;
			pin_cfg |= (config->mux_position << PORT_WRCONFIG_PMUX_Pos);
		}

		/* Check if the user has requested that the input buffer be enabled */
		if ((config->direction == SYSTEM_PINMUX_PIN_DIR_INPUT) ||
    50a2:	7854      	ldrb	r4, [r2, #1]
    50a4:	2502      	movs	r5, #2
    50a6:	43ac      	bics	r4, r5
    50a8:	d10a      	bne.n	50c0 <_system_pinmux_config+0x38>
				(config->direction == SYSTEM_PINMUX_PIN_DIR_OUTPUT_WITH_READBACK)) {
			/* Enable input buffer flag */
			pin_cfg |= PORT_WRCONFIG_INEN;

			/* Enable pull-up/pull-down control flag if requested */
			if (config->input_pull != SYSTEM_PINMUX_PIN_PULL_NONE) {
    50aa:	7894      	ldrb	r4, [r2, #2]
    50ac:	2c00      	cmp	r4, #0
    50ae:	d103      	bne.n	50b8 <_system_pinmux_config+0x30>

		/* Check if the user has requested that the input buffer be enabled */
		if ((config->direction == SYSTEM_PINMUX_PIN_DIR_INPUT) ||
				(config->direction == SYSTEM_PINMUX_PIN_DIR_OUTPUT_WITH_READBACK)) {
			/* Enable input buffer flag */
			pin_cfg |= PORT_WRCONFIG_INEN;
    50b0:	2480      	movs	r4, #128	; 0x80
    50b2:	02a4      	lsls	r4, r4, #10
    50b4:	4323      	orrs	r3, r4
    50b6:	e002      	b.n	50be <_system_pinmux_config+0x36>

			/* Enable pull-up/pull-down control flag if requested */
			if (config->input_pull != SYSTEM_PINMUX_PIN_PULL_NONE) {
				pin_cfg |= PORT_WRCONFIG_PULLEN;
    50b8:	24c0      	movs	r4, #192	; 0xc0
    50ba:	02e4      	lsls	r4, r4, #11
    50bc:	4323      	orrs	r3, r4
			}

			/* Clear the port DIR bits to disable the output buffer */
			port->DIRCLR.reg = pin_mask;
    50be:	6041      	str	r1, [r0, #4]
		}

		/* Check if the user has requested that the output buffer be enabled */
		if ((config->direction == SYSTEM_PINMUX_PIN_DIR_OUTPUT) ||
    50c0:	7854      	ldrb	r4, [r2, #1]
    50c2:	3c01      	subs	r4, #1
    50c4:	2c01      	cmp	r4, #1
    50c6:	d804      	bhi.n	50d2 <_system_pinmux_config+0x4a>
				(config->direction == SYSTEM_PINMUX_PIN_DIR_OUTPUT_WITH_READBACK)) {
			/* Cannot use a pull-up if the output driver is enabled,
			 * if requested the input buffer can only sample the current
			 * output state */
			pin_cfg &= ~PORT_WRCONFIG_PULLEN;
    50c8:	4c11      	ldr	r4, [pc, #68]	; (5110 <_system_pinmux_config+0x88>)
    50ca:	4023      	ands	r3, r4
    50cc:	e001      	b.n	50d2 <_system_pinmux_config+0x4a>
		}
	} else {
		port->DIRCLR.reg = pin_mask;
    50ce:	6041      	str	r1, [r0, #4]
{
	Assert(port);
	Assert(config);

	/* Track the configuration bits into a temporary variable before writing */
	uint32_t pin_cfg = 0;
    50d0:	2300      	movs	r3, #0
		port->DIRCLR.reg = pin_mask;
	}

	/* The Write Configuration register (WRCONFIG) requires the
	 * pins to to grouped into two 16-bit half-words - split them out here */
	uint32_t lower_pin_mask = (pin_mask & 0xFFFF);
    50d2:	040d      	lsls	r5, r1, #16
    50d4:	0c2d      	lsrs	r5, r5, #16
	uint32_t upper_pin_mask = (pin_mask >> 16);

	/* Configure the lower 16-bits of the port to the desired configuration,
	 * including the pin peripheral multiplexer just in case it is enabled */
	port->WRCONFIG.reg
		= (lower_pin_mask << PORT_WRCONFIG_PINMASK_Pos) |
    50d6:	24a0      	movs	r4, #160	; 0xa0
    50d8:	05e4      	lsls	r4, r4, #23
    50da:	432c      	orrs	r4, r5
			pin_cfg | PORT_WRCONFIG_WRPMUX | PORT_WRCONFIG_WRPINCFG;
    50dc:	431c      	orrs	r4, r3
	uint32_t upper_pin_mask = (pin_mask >> 16);

	/* Configure the lower 16-bits of the port to the desired configuration,
	 * including the pin peripheral multiplexer just in case it is enabled */
	port->WRCONFIG.reg
		= (lower_pin_mask << PORT_WRCONFIG_PINMASK_Pos) |
    50de:	6284      	str	r4, [r0, #40]	; 0x28
	}

	/* The Write Configuration register (WRCONFIG) requires the
	 * pins to to grouped into two 16-bit half-words - split them out here */
	uint32_t lower_pin_mask = (pin_mask & 0xFFFF);
	uint32_t upper_pin_mask = (pin_mask >> 16);
    50e0:	0c0d      	lsrs	r5, r1, #16
			pin_cfg | PORT_WRCONFIG_WRPMUX | PORT_WRCONFIG_WRPINCFG;

	/* Configure the upper 16-bits of the port to the desired configuration,
	 * including the pin peripheral multiplexer just in case it is enabled */
	port->WRCONFIG.reg
		= (upper_pin_mask << PORT_WRCONFIG_PINMASK_Pos) |
    50e2:	24d0      	movs	r4, #208	; 0xd0
    50e4:	0624      	lsls	r4, r4, #24
    50e6:	432c      	orrs	r4, r5
			pin_cfg | PORT_WRCONFIG_WRPMUX | PORT_WRCONFIG_WRPINCFG |
    50e8:	431c      	orrs	r4, r3
			pin_cfg | PORT_WRCONFIG_WRPMUX | PORT_WRCONFIG_WRPINCFG;

	/* Configure the upper 16-bits of the port to the desired configuration,
	 * including the pin peripheral multiplexer just in case it is enabled */
	port->WRCONFIG.reg
		= (upper_pin_mask << PORT_WRCONFIG_PINMASK_Pos) |
    50ea:	6284      	str	r4, [r0, #40]	; 0x28
			pin_cfg | PORT_WRCONFIG_WRPMUX | PORT_WRCONFIG_WRPINCFG |
			PORT_WRCONFIG_HWSEL;

	if(!config->powersave) {
    50ec:	78d4      	ldrb	r4, [r2, #3]
    50ee:	2c00      	cmp	r4, #0
    50f0:	d10c      	bne.n	510c <_system_pinmux_config+0x84>
		/* Set the pull-up state once the port pins are configured if one was
		 * requested and it does not violate the valid set of port
		 * configurations */
		if (pin_cfg & PORT_WRCONFIG_PULLEN) {
    50f2:	035c      	lsls	r4, r3, #13
    50f4:	d505      	bpl.n	5102 <_system_pinmux_config+0x7a>
			/* Set the OUT register bits to enable the pull-up if requested,
			 * clear to enable pull-down */
			if (config->input_pull == SYSTEM_PINMUX_PIN_PULL_UP) {
    50f6:	7893      	ldrb	r3, [r2, #2]
    50f8:	2b01      	cmp	r3, #1
    50fa:	d101      	bne.n	5100 <_system_pinmux_config+0x78>
				port->OUTSET.reg = pin_mask;
    50fc:	6181      	str	r1, [r0, #24]
    50fe:	e000      	b.n	5102 <_system_pinmux_config+0x7a>
			} else {
				port->OUTCLR.reg = pin_mask;
    5100:	6141      	str	r1, [r0, #20]
			}
		}

		/* Check if the user has requested that the output buffer be enabled */
		if ((config->direction == SYSTEM_PINMUX_PIN_DIR_OUTPUT) ||
    5102:	7853      	ldrb	r3, [r2, #1]
    5104:	3b01      	subs	r3, #1
    5106:	2b01      	cmp	r3, #1
    5108:	d800      	bhi.n	510c <_system_pinmux_config+0x84>
				(config->direction == SYSTEM_PINMUX_PIN_DIR_OUTPUT_WITH_READBACK)) {
			/* Set the port DIR bits to enable the output buffer */
			port->DIRSET.reg = pin_mask;
    510a:	6081      	str	r1, [r0, #8]
		}
	}
}
    510c:	bd30      	pop	{r4, r5, pc}
    510e:	46c0      	nop			; (mov r8, r8)
    5110:	fffbffff 	.word	0xfffbffff

00005114 <system_pinmux_pin_set_config>:
 * \param[in] config    Configuration settings for the pin
 */
void system_pinmux_pin_set_config(
		const uint8_t gpio_pin,
		const struct system_pinmux_config *const config)
{
    5114:	b508      	push	{r3, lr}
    5116:	1c03      	adds	r3, r0, #0
    5118:	1c0a      	adds	r2, r1, #0
	uint8_t group_index = (gpio_pin / 32);

	/* Array of available ports */
	Port *const ports[PORT_INST_NUM] = PORT_INSTS;

	if (port_index < PORT_INST_NUM) {
    511a:	09c1      	lsrs	r1, r0, #7
		return &(ports[port_index]->Group[group_index]);
	} else {
		Assert(false);
		return NULL;
    511c:	2000      	movs	r0, #0
	uint8_t group_index = (gpio_pin / 32);

	/* Array of available ports */
	Port *const ports[PORT_INST_NUM] = PORT_INSTS;

	if (port_index < PORT_INST_NUM) {
    511e:	2900      	cmp	r1, #0
    5120:	d103      	bne.n	512a <system_pinmux_pin_set_config+0x16>
		return &(ports[port_index]->Group[group_index]);
    5122:	0958      	lsrs	r0, r3, #5
    5124:	01c0      	lsls	r0, r0, #7
    5126:	4904      	ldr	r1, [pc, #16]	; (5138 <system_pinmux_pin_set_config+0x24>)
    5128:	1840      	adds	r0, r0, r1
	PortGroup *const port = system_pinmux_get_group_from_gpio_pin(gpio_pin);
	uint32_t pin_mask = (1UL << (gpio_pin % 32));
    512a:	211f      	movs	r1, #31
    512c:	400b      	ands	r3, r1
    512e:	2101      	movs	r1, #1
    5130:	4099      	lsls	r1, r3

	_system_pinmux_config(port, pin_mask, config);
    5132:	4b02      	ldr	r3, [pc, #8]	; (513c <system_pinmux_pin_set_config+0x28>)
    5134:	4798      	blx	r3
}
    5136:	bd08      	pop	{r3, pc}
    5138:	41004400 	.word	0x41004400
    513c:	00005089 	.word	0x00005089

00005140 <__aeabi_uidiv>:
    5140:	2900      	cmp	r1, #0
    5142:	d034      	beq.n	51ae <.udivsi3_skip_div0_test+0x6a>

00005144 <.udivsi3_skip_div0_test>:
    5144:	2301      	movs	r3, #1
    5146:	2200      	movs	r2, #0
    5148:	b410      	push	{r4}
    514a:	4288      	cmp	r0, r1
    514c:	d32c      	bcc.n	51a8 <.udivsi3_skip_div0_test+0x64>
    514e:	2401      	movs	r4, #1
    5150:	0724      	lsls	r4, r4, #28
    5152:	42a1      	cmp	r1, r4
    5154:	d204      	bcs.n	5160 <.udivsi3_skip_div0_test+0x1c>
    5156:	4281      	cmp	r1, r0
    5158:	d202      	bcs.n	5160 <.udivsi3_skip_div0_test+0x1c>
    515a:	0109      	lsls	r1, r1, #4
    515c:	011b      	lsls	r3, r3, #4
    515e:	e7f8      	b.n	5152 <.udivsi3_skip_div0_test+0xe>
    5160:	00e4      	lsls	r4, r4, #3
    5162:	42a1      	cmp	r1, r4
    5164:	d204      	bcs.n	5170 <.udivsi3_skip_div0_test+0x2c>
    5166:	4281      	cmp	r1, r0
    5168:	d202      	bcs.n	5170 <.udivsi3_skip_div0_test+0x2c>
    516a:	0049      	lsls	r1, r1, #1
    516c:	005b      	lsls	r3, r3, #1
    516e:	e7f8      	b.n	5162 <.udivsi3_skip_div0_test+0x1e>
    5170:	4288      	cmp	r0, r1
    5172:	d301      	bcc.n	5178 <.udivsi3_skip_div0_test+0x34>
    5174:	1a40      	subs	r0, r0, r1
    5176:	431a      	orrs	r2, r3
    5178:	084c      	lsrs	r4, r1, #1
    517a:	42a0      	cmp	r0, r4
    517c:	d302      	bcc.n	5184 <.udivsi3_skip_div0_test+0x40>
    517e:	1b00      	subs	r0, r0, r4
    5180:	085c      	lsrs	r4, r3, #1
    5182:	4322      	orrs	r2, r4
    5184:	088c      	lsrs	r4, r1, #2
    5186:	42a0      	cmp	r0, r4
    5188:	d302      	bcc.n	5190 <.udivsi3_skip_div0_test+0x4c>
    518a:	1b00      	subs	r0, r0, r4
    518c:	089c      	lsrs	r4, r3, #2
    518e:	4322      	orrs	r2, r4
    5190:	08cc      	lsrs	r4, r1, #3
    5192:	42a0      	cmp	r0, r4
    5194:	d302      	bcc.n	519c <.udivsi3_skip_div0_test+0x58>
    5196:	1b00      	subs	r0, r0, r4
    5198:	08dc      	lsrs	r4, r3, #3
    519a:	4322      	orrs	r2, r4
    519c:	2800      	cmp	r0, #0
    519e:	d003      	beq.n	51a8 <.udivsi3_skip_div0_test+0x64>
    51a0:	091b      	lsrs	r3, r3, #4
    51a2:	d001      	beq.n	51a8 <.udivsi3_skip_div0_test+0x64>
    51a4:	0909      	lsrs	r1, r1, #4
    51a6:	e7e3      	b.n	5170 <.udivsi3_skip_div0_test+0x2c>
    51a8:	1c10      	adds	r0, r2, #0
    51aa:	bc10      	pop	{r4}
    51ac:	4770      	bx	lr
    51ae:	2800      	cmp	r0, #0
    51b0:	d001      	beq.n	51b6 <.udivsi3_skip_div0_test+0x72>
    51b2:	2000      	movs	r0, #0
    51b4:	43c0      	mvns	r0, r0
    51b6:	b407      	push	{r0, r1, r2}
    51b8:	4802      	ldr	r0, [pc, #8]	; (51c4 <.udivsi3_skip_div0_test+0x80>)
    51ba:	a102      	add	r1, pc, #8	; (adr r1, 51c4 <.udivsi3_skip_div0_test+0x80>)
    51bc:	1840      	adds	r0, r0, r1
    51be:	9002      	str	r0, [sp, #8]
    51c0:	bd03      	pop	{r0, r1, pc}
    51c2:	46c0      	nop			; (mov r8, r8)
    51c4:	00000019 	.word	0x00000019

000051c8 <__aeabi_uidivmod>:
    51c8:	2900      	cmp	r1, #0
    51ca:	d0f0      	beq.n	51ae <.udivsi3_skip_div0_test+0x6a>
    51cc:	b503      	push	{r0, r1, lr}
    51ce:	f7ff ffb9 	bl	5144 <.udivsi3_skip_div0_test>
    51d2:	bc0e      	pop	{r1, r2, r3}
    51d4:	4342      	muls	r2, r0
    51d6:	1a89      	subs	r1, r1, r2
    51d8:	4718      	bx	r3
    51da:	46c0      	nop			; (mov r8, r8)

000051dc <__aeabi_idiv0>:
    51dc:	4770      	bx	lr
    51de:	46c0      	nop			; (mov r8, r8)

000051e0 <__aeabi_lmul>:
    51e0:	469c      	mov	ip, r3
    51e2:	0403      	lsls	r3, r0, #16
    51e4:	b5f0      	push	{r4, r5, r6, r7, lr}
    51e6:	0c1b      	lsrs	r3, r3, #16
    51e8:	0417      	lsls	r7, r2, #16
    51ea:	0c3f      	lsrs	r7, r7, #16
    51ec:	0c15      	lsrs	r5, r2, #16
    51ee:	1c1e      	adds	r6, r3, #0
    51f0:	1c04      	adds	r4, r0, #0
    51f2:	0c00      	lsrs	r0, r0, #16
    51f4:	437e      	muls	r6, r7
    51f6:	436b      	muls	r3, r5
    51f8:	4347      	muls	r7, r0
    51fa:	4345      	muls	r5, r0
    51fc:	18fb      	adds	r3, r7, r3
    51fe:	0c30      	lsrs	r0, r6, #16
    5200:	1818      	adds	r0, r3, r0
    5202:	4287      	cmp	r7, r0
    5204:	d902      	bls.n	520c <__aeabi_lmul+0x2c>
    5206:	2380      	movs	r3, #128	; 0x80
    5208:	025b      	lsls	r3, r3, #9
    520a:	18ed      	adds	r5, r5, r3
    520c:	0c03      	lsrs	r3, r0, #16
    520e:	18ed      	adds	r5, r5, r3
    5210:	4663      	mov	r3, ip
    5212:	435c      	muls	r4, r3
    5214:	434a      	muls	r2, r1
    5216:	0436      	lsls	r6, r6, #16
    5218:	0c36      	lsrs	r6, r6, #16
    521a:	18a1      	adds	r1, r4, r2
    521c:	0400      	lsls	r0, r0, #16
    521e:	1980      	adds	r0, r0, r6
    5220:	1949      	adds	r1, r1, r5
    5222:	bdf0      	pop	{r4, r5, r6, r7, pc}

00005224 <__aeabi_d2f>:
    5224:	b5f0      	push	{r4, r5, r6, r7, lr}
    5226:	004b      	lsls	r3, r1, #1
    5228:	030d      	lsls	r5, r1, #12
    522a:	0f42      	lsrs	r2, r0, #29
    522c:	0d5b      	lsrs	r3, r3, #21
    522e:	0a6d      	lsrs	r5, r5, #9
    5230:	4315      	orrs	r5, r2
    5232:	1c5a      	adds	r2, r3, #1
    5234:	0552      	lsls	r2, r2, #21
    5236:	0fcc      	lsrs	r4, r1, #31
    5238:	00c6      	lsls	r6, r0, #3
    523a:	0d52      	lsrs	r2, r2, #21
    523c:	2a01      	cmp	r2, #1
    523e:	dd27      	ble.n	5290 <__aeabi_d2f+0x6c>
    5240:	4f39      	ldr	r7, [pc, #228]	; (5328 <__aeabi_d2f+0x104>)
    5242:	19da      	adds	r2, r3, r7
    5244:	2afe      	cmp	r2, #254	; 0xfe
    5246:	dc1a      	bgt.n	527e <__aeabi_d2f+0x5a>
    5248:	2a00      	cmp	r2, #0
    524a:	dd35      	ble.n	52b8 <__aeabi_d2f+0x94>
    524c:	0180      	lsls	r0, r0, #6
    524e:	00ed      	lsls	r5, r5, #3
    5250:	1e43      	subs	r3, r0, #1
    5252:	4198      	sbcs	r0, r3
    5254:	4328      	orrs	r0, r5
    5256:	0f76      	lsrs	r6, r6, #29
    5258:	4330      	orrs	r0, r6
    525a:	0743      	lsls	r3, r0, #29
    525c:	d004      	beq.n	5268 <__aeabi_d2f+0x44>
    525e:	230f      	movs	r3, #15
    5260:	4003      	ands	r3, r0
    5262:	2b04      	cmp	r3, #4
    5264:	d000      	beq.n	5268 <__aeabi_d2f+0x44>
    5266:	3004      	adds	r0, #4
    5268:	2180      	movs	r1, #128	; 0x80
    526a:	04c9      	lsls	r1, r1, #19
    526c:	4001      	ands	r1, r0
    526e:	d027      	beq.n	52c0 <__aeabi_d2f+0x9c>
    5270:	3201      	adds	r2, #1
    5272:	2aff      	cmp	r2, #255	; 0xff
    5274:	d01d      	beq.n	52b2 <__aeabi_d2f+0x8e>
    5276:	0183      	lsls	r3, r0, #6
    5278:	0a5b      	lsrs	r3, r3, #9
    527a:	b2d1      	uxtb	r1, r2
    527c:	e001      	b.n	5282 <__aeabi_d2f+0x5e>
    527e:	21ff      	movs	r1, #255	; 0xff
    5280:	2300      	movs	r3, #0
    5282:	0258      	lsls	r0, r3, #9
    5284:	05c9      	lsls	r1, r1, #23
    5286:	0a40      	lsrs	r0, r0, #9
    5288:	07e4      	lsls	r4, r4, #31
    528a:	4308      	orrs	r0, r1
    528c:	4320      	orrs	r0, r4
    528e:	bdf0      	pop	{r4, r5, r6, r7, pc}
    5290:	2b00      	cmp	r3, #0
    5292:	d106      	bne.n	52a2 <__aeabi_d2f+0x7e>
    5294:	4335      	orrs	r5, r6
    5296:	d111      	bne.n	52bc <__aeabi_d2f+0x98>
    5298:	2100      	movs	r1, #0
    529a:	2000      	movs	r0, #0
    529c:	0243      	lsls	r3, r0, #9
    529e:	0a5b      	lsrs	r3, r3, #9
    52a0:	e7ef      	b.n	5282 <__aeabi_d2f+0x5e>
    52a2:	432e      	orrs	r6, r5
    52a4:	d0eb      	beq.n	527e <__aeabi_d2f+0x5a>
    52a6:	2080      	movs	r0, #128	; 0x80
    52a8:	00ed      	lsls	r5, r5, #3
    52aa:	0480      	lsls	r0, r0, #18
    52ac:	4328      	orrs	r0, r5
    52ae:	22ff      	movs	r2, #255	; 0xff
    52b0:	e7d3      	b.n	525a <__aeabi_d2f+0x36>
    52b2:	21ff      	movs	r1, #255	; 0xff
    52b4:	2300      	movs	r3, #0
    52b6:	e7e4      	b.n	5282 <__aeabi_d2f+0x5e>
    52b8:	3217      	adds	r2, #23
    52ba:	da0d      	bge.n	52d8 <__aeabi_d2f+0xb4>
    52bc:	2005      	movs	r0, #5
    52be:	2200      	movs	r2, #0
    52c0:	08c0      	lsrs	r0, r0, #3
    52c2:	b2d1      	uxtb	r1, r2
    52c4:	2aff      	cmp	r2, #255	; 0xff
    52c6:	d1e9      	bne.n	529c <__aeabi_d2f+0x78>
    52c8:	2800      	cmp	r0, #0
    52ca:	d0d9      	beq.n	5280 <__aeabi_d2f+0x5c>
    52cc:	2380      	movs	r3, #128	; 0x80
    52ce:	03db      	lsls	r3, r3, #15
    52d0:	4303      	orrs	r3, r0
    52d2:	025b      	lsls	r3, r3, #9
    52d4:	0a5b      	lsrs	r3, r3, #9
    52d6:	e7d4      	b.n	5282 <__aeabi_d2f+0x5e>
    52d8:	2280      	movs	r2, #128	; 0x80
    52da:	4914      	ldr	r1, [pc, #80]	; (532c <__aeabi_d2f+0x108>)
    52dc:	0412      	lsls	r2, r2, #16
    52de:	4315      	orrs	r5, r2
    52e0:	1ac9      	subs	r1, r1, r3
    52e2:	291f      	cmp	r1, #31
    52e4:	dc0d      	bgt.n	5302 <__aeabi_d2f+0xde>
    52e6:	4a12      	ldr	r2, [pc, #72]	; (5330 <__aeabi_d2f+0x10c>)
    52e8:	1c37      	adds	r7, r6, #0
    52ea:	189b      	adds	r3, r3, r2
    52ec:	1c28      	adds	r0, r5, #0
    52ee:	409f      	lsls	r7, r3
    52f0:	4098      	lsls	r0, r3
    52f2:	1c3b      	adds	r3, r7, #0
    52f4:	1e5a      	subs	r2, r3, #1
    52f6:	4193      	sbcs	r3, r2
    52f8:	4318      	orrs	r0, r3
    52fa:	40ce      	lsrs	r6, r1
    52fc:	4330      	orrs	r0, r6
    52fe:	2200      	movs	r2, #0
    5300:	e7ab      	b.n	525a <__aeabi_d2f+0x36>
    5302:	4f0c      	ldr	r7, [pc, #48]	; (5334 <__aeabi_d2f+0x110>)
    5304:	1c2a      	adds	r2, r5, #0
    5306:	1aff      	subs	r7, r7, r3
    5308:	40fa      	lsrs	r2, r7
    530a:	1c17      	adds	r7, r2, #0
    530c:	2920      	cmp	r1, #32
    530e:	d009      	beq.n	5324 <__aeabi_d2f+0x100>
    5310:	4a09      	ldr	r2, [pc, #36]	; (5338 <__aeabi_d2f+0x114>)
    5312:	1898      	adds	r0, r3, r2
    5314:	4085      	lsls	r5, r0
    5316:	1c28      	adds	r0, r5, #0
    5318:	4330      	orrs	r0, r6
    531a:	1e46      	subs	r6, r0, #1
    531c:	41b0      	sbcs	r0, r6
    531e:	4338      	orrs	r0, r7
    5320:	2200      	movs	r2, #0
    5322:	e79a      	b.n	525a <__aeabi_d2f+0x36>
    5324:	2000      	movs	r0, #0
    5326:	e7f7      	b.n	5318 <__aeabi_d2f+0xf4>
    5328:	fffffc80 	.word	0xfffffc80
    532c:	0000039e 	.word	0x0000039e
    5330:	fffffc82 	.word	0xfffffc82
    5334:	0000037e 	.word	0x0000037e
    5338:	fffffca2 	.word	0xfffffca2

0000533c <__libc_init_array>:
    533c:	b570      	push	{r4, r5, r6, lr}
    533e:	4e0d      	ldr	r6, [pc, #52]	; (5374 <__libc_init_array+0x38>)
    5340:	4d0d      	ldr	r5, [pc, #52]	; (5378 <__libc_init_array+0x3c>)
    5342:	2400      	movs	r4, #0
    5344:	1bad      	subs	r5, r5, r6
    5346:	10ad      	asrs	r5, r5, #2
    5348:	d005      	beq.n	5356 <__libc_init_array+0x1a>
    534a:	00a3      	lsls	r3, r4, #2
    534c:	58f3      	ldr	r3, [r6, r3]
    534e:	3401      	adds	r4, #1
    5350:	4798      	blx	r3
    5352:	42a5      	cmp	r5, r4
    5354:	d1f9      	bne.n	534a <__libc_init_array+0xe>
    5356:	f001 fc07 	bl	6b68 <_init>
    535a:	4e08      	ldr	r6, [pc, #32]	; (537c <__libc_init_array+0x40>)
    535c:	4d08      	ldr	r5, [pc, #32]	; (5380 <__libc_init_array+0x44>)
    535e:	2400      	movs	r4, #0
    5360:	1bad      	subs	r5, r5, r6
    5362:	10ad      	asrs	r5, r5, #2
    5364:	d005      	beq.n	5372 <__libc_init_array+0x36>
    5366:	00a3      	lsls	r3, r4, #2
    5368:	58f3      	ldr	r3, [r6, r3]
    536a:	3401      	adds	r4, #1
    536c:	4798      	blx	r3
    536e:	42a5      	cmp	r5, r4
    5370:	d1f9      	bne.n	5366 <__libc_init_array+0x2a>
    5372:	bd70      	pop	{r4, r5, r6, pc}
    5374:	00006b74 	.word	0x00006b74
    5378:	00006b74 	.word	0x00006b74
    537c:	00006b74 	.word	0x00006b74
    5380:	00006b7c 	.word	0x00006b7c

00005384 <memcpy>:
    5384:	b5f0      	push	{r4, r5, r6, r7, lr}
    5386:	2a0f      	cmp	r2, #15
    5388:	d935      	bls.n	53f6 <memcpy+0x72>
    538a:	1c03      	adds	r3, r0, #0
    538c:	430b      	orrs	r3, r1
    538e:	079c      	lsls	r4, r3, #30
    5390:	d135      	bne.n	53fe <memcpy+0x7a>
    5392:	1c16      	adds	r6, r2, #0
    5394:	3e10      	subs	r6, #16
    5396:	0936      	lsrs	r6, r6, #4
    5398:	0135      	lsls	r5, r6, #4
    539a:	1945      	adds	r5, r0, r5
    539c:	3510      	adds	r5, #16
    539e:	1c0c      	adds	r4, r1, #0
    53a0:	1c03      	adds	r3, r0, #0
    53a2:	6827      	ldr	r7, [r4, #0]
    53a4:	601f      	str	r7, [r3, #0]
    53a6:	6867      	ldr	r7, [r4, #4]
    53a8:	605f      	str	r7, [r3, #4]
    53aa:	68a7      	ldr	r7, [r4, #8]
    53ac:	609f      	str	r7, [r3, #8]
    53ae:	68e7      	ldr	r7, [r4, #12]
    53b0:	3410      	adds	r4, #16
    53b2:	60df      	str	r7, [r3, #12]
    53b4:	3310      	adds	r3, #16
    53b6:	42ab      	cmp	r3, r5
    53b8:	d1f3      	bne.n	53a2 <memcpy+0x1e>
    53ba:	1c73      	adds	r3, r6, #1
    53bc:	011b      	lsls	r3, r3, #4
    53be:	18c5      	adds	r5, r0, r3
    53c0:	18c9      	adds	r1, r1, r3
    53c2:	230f      	movs	r3, #15
    53c4:	4013      	ands	r3, r2
    53c6:	2b03      	cmp	r3, #3
    53c8:	d91b      	bls.n	5402 <memcpy+0x7e>
    53ca:	1f1c      	subs	r4, r3, #4
    53cc:	08a4      	lsrs	r4, r4, #2
    53ce:	3401      	adds	r4, #1
    53d0:	00a4      	lsls	r4, r4, #2
    53d2:	2300      	movs	r3, #0
    53d4:	58ce      	ldr	r6, [r1, r3]
    53d6:	50ee      	str	r6, [r5, r3]
    53d8:	3304      	adds	r3, #4
    53da:	42a3      	cmp	r3, r4
    53dc:	d1fa      	bne.n	53d4 <memcpy+0x50>
    53de:	18ed      	adds	r5, r5, r3
    53e0:	18c9      	adds	r1, r1, r3
    53e2:	2303      	movs	r3, #3
    53e4:	401a      	ands	r2, r3
    53e6:	d005      	beq.n	53f4 <memcpy+0x70>
    53e8:	2300      	movs	r3, #0
    53ea:	5ccc      	ldrb	r4, [r1, r3]
    53ec:	54ec      	strb	r4, [r5, r3]
    53ee:	3301      	adds	r3, #1
    53f0:	4293      	cmp	r3, r2
    53f2:	d1fa      	bne.n	53ea <memcpy+0x66>
    53f4:	bdf0      	pop	{r4, r5, r6, r7, pc}
    53f6:	1c05      	adds	r5, r0, #0
    53f8:	2a00      	cmp	r2, #0
    53fa:	d1f5      	bne.n	53e8 <memcpy+0x64>
    53fc:	e7fa      	b.n	53f4 <memcpy+0x70>
    53fe:	1c05      	adds	r5, r0, #0
    5400:	e7f2      	b.n	53e8 <memcpy+0x64>
    5402:	1c1a      	adds	r2, r3, #0
    5404:	e7f8      	b.n	53f8 <memcpy+0x74>
    5406:	46c0      	nop			; (mov r8, r8)

00005408 <memset>:
    5408:	b5f0      	push	{r4, r5, r6, r7, lr}
    540a:	0783      	lsls	r3, r0, #30
    540c:	d046      	beq.n	549c <memset+0x94>
    540e:	1e54      	subs	r4, r2, #1
    5410:	2a00      	cmp	r2, #0
    5412:	d042      	beq.n	549a <memset+0x92>
    5414:	b2ce      	uxtb	r6, r1
    5416:	1c03      	adds	r3, r0, #0
    5418:	2503      	movs	r5, #3
    541a:	e003      	b.n	5424 <memset+0x1c>
    541c:	1e62      	subs	r2, r4, #1
    541e:	2c00      	cmp	r4, #0
    5420:	d03b      	beq.n	549a <memset+0x92>
    5422:	1c14      	adds	r4, r2, #0
    5424:	3301      	adds	r3, #1
    5426:	1e5a      	subs	r2, r3, #1
    5428:	7016      	strb	r6, [r2, #0]
    542a:	422b      	tst	r3, r5
    542c:	d1f6      	bne.n	541c <memset+0x14>
    542e:	2c03      	cmp	r4, #3
    5430:	d92b      	bls.n	548a <memset+0x82>
    5432:	25ff      	movs	r5, #255	; 0xff
    5434:	400d      	ands	r5, r1
    5436:	022a      	lsls	r2, r5, #8
    5438:	4315      	orrs	r5, r2
    543a:	042a      	lsls	r2, r5, #16
    543c:	4315      	orrs	r5, r2
    543e:	2c0f      	cmp	r4, #15
    5440:	d915      	bls.n	546e <memset+0x66>
    5442:	1c27      	adds	r7, r4, #0
    5444:	3f10      	subs	r7, #16
    5446:	093f      	lsrs	r7, r7, #4
    5448:	1c1e      	adds	r6, r3, #0
    544a:	013a      	lsls	r2, r7, #4
    544c:	3610      	adds	r6, #16
    544e:	18b6      	adds	r6, r6, r2
    5450:	1c1a      	adds	r2, r3, #0
    5452:	6015      	str	r5, [r2, #0]
    5454:	6055      	str	r5, [r2, #4]
    5456:	6095      	str	r5, [r2, #8]
    5458:	60d5      	str	r5, [r2, #12]
    545a:	3210      	adds	r2, #16
    545c:	42b2      	cmp	r2, r6
    545e:	d1f8      	bne.n	5452 <memset+0x4a>
    5460:	3701      	adds	r7, #1
    5462:	013f      	lsls	r7, r7, #4
    5464:	220f      	movs	r2, #15
    5466:	19db      	adds	r3, r3, r7
    5468:	4014      	ands	r4, r2
    546a:	2c03      	cmp	r4, #3
    546c:	d90d      	bls.n	548a <memset+0x82>
    546e:	1f27      	subs	r7, r4, #4
    5470:	08bf      	lsrs	r7, r7, #2
    5472:	00ba      	lsls	r2, r7, #2
    5474:	1d1e      	adds	r6, r3, #4
    5476:	18b6      	adds	r6, r6, r2
    5478:	1c1a      	adds	r2, r3, #0
    547a:	c220      	stmia	r2!, {r5}
    547c:	42b2      	cmp	r2, r6
    547e:	d1fc      	bne.n	547a <memset+0x72>
    5480:	3701      	adds	r7, #1
    5482:	00bf      	lsls	r7, r7, #2
    5484:	2203      	movs	r2, #3
    5486:	19db      	adds	r3, r3, r7
    5488:	4014      	ands	r4, r2
    548a:	2c00      	cmp	r4, #0
    548c:	d005      	beq.n	549a <memset+0x92>
    548e:	191c      	adds	r4, r3, r4
    5490:	b2c9      	uxtb	r1, r1
    5492:	7019      	strb	r1, [r3, #0]
    5494:	3301      	adds	r3, #1
    5496:	42a3      	cmp	r3, r4
    5498:	d1fb      	bne.n	5492 <memset+0x8a>
    549a:	bdf0      	pop	{r4, r5, r6, r7, pc}
    549c:	1c14      	adds	r4, r2, #0
    549e:	1c03      	adds	r3, r0, #0
    54a0:	e7c5      	b.n	542e <memset+0x26>
    54a2:	46c0      	nop			; (mov r8, r8)

000054a4 <strncmp>:
    54a4:	b570      	push	{r4, r5, r6, lr}
    54a6:	1c05      	adds	r5, r0, #0
    54a8:	2000      	movs	r0, #0
    54aa:	2a00      	cmp	r2, #0
    54ac:	d02c      	beq.n	5508 <strncmp+0x64>
    54ae:	1c2b      	adds	r3, r5, #0
    54b0:	430b      	orrs	r3, r1
    54b2:	079c      	lsls	r4, r3, #30
    54b4:	d129      	bne.n	550a <strncmp+0x66>
    54b6:	2a03      	cmp	r2, #3
    54b8:	d927      	bls.n	550a <strncmp+0x66>
    54ba:	682c      	ldr	r4, [r5, #0]
    54bc:	680e      	ldr	r6, [r1, #0]
    54be:	42b4      	cmp	r4, r6
    54c0:	d123      	bne.n	550a <strncmp+0x66>
    54c2:	1f13      	subs	r3, r2, #4
    54c4:	2b00      	cmp	r3, #0
    54c6:	d01f      	beq.n	5508 <strncmp+0x64>
    54c8:	4e22      	ldr	r6, [pc, #136]	; (5554 <strncmp+0xb0>)
    54ca:	19a2      	adds	r2, r4, r6
    54cc:	4e22      	ldr	r6, [pc, #136]	; (5558 <strncmp+0xb4>)
    54ce:	43a2      	bics	r2, r4
    54d0:	4232      	tst	r2, r6
    54d2:	d00e      	beq.n	54f2 <strncmp+0x4e>
    54d4:	e018      	b.n	5508 <strncmp+0x64>
    54d6:	686a      	ldr	r2, [r5, #4]
    54d8:	6849      	ldr	r1, [r1, #4]
    54da:	428a      	cmp	r2, r1
    54dc:	d12e      	bne.n	553c <strncmp+0x98>
    54de:	3b04      	subs	r3, #4
    54e0:	2b00      	cmp	r3, #0
    54e2:	d010      	beq.n	5506 <strncmp+0x62>
    54e4:	4d1b      	ldr	r5, [pc, #108]	; (5554 <strncmp+0xb0>)
    54e6:	1951      	adds	r1, r2, r5
    54e8:	4391      	bics	r1, r2
    54ea:	4231      	tst	r1, r6
    54ec:	d10b      	bne.n	5506 <strncmp+0x62>
    54ee:	1c21      	adds	r1, r4, #0
    54f0:	1c05      	adds	r5, r0, #0
    54f2:	1d28      	adds	r0, r5, #4
    54f4:	1d0c      	adds	r4, r1, #4
    54f6:	2b03      	cmp	r3, #3
    54f8:	d8ed      	bhi.n	54d6 <strncmp+0x32>
    54fa:	1e5a      	subs	r2, r3, #1
    54fc:	2b00      	cmp	r3, #0
    54fe:	d021      	beq.n	5544 <strncmp+0xa0>
    5500:	1c21      	adds	r1, r4, #0
    5502:	1c05      	adds	r5, r0, #0
    5504:	e002      	b.n	550c <strncmp+0x68>
    5506:	2000      	movs	r0, #0
    5508:	bd70      	pop	{r4, r5, r6, pc}
    550a:	3a01      	subs	r2, #1
    550c:	782c      	ldrb	r4, [r5, #0]
    550e:	7808      	ldrb	r0, [r1, #0]
    5510:	4284      	cmp	r4, r0
    5512:	d11b      	bne.n	554c <strncmp+0xa8>
    5514:	2a00      	cmp	r2, #0
    5516:	d0f6      	beq.n	5506 <strncmp+0x62>
    5518:	2c00      	cmp	r4, #0
    551a:	d0f4      	beq.n	5506 <strncmp+0x62>
    551c:	1c6b      	adds	r3, r5, #1
    551e:	3101      	adds	r1, #1
    5520:	18ad      	adds	r5, r5, r2
    5522:	e005      	b.n	5530 <strncmp+0x8c>
    5524:	42ab      	cmp	r3, r5
    5526:	d0ee      	beq.n	5506 <strncmp+0x62>
    5528:	2c00      	cmp	r4, #0
    552a:	d0ec      	beq.n	5506 <strncmp+0x62>
    552c:	3301      	adds	r3, #1
    552e:	3101      	adds	r1, #1
    5530:	781c      	ldrb	r4, [r3, #0]
    5532:	780a      	ldrb	r2, [r1, #0]
    5534:	4294      	cmp	r4, r2
    5536:	d0f5      	beq.n	5524 <strncmp+0x80>
    5538:	1aa0      	subs	r0, r4, r2
    553a:	e7e5      	b.n	5508 <strncmp+0x64>
    553c:	1e5a      	subs	r2, r3, #1
    553e:	1c21      	adds	r1, r4, #0
    5540:	1c05      	adds	r5, r0, #0
    5542:	e7e3      	b.n	550c <strncmp+0x68>
    5544:	792c      	ldrb	r4, [r5, #4]
    5546:	790a      	ldrb	r2, [r1, #4]
    5548:	1aa0      	subs	r0, r4, r2
    554a:	e7dd      	b.n	5508 <strncmp+0x64>
    554c:	1c02      	adds	r2, r0, #0
    554e:	1aa0      	subs	r0, r4, r2
    5550:	e7da      	b.n	5508 <strncmp+0x64>
    5552:	46c0      	nop			; (mov r8, r8)
    5554:	fefefeff 	.word	0xfefefeff
    5558:	80808080 	.word	0x80808080

0000555c <strncpy>:
    555c:	1c03      	adds	r3, r0, #0
    555e:	430b      	orrs	r3, r1
    5560:	b5f0      	push	{r4, r5, r6, r7, lr}
    5562:	1c04      	adds	r4, r0, #0
    5564:	079d      	lsls	r5, r3, #30
    5566:	d101      	bne.n	556c <strncpy+0x10>
    5568:	2a03      	cmp	r2, #3
    556a:	d815      	bhi.n	5598 <strncpy+0x3c>
    556c:	2a00      	cmp	r2, #0
    556e:	d012      	beq.n	5596 <strncpy+0x3a>
    5570:	780d      	ldrb	r5, [r1, #0]
    5572:	3a01      	subs	r2, #1
    5574:	1c63      	adds	r3, r4, #1
    5576:	1c4e      	adds	r6, r1, #1
    5578:	7025      	strb	r5, [r4, #0]
    557a:	2d00      	cmp	r5, #0
    557c:	d01b      	beq.n	55b6 <strncpy+0x5a>
    557e:	1c31      	adds	r1, r6, #0
    5580:	e007      	b.n	5592 <strncpy+0x36>
    5582:	780c      	ldrb	r4, [r1, #0]
    5584:	3301      	adds	r3, #1
    5586:	1e5d      	subs	r5, r3, #1
    5588:	3a01      	subs	r2, #1
    558a:	702c      	strb	r4, [r5, #0]
    558c:	3101      	adds	r1, #1
    558e:	2c00      	cmp	r4, #0
    5590:	d011      	beq.n	55b6 <strncpy+0x5a>
    5592:	2a00      	cmp	r2, #0
    5594:	d1f5      	bne.n	5582 <strncpy+0x26>
    5596:	bdf0      	pop	{r4, r5, r6, r7, pc}
    5598:	4e0b      	ldr	r6, [pc, #44]	; (55c8 <strncpy+0x6c>)
    559a:	680b      	ldr	r3, [r1, #0]
    559c:	4f0b      	ldr	r7, [pc, #44]	; (55cc <strncpy+0x70>)
    559e:	19dd      	adds	r5, r3, r7
    55a0:	439d      	bics	r5, r3
    55a2:	4235      	tst	r5, r6
    55a4:	d1e2      	bne.n	556c <strncpy+0x10>
    55a6:	3404      	adds	r4, #4
    55a8:	1f25      	subs	r5, r4, #4
    55aa:	3a04      	subs	r2, #4
    55ac:	3104      	adds	r1, #4
    55ae:	602b      	str	r3, [r5, #0]
    55b0:	2a03      	cmp	r2, #3
    55b2:	d8f2      	bhi.n	559a <strncpy+0x3e>
    55b4:	e7da      	b.n	556c <strncpy+0x10>
    55b6:	189c      	adds	r4, r3, r2
    55b8:	2100      	movs	r1, #0
    55ba:	2a00      	cmp	r2, #0
    55bc:	d0eb      	beq.n	5596 <strncpy+0x3a>
    55be:	7019      	strb	r1, [r3, #0]
    55c0:	3301      	adds	r3, #1
    55c2:	42a3      	cmp	r3, r4
    55c4:	d1fb      	bne.n	55be <strncpy+0x62>
    55c6:	e7e6      	b.n	5596 <strncpy+0x3a>
    55c8:	80808080 	.word	0x80808080
    55cc:	fefefeff 	.word	0xfefefeff

000055d0 <register_fini>:
    55d0:	b508      	push	{r3, lr}
    55d2:	4b03      	ldr	r3, [pc, #12]	; (55e0 <register_fini+0x10>)
    55d4:	2b00      	cmp	r3, #0
    55d6:	d002      	beq.n	55de <register_fini+0xe>
    55d8:	4802      	ldr	r0, [pc, #8]	; (55e4 <register_fini+0x14>)
    55da:	f000 f805 	bl	55e8 <atexit>
    55de:	bd08      	pop	{r3, pc}
    55e0:	00000000 	.word	0x00000000
    55e4:	000055f9 	.word	0x000055f9

000055e8 <atexit>:
    55e8:	b508      	push	{r3, lr}
    55ea:	1c01      	adds	r1, r0, #0
    55ec:	2200      	movs	r2, #0
    55ee:	2000      	movs	r0, #0
    55f0:	2300      	movs	r3, #0
    55f2:	f000 f819 	bl	5628 <__register_exitproc>
    55f6:	bd08      	pop	{r3, pc}

000055f8 <__libc_fini_array>:
    55f8:	b538      	push	{r3, r4, r5, lr}
    55fa:	4b09      	ldr	r3, [pc, #36]	; (5620 <__libc_fini_array+0x28>)
    55fc:	4d09      	ldr	r5, [pc, #36]	; (5624 <__libc_fini_array+0x2c>)
    55fe:	1aed      	subs	r5, r5, r3
    5600:	10ad      	asrs	r5, r5, #2
    5602:	d009      	beq.n	5618 <__libc_fini_array+0x20>
    5604:	3d01      	subs	r5, #1
    5606:	00ac      	lsls	r4, r5, #2
    5608:	18e4      	adds	r4, r4, r3
    560a:	e000      	b.n	560e <__libc_fini_array+0x16>
    560c:	3d01      	subs	r5, #1
    560e:	6823      	ldr	r3, [r4, #0]
    5610:	4798      	blx	r3
    5612:	3c04      	subs	r4, #4
    5614:	2d00      	cmp	r5, #0
    5616:	d1f9      	bne.n	560c <__libc_fini_array+0x14>
    5618:	f001 fab0 	bl	6b7c <_fini>
    561c:	bd38      	pop	{r3, r4, r5, pc}
    561e:	46c0      	nop			; (mov r8, r8)
    5620:	00006b88 	.word	0x00006b88
    5624:	00006b8c 	.word	0x00006b8c

00005628 <__register_exitproc>:
    5628:	b5f0      	push	{r4, r5, r6, r7, lr}
    562a:	464f      	mov	r7, r9
    562c:	4646      	mov	r6, r8
    562e:	b4c0      	push	{r6, r7}
    5630:	4698      	mov	r8, r3
    5632:	4b2b      	ldr	r3, [pc, #172]	; (56e0 <__register_exitproc+0xb8>)
    5634:	25a4      	movs	r5, #164	; 0xa4
    5636:	681b      	ldr	r3, [r3, #0]
    5638:	006d      	lsls	r5, r5, #1
    563a:	595c      	ldr	r4, [r3, r5]
    563c:	b083      	sub	sp, #12
    563e:	1c06      	adds	r6, r0, #0
    5640:	1c0f      	adds	r7, r1, #0
    5642:	4691      	mov	r9, r2
    5644:	9301      	str	r3, [sp, #4]
    5646:	2c00      	cmp	r4, #0
    5648:	d044      	beq.n	56d4 <__register_exitproc+0xac>
    564a:	6865      	ldr	r5, [r4, #4]
    564c:	2d1f      	cmp	r5, #31
    564e:	dd1a      	ble.n	5686 <__register_exitproc+0x5e>
    5650:	4b24      	ldr	r3, [pc, #144]	; (56e4 <__register_exitproc+0xbc>)
    5652:	2b00      	cmp	r3, #0
    5654:	d102      	bne.n	565c <__register_exitproc+0x34>
    5656:	2001      	movs	r0, #1
    5658:	4240      	negs	r0, r0
    565a:	e01c      	b.n	5696 <__register_exitproc+0x6e>
    565c:	20c8      	movs	r0, #200	; 0xc8
    565e:	0040      	lsls	r0, r0, #1
    5660:	e000      	b.n	5664 <__register_exitproc+0x3c>
    5662:	bf00      	nop
    5664:	1e04      	subs	r4, r0, #0
    5666:	d0f6      	beq.n	5656 <__register_exitproc+0x2e>
    5668:	2500      	movs	r5, #0
    566a:	6045      	str	r5, [r0, #4]
    566c:	23a4      	movs	r3, #164	; 0xa4
    566e:	9801      	ldr	r0, [sp, #4]
    5670:	005b      	lsls	r3, r3, #1
    5672:	58c0      	ldr	r0, [r0, r3]
    5674:	9901      	ldr	r1, [sp, #4]
    5676:	6020      	str	r0, [r4, #0]
    5678:	50cc      	str	r4, [r1, r3]
    567a:	23c4      	movs	r3, #196	; 0xc4
    567c:	005b      	lsls	r3, r3, #1
    567e:	50e5      	str	r5, [r4, r3]
    5680:	23c6      	movs	r3, #198	; 0xc6
    5682:	005b      	lsls	r3, r3, #1
    5684:	50e5      	str	r5, [r4, r3]
    5686:	2e00      	cmp	r6, #0
    5688:	d10a      	bne.n	56a0 <__register_exitproc+0x78>
    568a:	1c6b      	adds	r3, r5, #1
    568c:	3502      	adds	r5, #2
    568e:	00ad      	lsls	r5, r5, #2
    5690:	6063      	str	r3, [r4, #4]
    5692:	2000      	movs	r0, #0
    5694:	512f      	str	r7, [r5, r4]
    5696:	b003      	add	sp, #12
    5698:	bc0c      	pop	{r2, r3}
    569a:	4690      	mov	r8, r2
    569c:	4699      	mov	r9, r3
    569e:	bdf0      	pop	{r4, r5, r6, r7, pc}
    56a0:	00ab      	lsls	r3, r5, #2
    56a2:	18e3      	adds	r3, r4, r3
    56a4:	2288      	movs	r2, #136	; 0x88
    56a6:	4648      	mov	r0, r9
    56a8:	5098      	str	r0, [r3, r2]
    56aa:	20c4      	movs	r0, #196	; 0xc4
    56ac:	0040      	lsls	r0, r0, #1
    56ae:	1822      	adds	r2, r4, r0
    56b0:	6810      	ldr	r0, [r2, #0]
    56b2:	2101      	movs	r1, #1
    56b4:	40a9      	lsls	r1, r5
    56b6:	4308      	orrs	r0, r1
    56b8:	6010      	str	r0, [r2, #0]
    56ba:	2284      	movs	r2, #132	; 0x84
    56bc:	0052      	lsls	r2, r2, #1
    56be:	4640      	mov	r0, r8
    56c0:	5098      	str	r0, [r3, r2]
    56c2:	2e02      	cmp	r6, #2
    56c4:	d1e1      	bne.n	568a <__register_exitproc+0x62>
    56c6:	22c6      	movs	r2, #198	; 0xc6
    56c8:	0052      	lsls	r2, r2, #1
    56ca:	18a3      	adds	r3, r4, r2
    56cc:	6818      	ldr	r0, [r3, #0]
    56ce:	4301      	orrs	r1, r0
    56d0:	6019      	str	r1, [r3, #0]
    56d2:	e7da      	b.n	568a <__register_exitproc+0x62>
    56d4:	1c1c      	adds	r4, r3, #0
    56d6:	344d      	adds	r4, #77	; 0x4d
    56d8:	34ff      	adds	r4, #255	; 0xff
    56da:	515c      	str	r4, [r3, r5]
    56dc:	e7b5      	b.n	564a <__register_exitproc+0x22>
    56de:	46c0      	nop			; (mov r8, r8)
    56e0:	00006b64 	.word	0x00006b64
    56e4:	00000000 	.word	0x00000000
    56e8:	646e6553 	.word	0x646e6553
    56ec:	73655220 	.word	0x73655220
    56f0:	00002e70 	.word	0x00002e70
    56f4:	676e6950 	.word	0x676e6950
    56f8:	214f5420 	.word	0x214f5420
    56fc:	00000000 	.word	0x00000000
    5700:	75626544 	.word	0x75626544
    5704:	00000067 	.word	0x00000067
    5708:	41447249 	.word	0x41447249
    570c:	00000000 	.word	0x00000000
    5710:	676e6950 	.word	0x676e6950
    5714:	00000000 	.word	0x00000000
    5718:	636e7953 	.word	0x636e7953
    571c:	00000000 	.word	0x00000000
    5720:	42000800 	.word	0x42000800
    5724:	42000c00 	.word	0x42000c00
    5728:	42001000 	.word	0x42001000
    572c:	42001400 	.word	0x42001400
    5730:	6c656959 	.word	0x6c656959
    5734:	53492064 	.word	0x53492064
    5738:	00002152 	.word	0x00002152
    573c:	59206f4e 	.word	0x59206f4e
    5740:	646c6569 	.word	0x646c6569
    5744:	68432021 	.word	0x68432021
    5748:	65676e61 	.word	0x65676e61
    574c:	6f742064 	.word	0x6f742064
    5750:	4e495020 	.word	0x4e495020
    5754:	00000047 	.word	0x00000047
    5758:	6e6f7257 	.word	0x6e6f7257
    575c:	61442067 	.word	0x61442067
    5760:	00216174 	.word	0x00216174
    5764:	0c0b0a09 	.word	0x0c0b0a09
    5768:	00001360 	.word	0x00001360
    576c:	0000137a 	.word	0x0000137a
    5770:	00001396 	.word	0x00001396
    5774:	000013b2 	.word	0x000013b2
    5778:	00001406 	.word	0x00001406
    577c:	000013ce 	.word	0x000013ce
    5780:	000013ea 	.word	0x000013ea
    5784:	43415254 	.word	0x43415254
    5788:	53415f45 	.word	0x53415f45
    578c:	54524553 	.word	0x54524553
    5790:	5476203a 	.word	0x5476203a
    5794:	65636172 	.word	0x65636172
    5798:	6f727245 	.word	0x6f727245
    579c:	6d203a72 	.word	0x6d203a72
    57a0:	3d206773 	.word	0x3d206773
    57a4:	554e203d 	.word	0x554e203d
    57a8:	00004c4c 	.word	0x00004c4c
    57ac:	43415254 	.word	0x43415254
    57b0:	53415f45 	.word	0x53415f45
    57b4:	54524553 	.word	0x54524553
    57b8:	5476203a 	.word	0x5476203a
    57bc:	65636172 	.word	0x65636172
    57c0:	6f727245 	.word	0x6f727245
    57c4:	52203a72 	.word	0x52203a72
    57c8:	726f6365 	.word	0x726f6365
    57cc:	44726564 	.word	0x44726564
    57d0:	50617461 	.word	0x50617461
    57d4:	3d207274 	.word	0x3d207274
    57d8:	554e203d 	.word	0x554e203d
    57dc:	00004c4c 	.word	0x00004c4c
    57e0:	63617254 	.word	0x63617254
    57e4:	65522065 	.word	0x65522065
    57e8:	64726f63 	.word	0x64726f63
    57ec:	44207265 	.word	0x44207265
    57f0:	006f6d65 	.word	0x006f6d65
    57f4:	63617254 	.word	0x63617254
    57f8:	74732065 	.word	0x74732065
    57fc:	20747261 	.word	0x20747261
    5800:	6b72616d 	.word	0x6b72616d
    5804:	20737265 	.word	0x20737265
    5808:	65726c61 	.word	0x65726c61
    580c:	20796461 	.word	0x20796461
    5810:	74696e69 	.word	0x74696e69
    5814:	696c6169 	.word	0x696c6169
    5818:	2164657a 	.word	0x2164657a
    581c:	00000000 	.word	0x00000000
    5820:	65747441 	.word	0x65747441
    5824:	2074706d 	.word	0x2074706d
    5828:	69206f74 	.word	0x69206f74
    582c:	7865646e 	.word	0x7865646e
    5830:	74756f20 	.word	0x74756f20
    5834:	65646973 	.word	0x65646973
    5838:	65766520 	.word	0x65766520
    583c:	6220746e 	.word	0x6220746e
    5840:	65666675 	.word	0x65666675
    5844:	00002172 	.word	0x00002172
    5848:	43415254 	.word	0x43415254
    584c:	53415f45 	.word	0x53415f45
    5850:	54524553 	.word	0x54524553
    5854:	6975203a 	.word	0x6975203a
    5858:	65646e49 	.word	0x65646e49
    585c:	4f664f78 	.word	0x4f664f78
    5860:	63656a62 	.word	0x63656a62
    5864:	49203a74 	.word	0x49203a74
    5868:	6c61766e 	.word	0x6c61766e
    586c:	76206469 	.word	0x76206469
    5870:	65756c61 	.word	0x65756c61
    5874:	726f6620 	.word	0x726f6620
    5878:	6a626f20 	.word	0x6a626f20
    587c:	63746365 	.word	0x63746365
    5880:	7373616c 	.word	0x7373616c
    5884:	00000000 	.word	0x00000000
    5888:	43415254 	.word	0x43415254
    588c:	53415f45 	.word	0x53415f45
    5890:	54524553 	.word	0x54524553
    5894:	6975203a 	.word	0x6975203a
    5898:	65646e49 	.word	0x65646e49
    589c:	4f664f78 	.word	0x4f664f78
    58a0:	63656a62 	.word	0x63656a62
    58a4:	49203a74 	.word	0x49203a74
    58a8:	6c61766e 	.word	0x6c61766e
    58ac:	76206469 	.word	0x76206469
    58b0:	65756c61 	.word	0x65756c61
    58b4:	726f6620 	.word	0x726f6620
    58b8:	6a626f20 	.word	0x6a626f20
    58bc:	68746365 	.word	0x68746365
    58c0:	6c646e61 	.word	0x6c646e61
    58c4:	00000065 	.word	0x00000065
    58c8:	43415254 	.word	0x43415254
    58cc:	53415f45 	.word	0x53415f45
    58d0:	54524553 	.word	0x54524553
    58d4:	5478203a 	.word	0x5478203a
    58d8:	65636172 	.word	0x65636172
    58dc:	4f746547 	.word	0x4f746547
    58e0:	63656a62 	.word	0x63656a62
    58e4:	6e614874 	.word	0x6e614874
    58e8:	3a656c64 	.word	0x3a656c64
    58ec:	766e4920 	.word	0x766e4920
    58f0:	64696c61 	.word	0x64696c61
    58f4:	6c617620 	.word	0x6c617620
    58f8:	66206575 	.word	0x66206575
    58fc:	6f20726f 	.word	0x6f20726f
    5900:	63656a62 	.word	0x63656a62
    5904:	616c6374 	.word	0x616c6374
    5908:	00007373 	.word	0x00007373
    590c:	43415254 	.word	0x43415254
    5910:	53415f45 	.word	0x53415f45
    5914:	54524553 	.word	0x54524553
    5918:	5476203a 	.word	0x5476203a
    591c:	65636172 	.word	0x65636172
    5920:	65657246 	.word	0x65657246
    5924:	656a624f 	.word	0x656a624f
    5928:	61487463 	.word	0x61487463
    592c:	656c646e 	.word	0x656c646e
    5930:	6e49203a 	.word	0x6e49203a
    5934:	696c6176 	.word	0x696c6176
    5938:	61762064 	.word	0x61762064
    593c:	2065756c 	.word	0x2065756c
    5940:	20726f66 	.word	0x20726f66
    5944:	656a626f 	.word	0x656a626f
    5948:	6c637463 	.word	0x6c637463
    594c:	00737361 	.word	0x00737361
    5950:	43415254 	.word	0x43415254
    5954:	53415f45 	.word	0x53415f45
    5958:	54524553 	.word	0x54524553
    595c:	5476203a 	.word	0x5476203a
    5960:	65636172 	.word	0x65636172
    5964:	65657246 	.word	0x65657246
    5968:	656a624f 	.word	0x656a624f
    596c:	61487463 	.word	0x61487463
    5970:	656c646e 	.word	0x656c646e
    5974:	6e49203a 	.word	0x6e49203a
    5978:	696c6176 	.word	0x696c6176
    597c:	61762064 	.word	0x61762064
    5980:	2065756c 	.word	0x2065756c
    5984:	20726f66 	.word	0x20726f66
    5988:	646e6168 	.word	0x646e6168
    598c:	0000656c 	.word	0x0000656c
    5990:	65747441 	.word	0x65747441
    5994:	2074706d 	.word	0x2074706d
    5998:	66206f74 	.word	0x66206f74
    599c:	20656572 	.word	0x20656572
    59a0:	65726f6d 	.word	0x65726f6d
    59a4:	6e616820 	.word	0x6e616820
    59a8:	73656c64 	.word	0x73656c64
    59ac:	61687420 	.word	0x61687420
    59b0:	6c61206e 	.word	0x6c61206e
    59b4:	61636f6c 	.word	0x61636f6c
    59b8:	21646574 	.word	0x21646574
    59bc:	00000000 	.word	0x00000000
    59c0:	43415254 	.word	0x43415254
    59c4:	53415f45 	.word	0x53415f45
    59c8:	54524553 	.word	0x54524553
    59cc:	5476203a 	.word	0x5476203a
    59d0:	65636172 	.word	0x65636172
    59d4:	4f746553 	.word	0x4f746553
    59d8:	63656a62 	.word	0x63656a62
    59dc:	6d614e74 	.word	0x6d614e74
    59e0:	6e203a65 	.word	0x6e203a65
    59e4:	20656d61 	.word	0x20656d61
    59e8:	4e203d3d 	.word	0x4e203d3d
    59ec:	004c4c55 	.word	0x004c4c55
    59f0:	656c6c49 	.word	0x656c6c49
    59f4:	206c6167 	.word	0x206c6167
    59f8:	656a626f 	.word	0x656a626f
    59fc:	63207463 	.word	0x63207463
    5a00:	7373616c 	.word	0x7373616c
    5a04:	206e6920 	.word	0x206e6920
    5a08:	61725476 	.word	0x61725476
    5a0c:	65536563 	.word	0x65536563
    5a10:	6a624f74 	.word	0x6a624f74
    5a14:	4e746365 	.word	0x4e746365
    5a18:	00656d61 	.word	0x00656d61
    5a1c:	656c6c49 	.word	0x656c6c49
    5a20:	206c6167 	.word	0x206c6167
    5a24:	646e6168 	.word	0x646e6168
    5a28:	2820656c 	.word	0x2820656c
    5a2c:	69202930 	.word	0x69202930
    5a30:	5476206e 	.word	0x5476206e
    5a34:	65636172 	.word	0x65636172
    5a38:	4f746553 	.word	0x4f746553
    5a3c:	63656a62 	.word	0x63656a62
    5a40:	6d614e74 	.word	0x6d614e74
    5a44:	00002e65 	.word	0x00002e65
    5a48:	43415254 	.word	0x43415254
    5a4c:	53415f45 	.word	0x53415f45
    5a50:	54524553 	.word	0x54524553
    5a54:	7270203a 	.word	0x7270203a
    5a58:	65684376 	.word	0x65684376
    5a5c:	61446b63 	.word	0x61446b63
    5a60:	6f546174 	.word	0x6f546174
    5a64:	764f6542 	.word	0x764f6542
    5a68:	72777265 	.word	0x72777265
    5a6c:	65747469 	.word	0x65747469
    5a70:	726f466e 	.word	0x726f466e
    5a74:	746c754d 	.word	0x746c754d
    5a78:	746e4569 	.word	0x746e4569
    5a7c:	76457972 	.word	0x76457972
    5a80:	73746e65 	.word	0x73746e65
    5a84:	6f6e203a 	.word	0x6f6e203a
    5a88:	746e4566 	.word	0x746e4566
    5a8c:	73656972 	.word	0x73656972
    5a90:	68436f54 	.word	0x68436f54
    5a94:	206b6365 	.word	0x206b6365
    5a98:	30203d3d 	.word	0x30203d3d
    5a9c:	00000000 	.word	0x00000000
    5aa0:	43415254 	.word	0x43415254
    5aa4:	53415f45 	.word	0x53415f45
    5aa8:	54524553 	.word	0x54524553
    5aac:	7270203a 	.word	0x7270203a
    5ab0:	61725476 	.word	0x61725476
    5ab4:	65476563 	.word	0x65476563
    5ab8:	53544474 	.word	0x53544474
    5abc:	6e49203a 	.word	0x6e49203a
    5ac0:	696c6176 	.word	0x696c6176
    5ac4:	61762064 	.word	0x61762064
    5ac8:	2065756c 	.word	0x2065756c
    5acc:	20726f66 	.word	0x20726f66
    5ad0:	61726170 	.word	0x61726170
    5ad4:	616d5f6d 	.word	0x616d5f6d
    5ad8:	53544478 	.word	0x53544478
    5adc:	00000000 	.word	0x00000000
    5ae0:	20646142 	.word	0x20646142
    5ae4:	61726170 	.word	0x61726170
    5ae8:	616d5f6d 	.word	0x616d5f6d
    5aec:	53544478 	.word	0x53544478
    5af0:	206e6920 	.word	0x206e6920
    5af4:	54767270 	.word	0x54767270
    5af8:	65636172 	.word	0x65636172
    5afc:	44746547 	.word	0x44746547
    5b00:	00005354 	.word	0x00005354
    5b04:	43415254 	.word	0x43415254
    5b08:	53415f45 	.word	0x53415f45
    5b0c:	54524553 	.word	0x54524553
    5b10:	7270203a 	.word	0x7270203a
    5b14:	61725476 	.word	0x61725476
    5b18:	6f4c6563 	.word	0x6f4c6563
    5b1c:	70756b6f 	.word	0x70756b6f
    5b20:	626d7953 	.word	0x626d7953
    5b24:	61546c6f 	.word	0x61546c6f
    5b28:	45656c62 	.word	0x45656c62
    5b2c:	7972746e 	.word	0x7972746e
    5b30:	616e203a 	.word	0x616e203a
    5b34:	3d20656d 	.word	0x3d20656d
    5b38:	554e203d 	.word	0x554e203d
    5b3c:	00004c4c 	.word	0x00004c4c
    5b40:	43415254 	.word	0x43415254
    5b44:	53415f45 	.word	0x53415f45
    5b48:	54524553 	.word	0x54524553
    5b4c:	7270203a 	.word	0x7270203a
    5b50:	61725476 	.word	0x61725476
    5b54:	6f4c6563 	.word	0x6f4c6563
    5b58:	70756b6f 	.word	0x70756b6f
    5b5c:	626d7953 	.word	0x626d7953
    5b60:	61546c6f 	.word	0x61546c6f
    5b64:	45656c62 	.word	0x45656c62
    5b68:	7972746e 	.word	0x7972746e
    5b6c:	656c203a 	.word	0x656c203a
    5b70:	3d3d206e 	.word	0x3d3d206e
    5b74:	00003020 	.word	0x00003020
    5b78:	43415254 	.word	0x43415254
    5b7c:	53415f45 	.word	0x53415f45
    5b80:	54524553 	.word	0x54524553
    5b84:	7270203a 	.word	0x7270203a
    5b88:	61725476 	.word	0x61725476
    5b8c:	72436563 	.word	0x72436563
    5b90:	65746165 	.word	0x65746165
    5b94:	626d7953 	.word	0x626d7953
    5b98:	61546c6f 	.word	0x61546c6f
    5b9c:	45656c62 	.word	0x45656c62
    5ba0:	7972746e 	.word	0x7972746e
    5ba4:	616e203a 	.word	0x616e203a
    5ba8:	3d20656d 	.word	0x3d20656d
    5bac:	554e203d 	.word	0x554e203d
    5bb0:	00004c4c 	.word	0x00004c4c
    5bb4:	43415254 	.word	0x43415254
    5bb8:	53415f45 	.word	0x53415f45
    5bbc:	54524553 	.word	0x54524553
    5bc0:	7270203a 	.word	0x7270203a
    5bc4:	61725476 	.word	0x61725476
    5bc8:	72436563 	.word	0x72436563
    5bcc:	65746165 	.word	0x65746165
    5bd0:	626d7953 	.word	0x626d7953
    5bd4:	61546c6f 	.word	0x61546c6f
    5bd8:	45656c62 	.word	0x45656c62
    5bdc:	7972746e 	.word	0x7972746e
    5be0:	656c203a 	.word	0x656c203a
    5be4:	3d3d206e 	.word	0x3d3d206e
    5be8:	00003020 	.word	0x00003020
    5bec:	626d7953 	.word	0x626d7953
    5bf0:	74206c6f 	.word	0x74206c6f
    5bf4:	656c6261 	.word	0x656c6261
    5bf8:	6c756620 	.word	0x6c756620
    5bfc:	49202e6c 	.word	0x49202e6c
    5c00:	6572636e 	.word	0x6572636e
    5c04:	20657361 	.word	0x20657361
    5c08:	424d5953 	.word	0x424d5953
    5c0c:	545f4c4f 	.word	0x545f4c4f
    5c10:	454c4241 	.word	0x454c4241
    5c14:	5a49535f 	.word	0x5a49535f
    5c18:	6e692045 	.word	0x6e692045
    5c1c:	63727420 	.word	0x63727420
    5c20:	666e6f43 	.word	0x666e6f43
    5c24:	682e6769 	.word	0x682e6769
    5c28:	00000000 	.word	0x00000000
    5c2c:	43415254 	.word	0x43415254
    5c30:	53415f45 	.word	0x53415f45
    5c34:	54524553 	.word	0x54524553
    5c38:	7270203a 	.word	0x7270203a
    5c3c:	61725476 	.word	0x61725476
    5c40:	65476563 	.word	0x65476563
    5c44:	65684374 	.word	0x65684374
    5c48:	75736b63 	.word	0x75736b63
    5c4c:	70203a6d 	.word	0x70203a6d
    5c50:	656d616e 	.word	0x656d616e
    5c54:	203d3d20 	.word	0x203d3d20
    5c58:	4c4c554e 	.word	0x4c4c554e
    5c5c:	00000000 	.word	0x00000000
    5c60:	43415254 	.word	0x43415254
    5c64:	53415f45 	.word	0x53415f45
    5c68:	54524553 	.word	0x54524553
    5c6c:	7270203a 	.word	0x7270203a
    5c70:	61725476 	.word	0x61725476
    5c74:	65476563 	.word	0x65476563
    5c78:	65684374 	.word	0x65684374
    5c7c:	75736b63 	.word	0x75736b63
    5c80:	70203a6d 	.word	0x70203a6d
    5c84:	20637263 	.word	0x20637263
    5c88:	4e203d3d 	.word	0x4e203d3d
    5c8c:	004c4c55 	.word	0x004c4c55
    5c90:	43415254 	.word	0x43415254
    5c94:	53415f45 	.word	0x53415f45
    5c98:	54524553 	.word	0x54524553
    5c9c:	7270203a 	.word	0x7270203a
    5ca0:	61725476 	.word	0x61725476
    5ca4:	65476563 	.word	0x65476563
    5ca8:	65684374 	.word	0x65684374
    5cac:	75736b63 	.word	0x75736b63
    5cb0:	70203a6d 	.word	0x70203a6d
    5cb4:	676e656c 	.word	0x676e656c
    5cb8:	3d206874 	.word	0x3d206874
    5cbc:	554e203d 	.word	0x554e203d
    5cc0:	00004c4c 	.word	0x00004c4c
    5cc4:	43415254 	.word	0x43415254
    5cc8:	53415f45 	.word	0x53415f45
    5ccc:	54524553 	.word	0x54524553
    5cd0:	7270203a 	.word	0x7270203a
    5cd4:	61725476 	.word	0x61725476
    5cd8:	704f6563 	.word	0x704f6563
    5cdc:	79536e65 	.word	0x79536e65
    5ce0:	6c6f626d 	.word	0x6c6f626d
    5ce4:	616e203a 	.word	0x616e203a
    5ce8:	3d20656d 	.word	0x3d20656d
    5cec:	554e203d 	.word	0x554e203d
    5cf0:	00004c4c 	.word	0x00004c4c
    5cf4:	43415254 	.word	0x43415254
    5cf8:	53415f45 	.word	0x53415f45
    5cfc:	54524553 	.word	0x54524553
    5d00:	5476203a 	.word	0x5476203a
    5d04:	65636172 	.word	0x65636172
    5d08:	726f7453 	.word	0x726f7453
    5d0c:	73615465 	.word	0x73615465
    5d10:	6165526b 	.word	0x6165526b
    5d14:	203a7964 	.word	0x203a7964
    5d18:	61766e49 	.word	0x61766e49
    5d1c:	2064696c 	.word	0x2064696c
    5d20:	756c6176 	.word	0x756c6176
    5d24:	6f662065 	.word	0x6f662065
    5d28:	61682072 	.word	0x61682072
    5d2c:	656c646e 	.word	0x656c646e
    5d30:	00000000 	.word	0x00000000
    5d34:	6f636552 	.word	0x6f636552
    5d38:	72656472 	.word	0x72656472
    5d3c:	73756220 	.word	0x73756220
    5d40:	202d2079 	.word	0x202d2079
    5d44:	68676968 	.word	0x68676968
    5d48:	69727020 	.word	0x69727020
    5d4c:	7469726f 	.word	0x7469726f
    5d50:	53492079 	.word	0x53492079
    5d54:	73752052 	.word	0x73752052
    5d58:	20676e69 	.word	0x20676e69
    5d5c:	63737973 	.word	0x63737973
    5d60:	3f6c6c61 	.word	0x3f6c6c61
    5d64:	29312820 	.word	0x29312820
    5d68:	00000000 	.word	0x00000000
    5d6c:	43415254 	.word	0x43415254
    5d70:	53415f45 	.word	0x53415f45
    5d74:	54524553 	.word	0x54524553
    5d78:	5476203a 	.word	0x5476203a
    5d7c:	65636172 	.word	0x65636172
    5d80:	726f7453 	.word	0x726f7453
    5d84:	776f4c65 	.word	0x776f4c65
    5d88:	65776f50 	.word	0x65776f50
    5d8c:	49203a72 	.word	0x49203a72
    5d90:	6c61766e 	.word	0x6c61766e
    5d94:	66206469 	.word	0x66206469
    5d98:	2067616c 	.word	0x2067616c
    5d9c:	756c6176 	.word	0x756c6176
    5da0:	00000065 	.word	0x00000065
    5da4:	43415254 	.word	0x43415254
    5da8:	53415f45 	.word	0x53415f45
    5dac:	54524553 	.word	0x54524553
    5db0:	5476203a 	.word	0x5476203a
    5db4:	65636172 	.word	0x65636172
    5db8:	726f7453 	.word	0x726f7453
    5dbc:	72654b65 	.word	0x72654b65
    5dc0:	436c656e 	.word	0x436c656e
    5dc4:	3a6c6c61 	.word	0x3a6c6c61
    5dc8:	6f636520 	.word	0x6f636520
    5dcc:	3e206564 	.word	0x3e206564
    5dd0:	7830203d 	.word	0x7830203d
    5dd4:	00004646 	.word	0x00004646
    5dd8:	43415254 	.word	0x43415254
    5ddc:	53415f45 	.word	0x53415f45
    5de0:	54524553 	.word	0x54524553
    5de4:	5476203a 	.word	0x5476203a
    5de8:	65636172 	.word	0x65636172
    5dec:	726f7453 	.word	0x726f7453
    5df0:	72654b65 	.word	0x72654b65
    5df4:	436c656e 	.word	0x436c656e
    5df8:	3a6c6c61 	.word	0x3a6c6c61
    5dfc:	6a626f20 	.word	0x6a626f20
    5e00:	43746365 	.word	0x43746365
    5e04:	7373616c 	.word	0x7373616c
    5e08:	203d3e20 	.word	0x203d3e20
    5e0c:	43415254 	.word	0x43415254
    5e10:	434e5f45 	.word	0x434e5f45
    5e14:	5353414c 	.word	0x5353414c
    5e18:	00005345 	.word	0x00005345
    5e1c:	43415254 	.word	0x43415254
    5e20:	53415f45 	.word	0x53415f45
    5e24:	54524553 	.word	0x54524553
    5e28:	5476203a 	.word	0x5476203a
    5e2c:	65636172 	.word	0x65636172
    5e30:	726f7453 	.word	0x726f7453
    5e34:	72654b65 	.word	0x72654b65
    5e38:	436c656e 	.word	0x436c656e
    5e3c:	3a6c6c61 	.word	0x3a6c6c61
    5e40:	766e4920 	.word	0x766e4920
    5e44:	64696c61 	.word	0x64696c61
    5e48:	6c617620 	.word	0x6c617620
    5e4c:	66206575 	.word	0x66206575
    5e50:	6f20726f 	.word	0x6f20726f
    5e54:	63656a62 	.word	0x63656a62
    5e58:	6d754e74 	.word	0x6d754e74
    5e5c:	00726562 	.word	0x00726562
    5e60:	6f636552 	.word	0x6f636552
    5e64:	72656472 	.word	0x72656472
    5e68:	73756220 	.word	0x73756220
    5e6c:	202d2079 	.word	0x202d2079
    5e70:	68676968 	.word	0x68676968
    5e74:	69727020 	.word	0x69727020
    5e78:	7469726f 	.word	0x7469726f
    5e7c:	53492079 	.word	0x53492079
    5e80:	73752052 	.word	0x73752052
    5e84:	20676e69 	.word	0x20676e69
    5e88:	63737973 	.word	0x63737973
    5e8c:	3f6c6c61 	.word	0x3f6c6c61
    5e90:	29322820 	.word	0x29322820
    5e94:	00000000 	.word	0x00000000
    5e98:	43415254 	.word	0x43415254
    5e9c:	53415f45 	.word	0x53415f45
    5ea0:	54524553 	.word	0x54524553
    5ea4:	5476203a 	.word	0x5476203a
    5ea8:	65636172 	.word	0x65636172
    5eac:	726f7453 	.word	0x726f7453
    5eb0:	72654b65 	.word	0x72654b65
    5eb4:	436c656e 	.word	0x436c656e
    5eb8:	3a6c6c61 	.word	0x3a6c6c61
    5ebc:	74766520 	.word	0x74766520
    5ec0:	65646f63 	.word	0x65646f63
    5ec4:	203d3e20 	.word	0x203d3e20
    5ec8:	46467830 	.word	0x46467830
    5ecc:	00000000 	.word	0x00000000
    5ed0:	43415254 	.word	0x43415254
    5ed4:	53415f45 	.word	0x53415f45
    5ed8:	54524553 	.word	0x54524553
    5edc:	5476203a 	.word	0x5476203a
    5ee0:	65636172 	.word	0x65636172
    5ee4:	726f7453 	.word	0x726f7453
    5ee8:	72654b65 	.word	0x72654b65
    5eec:	436c656e 	.word	0x436c656e
    5ef0:	576c6c61 	.word	0x576c6c61
    5ef4:	50687469 	.word	0x50687469
    5ef8:	6d617261 	.word	0x6d617261
    5efc:	626f203a 	.word	0x626f203a
    5f00:	7463656a 	.word	0x7463656a
    5f04:	73616c43 	.word	0x73616c43
    5f08:	3d3e2073 	.word	0x3d3e2073
    5f0c:	41525420 	.word	0x41525420
    5f10:	4e5f4543 	.word	0x4e5f4543
    5f14:	53414c43 	.word	0x53414c43
    5f18:	00534553 	.word	0x00534553
    5f1c:	43415254 	.word	0x43415254
    5f20:	53415f45 	.word	0x53415f45
    5f24:	54524553 	.word	0x54524553
    5f28:	5476203a 	.word	0x5476203a
    5f2c:	65636172 	.word	0x65636172
    5f30:	726f7453 	.word	0x726f7453
    5f34:	72654b65 	.word	0x72654b65
    5f38:	436c656e 	.word	0x436c656e
    5f3c:	576c6c61 	.word	0x576c6c61
    5f40:	50687469 	.word	0x50687469
    5f44:	6d617261 	.word	0x6d617261
    5f48:	6e49203a 	.word	0x6e49203a
    5f4c:	696c6176 	.word	0x696c6176
    5f50:	61762064 	.word	0x61762064
    5f54:	2065756c 	.word	0x2065756c
    5f58:	20726f66 	.word	0x20726f66
    5f5c:	656a626f 	.word	0x656a626f
    5f60:	754e7463 	.word	0x754e7463
    5f64:	7265626d 	.word	0x7265626d
    5f68:	00000000 	.word	0x00000000
    5f6c:	6f636552 	.word	0x6f636552
    5f70:	72656472 	.word	0x72656472
    5f74:	73756220 	.word	0x73756220
    5f78:	202d2079 	.word	0x202d2079
    5f7c:	68676968 	.word	0x68676968
    5f80:	69727020 	.word	0x69727020
    5f84:	7469726f 	.word	0x7469726f
    5f88:	53492079 	.word	0x53492079
    5f8c:	73752052 	.word	0x73752052
    5f90:	20676e69 	.word	0x20676e69
    5f94:	63737973 	.word	0x63737973
    5f98:	3f6c6c61 	.word	0x3f6c6c61
    5f9c:	29332820 	.word	0x29332820
    5fa0:	00000000 	.word	0x00000000
    5fa4:	43415254 	.word	0x43415254
    5fa8:	53415f45 	.word	0x53415f45
    5fac:	54524553 	.word	0x54524553
    5fb0:	5476203a 	.word	0x5476203a
    5fb4:	65636172 	.word	0x65636172
    5fb8:	726f7453 	.word	0x726f7453
    5fbc:	72654b65 	.word	0x72654b65
    5fc0:	436c656e 	.word	0x436c656e
    5fc4:	576c6c61 	.word	0x576c6c61
    5fc8:	4e687469 	.word	0x4e687469
    5fcc:	72656d75 	.word	0x72656d75
    5fd0:	61506369 	.word	0x61506369
    5fd4:	4f6d6172 	.word	0x4f6d6172
    5fd8:	3a796c6e 	.word	0x3a796c6e
    5fdc:	766e4920 	.word	0x766e4920
    5fe0:	64696c61 	.word	0x64696c61
    5fe4:	6c617620 	.word	0x6c617620
    5fe8:	66206575 	.word	0x66206575
    5fec:	6520726f 	.word	0x6520726f
    5ff0:	6f637476 	.word	0x6f637476
    5ff4:	00006564 	.word	0x00006564
    5ff8:	6f636552 	.word	0x6f636552
    5ffc:	72656472 	.word	0x72656472
    6000:	73756220 	.word	0x73756220
    6004:	202d2079 	.word	0x202d2079
    6008:	68676968 	.word	0x68676968
    600c:	69727020 	.word	0x69727020
    6010:	7469726f 	.word	0x7469726f
    6014:	53492079 	.word	0x53492079
    6018:	73752052 	.word	0x73752052
    601c:	20676e69 	.word	0x20676e69
    6020:	63737973 	.word	0x63737973
    6024:	3f6c6c61 	.word	0x3f6c6c61
    6028:	29342820 	.word	0x29342820
    602c:	00000000 	.word	0x00000000
    6030:	43415254 	.word	0x43415254
    6034:	53415f45 	.word	0x53415f45
    6038:	54524553 	.word	0x54524553
    603c:	5476203a 	.word	0x5476203a
    6040:	65636172 	.word	0x65636172
    6044:	726f7453 	.word	0x726f7453
    6048:	6a624f65 	.word	0x6a624f65
    604c:	4e746365 	.word	0x4e746365
    6050:	4f656d61 	.word	0x4f656d61
    6054:	6f6c436e 	.word	0x6f6c436e
    6058:	76456573 	.word	0x76456573
    605c:	3a746e65 	.word	0x3a746e65
    6060:	6a626f20 	.word	0x6a626f20
    6064:	63746365 	.word	0x63746365
    6068:	7373616c 	.word	0x7373616c
    606c:	203d3e20 	.word	0x203d3e20
    6070:	43415254 	.word	0x43415254
    6074:	434e5f45 	.word	0x434e5f45
    6078:	5353414c 	.word	0x5353414c
    607c:	00005345 	.word	0x00005345
    6080:	43415254 	.word	0x43415254
    6084:	53415f45 	.word	0x53415f45
    6088:	54524553 	.word	0x54524553
    608c:	5476203a 	.word	0x5476203a
    6090:	65636172 	.word	0x65636172
    6094:	726f7453 	.word	0x726f7453
    6098:	6a624f65 	.word	0x6a624f65
    609c:	4e746365 	.word	0x4e746365
    60a0:	4f656d61 	.word	0x4f656d61
    60a4:	6f6c436e 	.word	0x6f6c436e
    60a8:	76456573 	.word	0x76456573
    60ac:	3a746e65 	.word	0x3a746e65
    60b0:	766e4920 	.word	0x766e4920
    60b4:	64696c61 	.word	0x64696c61
    60b8:	6c617620 	.word	0x6c617620
    60bc:	66206575 	.word	0x66206575
    60c0:	6820726f 	.word	0x6820726f
    60c4:	6c646e61 	.word	0x6c646e61
    60c8:	00000065 	.word	0x00000065
    60cc:	43415254 	.word	0x43415254
    60d0:	53415f45 	.word	0x53415f45
    60d4:	54524553 	.word	0x54524553
    60d8:	5476203a 	.word	0x5476203a
    60dc:	65636172 	.word	0x65636172
    60e0:	726f7453 	.word	0x726f7453
    60e4:	6a624f65 	.word	0x6a624f65
    60e8:	50746365 	.word	0x50746365
    60ec:	65706f72 	.word	0x65706f72
    60f0:	65697472 	.word	0x65697472
    60f4:	436e4f73 	.word	0x436e4f73
    60f8:	65736f6c 	.word	0x65736f6c
    60fc:	6e657645 	.word	0x6e657645
    6100:	6f203a74 	.word	0x6f203a74
    6104:	63656a62 	.word	0x63656a62
    6108:	616c6374 	.word	0x616c6374
    610c:	3e207373 	.word	0x3e207373
    6110:	5254203d 	.word	0x5254203d
    6114:	5f454341 	.word	0x5f454341
    6118:	414c434e 	.word	0x414c434e
    611c:	53455353 	.word	0x53455353
    6120:	00000000 	.word	0x00000000
    6124:	43415254 	.word	0x43415254
    6128:	53415f45 	.word	0x53415f45
    612c:	54524553 	.word	0x54524553
    6130:	5476203a 	.word	0x5476203a
    6134:	65636172 	.word	0x65636172
    6138:	726f7453 	.word	0x726f7453
    613c:	6a624f65 	.word	0x6a624f65
    6140:	50746365 	.word	0x50746365
    6144:	65706f72 	.word	0x65706f72
    6148:	65697472 	.word	0x65697472
    614c:	436e4f73 	.word	0x436e4f73
    6150:	65736f6c 	.word	0x65736f6c
    6154:	6e657645 	.word	0x6e657645
    6158:	49203a74 	.word	0x49203a74
    615c:	6c61766e 	.word	0x6c61766e
    6160:	76206469 	.word	0x76206469
    6164:	65756c61 	.word	0x65756c61
    6168:	726f6620 	.word	0x726f6620
    616c:	6e616820 	.word	0x6e616820
    6170:	00656c64 	.word	0x00656c64
    6174:	43415254 	.word	0x43415254
    6178:	53415f45 	.word	0x53415f45
    617c:	54524553 	.word	0x54524553
    6180:	5476203a 	.word	0x5476203a
    6184:	65636172 	.word	0x65636172
    6188:	50746553 	.word	0x50746553
    618c:	726f6972 	.word	0x726f6972
    6190:	50797469 	.word	0x50797469
    6194:	65706f72 	.word	0x65706f72
    6198:	3a797472 	.word	0x3a797472
    619c:	6a626f20 	.word	0x6a626f20
    61a0:	63746365 	.word	0x63746365
    61a4:	7373616c 	.word	0x7373616c
    61a8:	203d3e20 	.word	0x203d3e20
    61ac:	43415254 	.word	0x43415254
    61b0:	434e5f45 	.word	0x434e5f45
    61b4:	5353414c 	.word	0x5353414c
    61b8:	00005345 	.word	0x00005345
    61bc:	43415254 	.word	0x43415254
    61c0:	53415f45 	.word	0x53415f45
    61c4:	54524553 	.word	0x54524553
    61c8:	5476203a 	.word	0x5476203a
    61cc:	65636172 	.word	0x65636172
    61d0:	50746553 	.word	0x50746553
    61d4:	726f6972 	.word	0x726f6972
    61d8:	50797469 	.word	0x50797469
    61dc:	65706f72 	.word	0x65706f72
    61e0:	3a797472 	.word	0x3a797472
    61e4:	766e4920 	.word	0x766e4920
    61e8:	64696c61 	.word	0x64696c61
    61ec:	6c617620 	.word	0x6c617620
    61f0:	66206575 	.word	0x66206575
    61f4:	6920726f 	.word	0x6920726f
    61f8:	00000064 	.word	0x00000064
    61fc:	43415254 	.word	0x43415254
    6200:	53415f45 	.word	0x53415f45
    6204:	54524553 	.word	0x54524553
    6208:	6975203a 	.word	0x6975203a
    620c:	63617254 	.word	0x63617254
    6210:	74654765 	.word	0x74654765
    6214:	6f697250 	.word	0x6f697250
    6218:	79746972 	.word	0x79746972
    621c:	706f7250 	.word	0x706f7250
    6220:	79747265 	.word	0x79747265
    6224:	626f203a 	.word	0x626f203a
    6228:	7463656a 	.word	0x7463656a
    622c:	73616c63 	.word	0x73616c63
    6230:	3d3e2073 	.word	0x3d3e2073
    6234:	41525420 	.word	0x41525420
    6238:	4e5f4543 	.word	0x4e5f4543
    623c:	53414c43 	.word	0x53414c43
    6240:	00534553 	.word	0x00534553
    6244:	43415254 	.word	0x43415254
    6248:	53415f45 	.word	0x53415f45
    624c:	54524553 	.word	0x54524553
    6250:	6975203a 	.word	0x6975203a
    6254:	63617254 	.word	0x63617254
    6258:	74654765 	.word	0x74654765
    625c:	6f697250 	.word	0x6f697250
    6260:	79746972 	.word	0x79746972
    6264:	706f7250 	.word	0x706f7250
    6268:	79747265 	.word	0x79747265
    626c:	6e49203a 	.word	0x6e49203a
    6270:	696c6176 	.word	0x696c6176
    6274:	61762064 	.word	0x61762064
    6278:	2065756c 	.word	0x2065756c
    627c:	20726f66 	.word	0x20726f66
    6280:	00006469 	.word	0x00006469
    6284:	43415254 	.word	0x43415254
    6288:	53415f45 	.word	0x53415f45
    628c:	54524553 	.word	0x54524553
    6290:	5476203a 	.word	0x5476203a
    6294:	65636172 	.word	0x65636172
    6298:	4f746553 	.word	0x4f746553
    629c:	63656a62 	.word	0x63656a62
    62a0:	61745374 	.word	0x61745374
    62a4:	203a6574 	.word	0x203a6574
    62a8:	656a626f 	.word	0x656a626f
    62ac:	6c637463 	.word	0x6c637463
    62b0:	20737361 	.word	0x20737361
    62b4:	54203d3e 	.word	0x54203d3e
    62b8:	45434152 	.word	0x45434152
    62bc:	4c434e5f 	.word	0x4c434e5f
    62c0:	45535341 	.word	0x45535341
    62c4:	00000053 	.word	0x00000053
    62c8:	43415254 	.word	0x43415254
    62cc:	53415f45 	.word	0x53415f45
    62d0:	54524553 	.word	0x54524553
    62d4:	5476203a 	.word	0x5476203a
    62d8:	65636172 	.word	0x65636172
    62dc:	4f746553 	.word	0x4f746553
    62e0:	63656a62 	.word	0x63656a62
    62e4:	61745374 	.word	0x61745374
    62e8:	203a6574 	.word	0x203a6574
    62ec:	61766e49 	.word	0x61766e49
    62f0:	2064696c 	.word	0x2064696c
    62f4:	756c6176 	.word	0x756c6176
    62f8:	6f662065 	.word	0x6f662065
    62fc:	64692072 	.word	0x64692072
    6300:	00000000 	.word	0x00000000
    6304:	43415254 	.word	0x43415254
    6308:	53415f45 	.word	0x53415f45
    630c:	54524553 	.word	0x54524553
    6310:	6975203a 	.word	0x6975203a
    6314:	63617254 	.word	0x63617254
    6318:	74654765 	.word	0x74654765
    631c:	656a624f 	.word	0x656a624f
    6320:	74537463 	.word	0x74537463
    6324:	3a657461 	.word	0x3a657461
    6328:	6a626f20 	.word	0x6a626f20
    632c:	63746365 	.word	0x63746365
    6330:	7373616c 	.word	0x7373616c
    6334:	203d3e20 	.word	0x203d3e20
    6338:	43415254 	.word	0x43415254
    633c:	434e5f45 	.word	0x434e5f45
    6340:	5353414c 	.word	0x5353414c
    6344:	00005345 	.word	0x00005345
    6348:	43415254 	.word	0x43415254
    634c:	53415f45 	.word	0x53415f45
    6350:	54524553 	.word	0x54524553
    6354:	6975203a 	.word	0x6975203a
    6358:	63617254 	.word	0x63617254
    635c:	74654765 	.word	0x74654765
    6360:	656a624f 	.word	0x656a624f
    6364:	74537463 	.word	0x74537463
    6368:	3a657461 	.word	0x3a657461
    636c:	766e4920 	.word	0x766e4920
    6370:	64696c61 	.word	0x64696c61
    6374:	6c617620 	.word	0x6c617620
    6378:	66206575 	.word	0x66206575
    637c:	6920726f 	.word	0x6920726f
    6380:	00000064 	.word	0x00000064
    6384:	43415254 	.word	0x43415254
    6388:	53415f45 	.word	0x53415f45
    638c:	54524553 	.word	0x54524553
    6390:	5476203a 	.word	0x5476203a
    6394:	65636172 	.word	0x65636172
    6398:	726f7453 	.word	0x726f7453
    639c:	73615465 	.word	0x73615465
    63a0:	6977736b 	.word	0x6977736b
    63a4:	3a686374 	.word	0x3a686374
    63a8:	766e4920 	.word	0x766e4920
    63ac:	64696c61 	.word	0x64696c61
    63b0:	6c617620 	.word	0x6c617620
    63b4:	66206575 	.word	0x66206575
    63b8:	7420726f 	.word	0x7420726f
    63bc:	5f6b7361 	.word	0x5f6b7361
    63c0:	646e6168 	.word	0x646e6168
    63c4:	0000656c 	.word	0x0000656c
    63c8:	43415254 	.word	0x43415254
    63cc:	53415f45 	.word	0x53415f45
    63d0:	54524553 	.word	0x54524553
    63d4:	5476203a 	.word	0x5476203a
    63d8:	65636172 	.word	0x65636172
    63dc:	54746553 	.word	0x54746553
    63e0:	496b7361 	.word	0x496b7361
    63e4:	6174736e 	.word	0x6174736e
    63e8:	4665636e 	.word	0x4665636e
    63ec:	73696e69 	.word	0x73696e69
    63f0:	3a646568 	.word	0x3a646568
    63f4:	766e4920 	.word	0x766e4920
    63f8:	64696c61 	.word	0x64696c61
    63fc:	6c617620 	.word	0x6c617620
    6400:	66206575 	.word	0x66206575
    6404:	6820726f 	.word	0x6820726f
    6408:	6c646e61 	.word	0x6c646e61
    640c:	00000065 	.word	0x00000065
    6410:	00002314 	.word	0x00002314
    6414:	0000230c 	.word	0x0000230c
    6418:	00002310 	.word	0x00002310
    641c:	00002308 	.word	0x00002308
    6420:	00002324 	.word	0x00002324
    6424:	00002318 	.word	0x00002318
    6428:	0000231c 	.word	0x0000231c
    642c:	000023c2 	.word	0x000023c2
    6430:	00002396 	.word	0x00002396
    6434:	000023ac 	.word	0x000023ac
    6438:	00002380 	.word	0x00002380
    643c:	00002402 	.word	0x00002402
    6440:	000023d6 	.word	0x000023d6
    6444:	000023ec 	.word	0x000023ec
    6448:	20746f4e 	.word	0x20746f4e
    644c:	756f6e65 	.word	0x756f6e65
    6450:	54206867 	.word	0x54206867
    6454:	204b5341 	.word	0x204b5341
    6458:	646e6168 	.word	0x646e6168
    645c:	2073656c 	.word	0x2073656c
    6460:	6e69202d 	.word	0x6e69202d
    6464:	61657263 	.word	0x61657263
    6468:	4e206573 	.word	0x4e206573
    646c:	6b736154 	.word	0x6b736154
    6470:	206e6920 	.word	0x206e6920
    6474:	43637274 	.word	0x43637274
    6478:	69666e6f 	.word	0x69666e6f
    647c:	00682e67 	.word	0x00682e67
    6480:	20746f4e 	.word	0x20746f4e
    6484:	756f6e65 	.word	0x756f6e65
    6488:	49206867 	.word	0x49206867
    648c:	68205253 	.word	0x68205253
    6490:	6c646e61 	.word	0x6c646e61
    6494:	2d207365 	.word	0x2d207365
    6498:	636e6920 	.word	0x636e6920
    649c:	73616572 	.word	0x73616572
    64a0:	494e2065 	.word	0x494e2065
    64a4:	69205253 	.word	0x69205253
    64a8:	7274206e 	.word	0x7274206e
    64ac:	6e6f4363 	.word	0x6e6f4363
    64b0:	2e676966 	.word	0x2e676966
    64b4:	00000068 	.word	0x00000068
    64b8:	20746f4e 	.word	0x20746f4e
    64bc:	756f6e65 	.word	0x756f6e65
    64c0:	53206867 	.word	0x53206867
    64c4:	50414d45 	.word	0x50414d45
    64c8:	45524f48 	.word	0x45524f48
    64cc:	6e616820 	.word	0x6e616820
    64d0:	73656c64 	.word	0x73656c64
    64d4:	69202d20 	.word	0x69202d20
    64d8:	6572636e 	.word	0x6572636e
    64dc:	20657361 	.word	0x20657361
    64e0:	6d65534e 	.word	0x6d65534e
    64e4:	6f687061 	.word	0x6f687061
    64e8:	69206572 	.word	0x69206572
    64ec:	7274206e 	.word	0x7274206e
    64f0:	6e6f4363 	.word	0x6e6f4363
    64f4:	2e676966 	.word	0x2e676966
    64f8:	00000068 	.word	0x00000068
    64fc:	20746f4e 	.word	0x20746f4e
    6500:	756f6e65 	.word	0x756f6e65
    6504:	4d206867 	.word	0x4d206867
    6508:	58455455 	.word	0x58455455
    650c:	6e616820 	.word	0x6e616820
    6510:	73656c64 	.word	0x73656c64
    6514:	69202d20 	.word	0x69202d20
    6518:	6572636e 	.word	0x6572636e
    651c:	20657361 	.word	0x20657361
    6520:	74754d4e 	.word	0x74754d4e
    6524:	69207865 	.word	0x69207865
    6528:	7274206e 	.word	0x7274206e
    652c:	6e6f4363 	.word	0x6e6f4363
    6530:	2e676966 	.word	0x2e676966
    6534:	00000068 	.word	0x00000068
    6538:	20746f4e 	.word	0x20746f4e
    653c:	756f6e65 	.word	0x756f6e65
    6540:	51206867 	.word	0x51206867
    6544:	45554555 	.word	0x45554555
    6548:	6e616820 	.word	0x6e616820
    654c:	73656c64 	.word	0x73656c64
    6550:	69202d20 	.word	0x69202d20
    6554:	6572636e 	.word	0x6572636e
    6558:	20657361 	.word	0x20657361
    655c:	6575514e 	.word	0x6575514e
    6560:	69206575 	.word	0x69206575
    6564:	7274206e 	.word	0x7274206e
    6568:	6e6f4363 	.word	0x6e6f4363
    656c:	2e676966 	.word	0x2e676966
    6570:	00000068 	.word	0x00000068
    6574:	20746f4e 	.word	0x20746f4e
    6578:	756f6e65 	.word	0x756f6e65
    657c:	54206867 	.word	0x54206867
    6580:	52454d49 	.word	0x52454d49
    6584:	6e616820 	.word	0x6e616820
    6588:	73656c64 	.word	0x73656c64
    658c:	69202d20 	.word	0x69202d20
    6590:	6572636e 	.word	0x6572636e
    6594:	20657361 	.word	0x20657361
    6598:	6d69544e 	.word	0x6d69544e
    659c:	69207265 	.word	0x69207265
    65a0:	7274206e 	.word	0x7274206e
    65a4:	6e6f4363 	.word	0x6e6f4363
    65a8:	2e676966 	.word	0x2e676966
    65ac:	00000068 	.word	0x00000068
    65b0:	20746f4e 	.word	0x20746f4e
    65b4:	756f6e65 	.word	0x756f6e65
    65b8:	45206867 	.word	0x45206867
    65bc:	544e4556 	.word	0x544e4556
    65c0:	554f5247 	.word	0x554f5247
    65c4:	61682050 	.word	0x61682050
    65c8:	656c646e 	.word	0x656c646e
    65cc:	202d2073 	.word	0x202d2073
    65d0:	72636e69 	.word	0x72636e69
    65d4:	65736165 	.word	0x65736165
    65d8:	76454e20 	.word	0x76454e20
    65dc:	47746e65 	.word	0x47746e65
    65e0:	70756f72 	.word	0x70756f72
    65e4:	206e6920 	.word	0x206e6920
    65e8:	43637274 	.word	0x43637274
    65ec:	69666e6f 	.word	0x69666e6f
    65f0:	00682e67 	.word	0x00682e67
    65f4:	547a7370 	.word	0x547a7370
    65f8:	65636172 	.word	0x65636172
    65fc:	45746547 	.word	0x45746547
    6600:	726f7272 	.word	0x726f7272
    6604:	646e6148 	.word	0x646e6148
    6608:	3a73656c 	.word	0x3a73656c
    660c:	766e4920 	.word	0x766e4920
    6610:	64696c61 	.word	0x64696c61
    6614:	6a626f20 	.word	0x6a626f20
    6618:	63746365 	.word	0x63746365
    661c:	7373616c 	.word	0x7373616c
    6620:	00000021 	.word	0x00000021
    6624:	43415254 	.word	0x43415254
    6628:	53415f45 	.word	0x53415f45
    662c:	54524553 	.word	0x54524553
    6630:	7270203a 	.word	0x7270203a
    6634:	61725476 	.word	0x61725476
    6638:	73496563 	.word	0x73496563
    663c:	656a624f 	.word	0x656a624f
    6640:	78457463 	.word	0x78457463
    6644:	64756c63 	.word	0x64756c63
    6648:	203a6465 	.word	0x203a6465
    664c:	656a626f 	.word	0x656a626f
    6650:	6c637463 	.word	0x6c637463
    6654:	20737361 	.word	0x20737361
    6658:	54203d3e 	.word	0x54203d3e
    665c:	45434152 	.word	0x45434152
    6660:	4c434e5f 	.word	0x4c434e5f
    6664:	45535341 	.word	0x45535341
    6668:	00000053 	.word	0x00000053
    666c:	43415254 	.word	0x43415254
    6670:	53415f45 	.word	0x53415f45
    6674:	54524553 	.word	0x54524553
    6678:	6975203a 	.word	0x6975203a
    667c:	63617254 	.word	0x63617254
    6680:	4f734965 	.word	0x4f734965
    6684:	63656a62 	.word	0x63656a62
    6688:	63784574 	.word	0x63784574
    668c:	6564756c 	.word	0x6564756c
    6690:	49203a64 	.word	0x49203a64
    6694:	6c61766e 	.word	0x6c61766e
    6698:	76206469 	.word	0x76206469
    669c:	65756c61 	.word	0x65756c61
    66a0:	726f6620 	.word	0x726f6620
    66a4:	6e616820 	.word	0x6e616820
    66a8:	00656c64 	.word	0x00656c64
    66ac:	61766e49 	.word	0x61766e49
    66b0:	2064696c 	.word	0x2064696c
    66b4:	656a626f 	.word	0x656a626f
    66b8:	63207463 	.word	0x63207463
    66bc:	7373616c 	.word	0x7373616c
    66c0:	20444920 	.word	0x20444920
    66c4:	75206e69 	.word	0x75206e69
    66c8:	61725469 	.word	0x61725469
    66cc:	73496563 	.word	0x73496563
    66d0:	656a624f 	.word	0x656a624f
    66d4:	78457463 	.word	0x78457463
    66d8:	64756c63 	.word	0x64756c63
    66dc:	00216465 	.word	0x00216465
    66e0:	0000267c 	.word	0x0000267c
    66e4:	0000281c 	.word	0x0000281c
    66e8:	0000281c 	.word	0x0000281c
    66ec:	0000281c 	.word	0x0000281c
    66f0:	0000281c 	.word	0x0000281c
    66f4:	0000281c 	.word	0x0000281c
    66f8:	0000281c 	.word	0x0000281c
    66fc:	0000281c 	.word	0x0000281c
    6700:	0000281c 	.word	0x0000281c
    6704:	0000281c 	.word	0x0000281c
    6708:	000027c6 	.word	0x000027c6
    670c:	0000281c 	.word	0x0000281c
    6710:	00002664 	.word	0x00002664
    6714:	0000281c 	.word	0x0000281c
    6718:	000026b2 	.word	0x000026b2
    671c:	0000281c 	.word	0x0000281c
    6720:	00002786 	.word	0x00002786
    6724:	0000281c 	.word	0x0000281c
    6728:	0000281c 	.word	0x0000281c
    672c:	0000281c 	.word	0x0000281c
    6730:	0000271a 	.word	0x0000271a
    6734:	0000281c 	.word	0x0000281c
    6738:	0000281c 	.word	0x0000281c
    673c:	0000281c 	.word	0x0000281c
    6740:	0000281c 	.word	0x0000281c
    6744:	0000281c 	.word	0x0000281c
    6748:	0000281c 	.word	0x0000281c
    674c:	00002694 	.word	0x00002694
    6750:	0000281c 	.word	0x0000281c
    6754:	0000267c 	.word	0x0000267c
    6758:	0000281c 	.word	0x0000281c
    675c:	0000281c 	.word	0x0000281c
    6760:	0000267c 	.word	0x0000267c
    6764:	43415254 	.word	0x43415254
    6768:	53415f45 	.word	0x53415f45
    676c:	54524553 	.word	0x54524553
    6770:	7277203a 	.word	0x7277203a
    6774:	49657469 	.word	0x49657469
    6778:	3233746e 	.word	0x3233746e
    677c:	7562203a 	.word	0x7562203a
    6780:	72656666 	.word	0x72656666
    6784:	203d3d20 	.word	0x203d3d20
    6788:	4c4c554e 	.word	0x4c4c554e
    678c:	00000000 	.word	0x00000000
    6790:	43415254 	.word	0x43415254
    6794:	53415f45 	.word	0x53415f45
    6798:	54524553 	.word	0x54524553
    679c:	7277203a 	.word	0x7277203a
    67a0:	49657469 	.word	0x49657469
    67a4:	3631746e 	.word	0x3631746e
    67a8:	7562203a 	.word	0x7562203a
    67ac:	72656666 	.word	0x72656666
    67b0:	203d3d20 	.word	0x203d3d20
    67b4:	4c4c554e 	.word	0x4c4c554e
    67b8:	00000000 	.word	0x00000000
    67bc:	6f636552 	.word	0x6f636552
    67c0:	72656472 	.word	0x72656472
    67c4:	61746144 	.word	0x61746144
    67c8:	20727450 	.word	0x20727450
    67cc:	4e207369 	.word	0x4e207369
    67d0:	2e4c4c55 	.word	0x2e4c4c55
    67d4:	6c614320 	.word	0x6c614320
    67d8:	5476206c 	.word	0x5476206c
    67dc:	65636172 	.word	0x65636172
    67e0:	74696e49 	.word	0x74696e49
    67e4:	63617254 	.word	0x63617254
    67e8:	74614465 	.word	0x74614465
    67ec:	20292861 	.word	0x20292861
    67f0:	6f666562 	.word	0x6f666562
    67f4:	73206572 	.word	0x73206572
    67f8:	74726174 	.word	0x74726174
    67fc:	20676e69 	.word	0x20676e69
    6800:	63617274 	.word	0x63617274
    6804:	00002e65 	.word	0x00002e65
    6808:	61747328 	.word	0x61747328
    680c:	70757472 	.word	0x70757472
    6810:	00000029 	.word	0x00000029
    6814:	43415254 	.word	0x43415254
    6818:	53415f45 	.word	0x53415f45
    681c:	54524553 	.word	0x54524553
    6820:	5476203a 	.word	0x5476203a
    6824:	65636172 	.word	0x65636172
    6828:	49746553 	.word	0x49746553
    682c:	72505253 	.word	0x72505253
    6830:	7265706f 	.word	0x7265706f
    6834:	73656974 	.word	0x73656974
    6838:	6e49203a 	.word	0x6e49203a
    683c:	696c6176 	.word	0x696c6176
    6840:	61762064 	.word	0x61762064
    6844:	2065756c 	.word	0x2065756c
    6848:	20726f66 	.word	0x20726f66
    684c:	646e6168 	.word	0x646e6168
    6850:	0000656c 	.word	0x0000656c
    6854:	43415254 	.word	0x43415254
    6858:	53415f45 	.word	0x53415f45
    685c:	54524553 	.word	0x54524553
    6860:	5476203a 	.word	0x5476203a
    6864:	65636172 	.word	0x65636172
    6868:	49746553 	.word	0x49746553
    686c:	72505253 	.word	0x72505253
    6870:	7265706f 	.word	0x7265706f
    6874:	73656974 	.word	0x73656974
    6878:	616e203a 	.word	0x616e203a
    687c:	3d20656d 	.word	0x3d20656d
    6880:	554e203d 	.word	0x554e203d
    6884:	00004c4c 	.word	0x00004c4c
    6888:	656c6c49 	.word	0x656c6c49
    688c:	206c6167 	.word	0x206c6167
    6890:	6c6c6163 	.word	0x6c6c6163
    6894:	206f7420 	.word	0x206f7420
    6898:	61725476 	.word	0x61725476
    689c:	74536563 	.word	0x74536563
    68a0:	4965726f 	.word	0x4965726f
    68a4:	65425253 	.word	0x65425253
    68a8:	2c6e6967 	.word	0x2c6e6967
    68ac:	63657220 	.word	0x63657220
    68b0:	6564726f 	.word	0x6564726f
    68b4:	75622072 	.word	0x75622072
    68b8:	00217973 	.word	0x00217973
    68bc:	43415254 	.word	0x43415254
    68c0:	53415f45 	.word	0x53415f45
    68c4:	54524553 	.word	0x54524553
    68c8:	5476203a 	.word	0x5476203a
    68cc:	65636172 	.word	0x65636172
    68d0:	726f7453 	.word	0x726f7453
    68d4:	52534965 	.word	0x52534965
    68d8:	69676542 	.word	0x69676542
    68dc:	49203a6e 	.word	0x49203a6e
    68e0:	6c61766e 	.word	0x6c61766e
    68e4:	76206469 	.word	0x76206469
    68e8:	65756c61 	.word	0x65756c61
    68ec:	726f6620 	.word	0x726f6620
    68f0:	6e616820 	.word	0x6e616820
    68f4:	00656c64 	.word	0x00656c64
    68f8:	206f6f54 	.word	0x206f6f54
    68fc:	796e616d 	.word	0x796e616d
    6900:	73656e20 	.word	0x73656e20
    6904:	20646574 	.word	0x20646574
    6908:	65746e69 	.word	0x65746e69
    690c:	70757272 	.word	0x70757272
    6910:	00217374 	.word	0x00217374
    6914:	656c6c49 	.word	0x656c6c49
    6918:	206c6167 	.word	0x206c6167
    691c:	6c6c6163 	.word	0x6c6c6163
    6920:	206f7420 	.word	0x206f7420
    6924:	61725476 	.word	0x61725476
    6928:	74536563 	.word	0x74536563
    692c:	4965726f 	.word	0x4965726f
    6930:	6e455253 	.word	0x6e455253
    6934:	72202c64 	.word	0x72202c64
    6938:	726f6365 	.word	0x726f6365
    693c:	20726564 	.word	0x20726564
    6940:	79737562 	.word	0x79737562
    6944:	00000021 	.word	0x00000021
    6948:	616d6e55 	.word	0x616d6e55
    694c:	65686374 	.word	0x65686374
    6950:	61632064 	.word	0x61632064
    6954:	74206c6c 	.word	0x74206c6c
    6958:	5476206f 	.word	0x5476206f
    695c:	65636172 	.word	0x65636172
    6960:	726f7453 	.word	0x726f7453
    6964:	52534965 	.word	0x52534965
    6968:	20646e45 	.word	0x20646e45
    696c:	53496e28 	.word	0x53496e28
    6970:	74636152 	.word	0x74636152
    6974:	20657669 	.word	0x20657669
    6978:	30203d3d 	.word	0x30203d3d
    697c:	7865202c 	.word	0x7865202c
    6980:	74636570 	.word	0x74636570
    6984:	3e206465 	.word	0x3e206465
    6988:	00293020 	.word	0x00293020
    698c:	43415254 	.word	0x43415254
    6990:	53415f45 	.word	0x53415f45
    6994:	54524553 	.word	0x54524553
    6998:	5476203a 	.word	0x5476203a
    699c:	65636172 	.word	0x65636172
    69a0:	72657355 	.word	0x72657355
    69a4:	6e657645 	.word	0x6e657645
    69a8:	49203a74 	.word	0x49203a74
    69ac:	6c61766e 	.word	0x6c61766e
    69b0:	76206469 	.word	0x76206469
    69b4:	65756c61 	.word	0x65756c61
    69b8:	726f6620 	.word	0x726f6620
    69bc:	65766520 	.word	0x65766520
    69c0:	614c746e 	.word	0x614c746e
    69c4:	006c6562 	.word	0x006c6562
    69c8:	43415254 	.word	0x43415254
    69cc:	53415f45 	.word	0x53415f45
    69d0:	54524553 	.word	0x54524553
    69d4:	5478203a 	.word	0x5478203a
    69d8:	65636172 	.word	0x65636172
    69dc:	6e65704f 	.word	0x6e65704f
    69e0:	6562614c 	.word	0x6562614c
    69e4:	6c203a6c 	.word	0x6c203a6c
    69e8:	6c656261 	.word	0x6c656261
    69ec:	203d3d20 	.word	0x203d3d20
    69f0:	4c4c554e 	.word	0x4c4c554e
    69f4:	00000000 	.word	0x00000000
    69f8:	43415254 	.word	0x43415254
    69fc:	53415f45 	.word	0x53415f45
    6a00:	54524553 	.word	0x54524553
    6a04:	5476203a 	.word	0x5476203a
    6a08:	65636172 	.word	0x65636172
    6a0c:	6e697250 	.word	0x6e697250
    6a10:	203a4674 	.word	0x203a4674
    6a14:	6d726f66 	.word	0x6d726f66
    6a18:	74537461 	.word	0x74537461
    6a1c:	3d3d2072 	.word	0x3d3d2072
    6a20:	4c554e20 	.word	0x4c554e20
    6a24:	0000004c 	.word	0x0000004c
    6a28:	61725476 	.word	0x61725476
    6a2c:	72506563 	.word	0x72506563
    6a30:	46746e69 	.word	0x46746e69
    6a34:	54202d20 	.word	0x54202d20
    6a38:	6d206f6f 	.word	0x6d206f6f
    6a3c:	20796e61 	.word	0x20796e61
    6a40:	75677261 	.word	0x75677261
    6a44:	746e656d 	.word	0x746e656d
    6a48:	6d202c73 	.word	0x6d202c73
    6a4c:	31207861 	.word	0x31207861
    6a50:	6c612035 	.word	0x6c612035
    6a54:	65776f6c 	.word	0x65776f6c
    6a58:	00002164 	.word	0x00002164
    6a5c:	61725476 	.word	0x61725476
    6a60:	72506563 	.word	0x72506563
    6a64:	46746e69 	.word	0x46746e69
    6a68:	54202d20 	.word	0x54202d20
    6a6c:	6c206f6f 	.word	0x6c206f6f
    6a70:	65677261 	.word	0x65677261
    6a74:	67726120 	.word	0x67726120
    6a78:	6e656d75 	.word	0x6e656d75
    6a7c:	202c7374 	.word	0x202c7374
    6a80:	2078616d 	.word	0x2078616d
    6a84:	62203233 	.word	0x62203233
    6a88:	20657479 	.word	0x20657479
    6a8c:	6f6c6c61 	.word	0x6f6c6c61
    6a90:	21646577 	.word	0x21646577
    6a94:	00000000 	.word	0x00000000
    6a98:	454c4449 	.word	0x454c4449
    6a9c:	00000000 	.word	0x00000000
    6aa0:	000046ce 	.word	0x000046ce
    6aa4:	000046ce 	.word	0x000046ce
    6aa8:	000046ce 	.word	0x000046ce
    6aac:	00004726 	.word	0x00004726
    6ab0:	00004708 	.word	0x00004708
    6ab4:	00004720 	.word	0x00004720
    6ab8:	000046ce 	.word	0x000046ce
    6abc:	000046ce 	.word	0x000046ce
    6ac0:	00004726 	.word	0x00004726
    6ac4:	00004708 	.word	0x00004708
    6ac8:	20726d54 	.word	0x20726d54
    6acc:	00637653 	.word	0x00637653
    6ad0:	00004880 	.word	0x00004880
    6ad4:	000048dc 	.word	0x000048dc
    6ad8:	000048dc 	.word	0x000048dc
    6adc:	0000487a 	.word	0x0000487a
    6ae0:	0000487a 	.word	0x0000487a
    6ae4:	00004896 	.word	0x00004896
    6ae8:	00004886 	.word	0x00004886
    6aec:	0000489c 	.word	0x0000489c
    6af0:	000048ca 	.word	0x000048ca
    6af4:	00004ab8 	.word	0x00004ab8
    6af8:	00004b24 	.word	0x00004b24
    6afc:	00004b24 	.word	0x00004b24
    6b00:	00004a98 	.word	0x00004a98
    6b04:	00004aaa 	.word	0x00004aaa
    6b08:	00004ac6 	.word	0x00004ac6
    6b0c:	00004a9c 	.word	0x00004a9c
    6b10:	00004ad4 	.word	0x00004ad4
    6b14:	00004b14 	.word	0x00004b14
    6b18:	00004b5c 	.word	0x00004b5c
    6b1c:	00004b9e 	.word	0x00004b9e
    6b20:	00004b9e 	.word	0x00004b9e
    6b24:	00004b9e 	.word	0x00004b9e
    6b28:	00004b4e 	.word	0x00004b4e
    6b2c:	00004b6a 	.word	0x00004b6a
    6b30:	00004b40 	.word	0x00004b40
    6b34:	00004b78 	.word	0x00004b78
    6b38:	00004b8e 	.word	0x00004b8e
    6b3c:	00004bc0 	.word	0x00004bc0
    6b40:	00004bf6 	.word	0x00004bf6
    6b44:	00004bf6 	.word	0x00004bf6
    6b48:	00004bbc 	.word	0x00004bbc
    6b4c:	00004be4 	.word	0x00004be4
    6b50:	00004bc4 	.word	0x00004bc4
    6b54:	00004be0 	.word	0x00004be0
    6b58:	00004bc8 	.word	0x00004bc8
    6b5c:	00004bcc 	.word	0x00004bcc
    6b60:	00000043 	.word	0x00000043

00006b64 <_global_impure_ptr>:
    6b64:	20000020                                 .. 

00006b68 <_init>:
    6b68:	b5f8      	push	{r3, r4, r5, r6, r7, lr}
    6b6a:	46c0      	nop			; (mov r8, r8)
    6b6c:	bcf8      	pop	{r3, r4, r5, r6, r7}
    6b6e:	bc08      	pop	{r3}
    6b70:	469e      	mov	lr, r3
    6b72:	4770      	bx	lr

00006b74 <__init_array_start>:
    6b74:	000055d1 	.word	0x000055d1

00006b78 <__frame_dummy_init_array_entry>:
    6b78:	000000d9                                ....

00006b7c <_fini>:
    6b7c:	b5f8      	push	{r3, r4, r5, r6, r7, lr}
    6b7e:	46c0      	nop			; (mov r8, r8)
    6b80:	bcf8      	pop	{r3, r4, r5, r6, r7}
    6b82:	bc08      	pop	{r3}
    6b84:	469e      	mov	lr, r3
    6b86:	4770      	bx	lr

00006b88 <__fini_array_start>:
    6b88:	000000b1 	.word	0x000000b1
